GAS LISTING /tmp/ccAI66JU.s 			page 1


   1              		.file	"ccb.cpp"
   2              		.option pic
   3              		.option norelax
   4              		.text
   5              	.Ltext0:
   6              		.align	2
   7              		.globl	_ZN3CCB13threadWrapperEv
   9              	_ZN3CCB13threadWrapperEv:
  10              	.LFB41:
  11              		.file 1 "src/ccb.cpp"
   1:src/ccb.cpp   **** //
   2:src/ccb.cpp   **** // Created by os on 6/24/22.
   3:src/ccb.cpp   **** //
   4:src/ccb.cpp   **** #include "../h/ccb.hpp"
   5:src/ccb.cpp   **** #include "../h/Riscv.hpp"
   6:src/ccb.cpp   **** 
   7:src/ccb.cpp   **** CCB *CCB::running = nullptr;
   8:src/ccb.cpp   **** 
   9:src/ccb.cpp   **** CCB *CCB::createCoroutine(Body body)
  10:src/ccb.cpp   **** {
  11:src/ccb.cpp   ****     return new CCB(body);
  12:src/ccb.cpp   **** }
  13:src/ccb.cpp   **** 
  14:src/ccb.cpp   **** void CCB::yield()
  15:src/ccb.cpp   **** {
  16:src/ccb.cpp   ****     Riscv::pushRegisters();
  17:src/ccb.cpp   **** 
  18:src/ccb.cpp   ****     CCB::dispatch();
  19:src/ccb.cpp   **** 
  20:src/ccb.cpp   ****     Riscv::popRegisters();
  21:src/ccb.cpp   **** }
  22:src/ccb.cpp   **** 
  23:src/ccb.cpp   **** void CCB::dispatch()
  24:src/ccb.cpp   **** {
  25:src/ccb.cpp   ****     CCB *old = running;
  26:src/ccb.cpp   ****     if (!old->isFinished()) { Scheduler::put(old); }
  27:src/ccb.cpp   ****     running = Scheduler::get();
  28:src/ccb.cpp   **** 
  29:src/ccb.cpp   ****     CCB::contextSwitch(&old->context, &running->context);
  30:src/ccb.cpp   **** }
  31:src/ccb.cpp   **** 
  32:src/ccb.cpp   **** void CCB::threadWrapper() {
  12              		.loc 1 32 27
  13              		.cfi_startproc
  14 0000 130101FE 		addi	sp,sp,-32
  15              		.cfi_def_cfa_offset 32
  16 0004 233C1100 		sd	ra,24(sp)
  17 0008 23388100 		sd	s0,16(sp)
  18 000c 23349100 		sd	s1,8(sp)
  19              		.cfi_offset 1, -8
  20              		.cfi_offset 8, -16
  21              		.cfi_offset 9, -24
  22 0010 13040102 		addi	s0,sp,32
  23              		.cfi_def_cfa 8, 0
  33:src/ccb.cpp   ****     Riscv::popSppSpie();
  24              		.loc 1 33 5
  25              		.loc 1 33 22 is_stmt 0
GAS LISTING /tmp/ccAI66JU.s 			page 2


  26 0014 97000000 		call	_ZN5Riscv10popSppSpieEv@plt
  26      E7800000 
  27              	.LVL0:
  34:src/ccb.cpp   ****     running->body();
  28              		.loc 1 34 5 is_stmt 1
  29              		.loc 1 34 14 is_stmt 0
  30 001c 97040000 		lla	s1,.LANCHOR0
  30      93840400 
  31 0024 83B70400 		ld	a5,0(s1)
  32 0028 83B70700 		ld	a5,0(a5)
  33              		.loc 1 34 18
  34 002c E7800700 		jalr	a5
  35              	.LVL1:
  35:src/ccb.cpp   ****     running->setFinished(true);
  36              		.loc 1 35 5 is_stmt 1
  37              		.loc 1 35 25 is_stmt 0
  38 0030 83B70400 		ld	a5,0(s1)
  39              	.LVL2:
  40              	.LBB10:
  41              	.LBB11:
  42              		.file 2 "src/../h/ccb.hpp"
   1:src/../h/ccb.hpp **** //
   2:src/../h/ccb.hpp **** // Created by os on 6/24/22.
   3:src/../h/ccb.hpp **** //
   4:src/../h/ccb.hpp **** 
   5:src/../h/ccb.hpp **** #ifndef PROJECT_V33333333333_CCB_HPP
   6:src/../h/ccb.hpp **** #define PROJECT_V33333333333_CCB_HPP
   7:src/../h/ccb.hpp **** #include "../lib/hw.h"
   8:src/../h/ccb.hpp **** #include "Scheduler.hpp"
   9:src/../h/ccb.hpp **** #include "syscall_c.h"
  10:src/../h/ccb.hpp **** #include "MemoryAllocator.hpp"
  11:src/../h/ccb.hpp **** #include "Riscv.hpp"
  12:src/../h/ccb.hpp **** 
  13:src/../h/ccb.hpp **** // Coroutine Control Block
  14:src/../h/ccb.hpp **** class CCB
  15:src/../h/ccb.hpp **** {
  16:src/../h/ccb.hpp **** public:
  17:src/../h/ccb.hpp ****     ~CCB() { delete[] stack; }
  18:src/../h/ccb.hpp **** 
  19:src/../h/ccb.hpp ****     void* operator new(size_t size) {
  20:src/../h/ccb.hpp ****         return MemoryAllocator::allocateB(size);
  21:src/../h/ccb.hpp ****     }
  22:src/../h/ccb.hpp **** 
  23:src/../h/ccb.hpp ****     void operator delete(void* address) {
  24:src/../h/ccb.hpp ****         MemoryAllocator::free(address);
  25:src/../h/ccb.hpp ****     }
  26:src/../h/ccb.hpp **** 
  27:src/../h/ccb.hpp ****     bool isFinished() const { return finished; }
  28:src/../h/ccb.hpp **** 
  29:src/../h/ccb.hpp ****     void setFinished(bool value) { finished = value;}
  43              		.loc 2 29 36 is_stmt 1
  44              		.loc 2 29 45 is_stmt 0
  45 0034 13071000 		li	a4,1
  46 0038 2380E702 		sb	a4,32(a5)
  47              	.LVL3:
  48              	.LBE11:
  49              	.LBE10:
GAS LISTING /tmp/ccAI66JU.s 			page 3


  36:src/ccb.cpp   ****     thread_dispatch();
  50              		.loc 1 36 5 is_stmt 1
  51              		.loc 1 36 20 is_stmt 0
  52 003c 97000000 		call	_Z15thread_dispatchv@plt
  52      E7800000 
  53              	.LVL4:
  37:src/ccb.cpp   **** }...
  54              		.loc 1 37 1
  55 0044 83308101 		ld	ra,24(sp)
  56              		.cfi_restore 1
  57 0048 03340101 		ld	s0,16(sp)
  58              		.cfi_restore 8
  59              		.cfi_def_cfa 2, 32
  60 004c 83348100 		ld	s1,8(sp)
  61              		.cfi_restore 9
  62 0050 13010102 		addi	sp,sp,32
  63              		.cfi_def_cfa_offset 0
  64 0054 67800000 		jr	ra
  65              		.cfi_endproc
  66              	.LFE41:
  68              		.align	2
  69              		.globl	_ZN3CCB15createCoroutineEPFvvE
  71              	_ZN3CCB15createCoroutineEPFvvE:
  72              	.LFB38:
  10:src/ccb.cpp   **** {
  73              		.loc 1 10 1 is_stmt 1
  74              		.cfi_startproc
  75              		.cfi_personality 0x9b,DW.ref.__gxx_personality_v0
  76              		.cfi_lsda 0x1b,.LLSDA38
  77              	.LVL5:
  78 0058 130101FE 		addi	sp,sp,-32
  79              		.cfi_def_cfa_offset 32
  80 005c 233C1100 		sd	ra,24(sp)
  81 0060 23388100 		sd	s0,16(sp)
  82 0064 23349100 		sd	s1,8(sp)
  83 0068 23302101 		sd	s2,0(sp)
  84              		.cfi_offset 1, -8
  85              		.cfi_offset 8, -16
  86              		.cfi_offset 9, -24
  87              		.cfi_offset 18, -32
  88 006c 13040102 		addi	s0,sp,32
  89              		.cfi_def_cfa 8, 0
  90 0070 13090500 		mv	s2,a0
  11:src/ccb.cpp   ****     return new CCB(body);
  91              		.loc 1 11 5
  92              	.LVL6:
  93              	.LBB19:
  94              	.LBB20:
  20:src/../h/ccb.hpp ****     }
  95              		.loc 2 20 9
  20:src/../h/ccb.hpp ****     }
  96              		.loc 2 20 42 is_stmt 0
  97 0074 13058002 		li	a0,40
  98              	.LVL7:
  99              	.LEHB0:
 100 0078 97000000 		call	_ZN15MemoryAllocator9allocateBEm@plt
 100      E7800000 
GAS LISTING /tmp/ccAI66JU.s 			page 4


 101              	.LVL8:
 102              	.LEHE0:
 103 0080 93040500 		mv	s1,a0
 104              	.LVL9:
 105              	.LBE20:
 106              	.LBE19:
 107              	.LBB21:
 108              	.LBB22:
  30:src/../h/ccb.hpp **** 
  31:src/../h/ccb.hpp ****     using Body = void (*)();
  32:src/../h/ccb.hpp **** 
  33:src/../h/ccb.hpp ****     static CCB *createCoroutine(Body body);
  34:src/../h/ccb.hpp **** 
  35:src/../h/ccb.hpp ****     static void yield();
  36:src/../h/ccb.hpp **** 
  37:src/../h/ccb.hpp ****     static CCB *running;
  38:src/../h/ccb.hpp **** 
  39:src/../h/ccb.hpp ****     static void dispatch();
  40:src/../h/ccb.hpp **** 
  41:src/../h/ccb.hpp ****     static void threadWrapper();
  42:src/../h/ccb.hpp **** 
  43:src/../h/ccb.hpp **** private:
  44:src/../h/ccb.hpp ****     explicit CCB(Body body) :
  45:src/../h/ccb.hpp ****             body(body),
  46:src/../h/ccb.hpp ****             stack(body != nullptr ? (uint64*) MemoryAllocator::allocateB(sizeof(uint64) * STACK_SIZ
  47:src/../h/ccb.hpp ****             context({(uint64) &threadWrapper,
  48:src/../h/ccb.hpp ****                      stack != nullptr ? (uint64) &stack[STACK_SIZE] : 0
  49:src/../h/ccb.hpp ****                     }),
  50:src/../h/ccb.hpp ****             finished(false)
 109              		.loc 2 50 27
 110 0084 23302501 		sd	s2,0(a0)
  46:src/../h/ccb.hpp ****             context({(uint64) &threadWrapper,
 111              		.loc 2 46 35
 112 0088 630A0900 		beqz	s2,.L8
  46:src/../h/ccb.hpp ****             context({(uint64) &threadWrapper,
 113              		.loc 2 46 73
 114 008c 37250000 		li	a0,8192
 115              	.LEHB1:
 116 0090 97000000 		call	_ZN15MemoryAllocator9allocateBEm@plt
 116      E7800000 
 117              	.LVL10:
 118 0098 6F008000 		j	.L4
 119              	.L8:
  46:src/../h/ccb.hpp ****             context({(uint64) &threadWrapper,
 120              		.loc 2 46 35
 121 009c 13050000 		li	a0,0
 122              	.L4:
 123              		.loc 2 50 27
 124 00a0 23B4A400 		sd	a0,8(s1)
 125 00a4 97070000 		lla	a5,_ZN3CCB13threadWrapperEv
 125      93870700 
 126 00ac 23B8F400 		sd	a5,16(s1)
  48:src/../h/ccb.hpp ****                     }),
 127              		.loc 2 48 39
 128 00b0 63040502 		beqz	a0,.L9
  48:src/../h/ccb.hpp ****                     }),
 129              		.loc 2 48 50
GAS LISTING /tmp/ccAI66JU.s 			page 5


 130 00b4 B7270000 		li	a5,8192
 131 00b8 B307F500 		add	a5,a0,a5
 132              	.L5:
 133              		.loc 2 50 27
 134 00bc 23BCF400 		sd	a5,24(s1)
 135 00c0 23800402 		sb	zero,32(s1)
  51:src/../h/ccb.hpp ****     {
  52:src/../h/ccb.hpp ****         if (body != nullptr) { Scheduler::put(this); }
 136              		.loc 2 52 9 is_stmt 1
 137 00c4 630C0902 		beqz	s2,.L3
 138              		.loc 2 52 32
 139              		.loc 2 52 46 is_stmt 0
 140 00c8 13850400 		mv	a0,s1
 141 00cc 97000000 		call	_ZN9Scheduler3putEP3CCB@plt
 141      E7800000 
 142              	.LVL11:
 143              	.LEHE1:
 144 00d4 6F008002 		j	.L3
 145              	.L9:
  48:src/../h/ccb.hpp ****                     }),
 146              		.loc 2 48 39
 147 00d8 93070000 		li	a5,0
 148 00dc 6FF01FFE 		j	.L5
 149              	.L10:
 150 00e0 13090500 		mv	s2,a0
 151              	.LVL12:
 152              	.LBE22:
 153              	.LBE21:
 154              	.LBB23:
 155              	.LBB24:
  24:src/../h/ccb.hpp ****     }
 156              		.loc 2 24 9 is_stmt 1
  24:src/../h/ccb.hpp ****     }
 157              		.loc 2 24 30 is_stmt 0
 158 00e4 13850400 		mv	a0,s1
 159 00e8 97000000 		call	_ZN15MemoryAllocator4freeEPv@plt
 159      E7800000 
 160              	.LVL13:
 161 00f0 13050900 		mv	a0,s2
 162              	.LEHB2:
 163 00f4 97000000 		call	_Unwind_Resume@plt
 163      E7800000 
 164              	.LVL14:
 165              	.LEHE2:
 166              	.L3:
 167              	.LBE24:
 168              	.LBE23:
  12:src/ccb.cpp   **** }
 169              		.loc 1 12 1
 170 00fc 13850400 		mv	a0,s1
 171 0100 83308101 		ld	ra,24(sp)
 172              		.cfi_restore 1
 173 0104 03340101 		ld	s0,16(sp)
 174              		.cfi_restore 8
 175              		.cfi_def_cfa 2, 32
 176 0108 83348100 		ld	s1,8(sp)
 177              		.cfi_restore 9
GAS LISTING /tmp/ccAI66JU.s 			page 6


 178              	.LVL15:
 179 010c 03390100 		ld	s2,0(sp)
 180              		.cfi_restore 18
 181              	.LVL16:
 182 0110 13010102 		addi	sp,sp,32
 183              		.cfi_def_cfa_offset 0
 184 0114 67800000 		jr	ra
 185              		.cfi_endproc
 186              	.LFE38:
 187              		.globl	__gxx_personality_v0
 188              		.section	.gcc_except_table,"a",@progbits
 189              	.LLSDA38:
 190 0000 FF       		.byte	0xff
 191 0001 FF       		.byte	0xff
 192 0002 03       		.byte	0x3
 193 0003 27       		.byte	0x27
 194 0004 00000000 		.4byte	.LEHB0-.LFB38
 195 0008 00000000 		.4byte	.LEHE0-.LEHB0
 196 000c 00000000 		.4byte	0
 197 0010 00       		.byte	0
 198 0011 00000000 		.4byte	.LEHB1-.LFB38
 199 0015 00000000 		.4byte	.LEHE1-.LEHB1
 200 0019 00000000 		.4byte	.L10-.LFB38
 201 001d 00       		.byte	0
 202 001e 00000000 		.4byte	.LEHB2-.LFB38
 203 0022 00000000 		.4byte	.LEHE2-.LEHB2
 204 0026 00000000 		.4byte	0
 205 002a 00       		.byte	0
 206              		.text
 208              		.align	2
 209              		.globl	_ZN3CCB8dispatchEv
 211              	_ZN3CCB8dispatchEv:
 212              	.LFB40:
  24:src/ccb.cpp   **** {
 213              		.loc 1 24 1 is_stmt 1
 214              		.cfi_startproc
 215 0118 130101FE 		addi	sp,sp,-32
 216              		.cfi_def_cfa_offset 32
 217 011c 233C1100 		sd	ra,24(sp)
 218 0120 23388100 		sd	s0,16(sp)
 219 0124 23349100 		sd	s1,8(sp)
 220              		.cfi_offset 1, -8
 221              		.cfi_offset 8, -16
 222              		.cfi_offset 9, -24
 223 0128 13040102 		addi	s0,sp,32
 224              		.cfi_def_cfa 8, 0
  25:src/ccb.cpp   ****     CCB *old = running;
 225              		.loc 1 25 5
  25:src/ccb.cpp   ****     CCB *old = running;
 226              		.loc 1 25 10 is_stmt 0
 227 012c 97040000 		ld	s1,.LANCHOR0
 227      83B40400 
 228              	.LVL17:
  26:src/ccb.cpp   ****     if (!old->isFinished()) { Scheduler::put(old); }
 229              		.loc 1 26 5 is_stmt 1
 230              	.LBB25:
 231              	.LBB26:
GAS LISTING /tmp/ccAI66JU.s 			page 7


  27:src/../h/ccb.hpp **** 
 232              		.loc 2 27 31
  27:src/../h/ccb.hpp **** 
 233              		.loc 2 27 38 is_stmt 0
 234 0134 83C70402 		lbu	a5,32(s1)
 235              	.LVL18:
 236              	.LBE26:
 237              	.LBE25:
  26:src/ccb.cpp   ****     if (!old->isFinished()) { Scheduler::put(old); }
 238              		.loc 1 26 5
 239 0138 638C0702 		beqz	a5,.L15
 240              	.L13:
  27:src/ccb.cpp   ****     running = Scheduler::get();
 241              		.loc 1 27 5 is_stmt 1
  27:src/ccb.cpp   ****     running = Scheduler::get();
 242              		.loc 1 27 29 is_stmt 0
 243 013c 97000000 		call	_ZN9Scheduler3getEv@plt
 243      E7800000 
 244              	.LVL19:
  27:src/ccb.cpp   ****     running = Scheduler::get();
 245              		.loc 1 27 13
 246 0144 97070000 		sd	a0,.LANCHOR0,a5
 246      23B0A700 
  29:src/ccb.cpp   ****     CCB::contextSwitch(&old->context, &running->context);
 247              		.loc 1 29 5 is_stmt 1
  29:src/ccb.cpp   ****     CCB::contextSwitch(&old->context, &running->context);
 248              		.loc 1 29 23 is_stmt 0
 249 014c 93050501 		addi	a1,a0,16
 250 0150 13850401 		addi	a0,s1,16
 251 0154 97000000 		call	_ZN3CCB13contextSwitchEPNS_7ContextES1_@plt
 251      E7800000 
 252              	.LVL20:
  30:src/ccb.cpp   **** }
 253              		.loc 1 30 1
 254 015c 83308101 		ld	ra,24(sp)
 255              		.cfi_remember_state
 256              		.cfi_restore 1
 257 0160 03340101 		ld	s0,16(sp)
 258              		.cfi_restore 8
 259              		.cfi_def_cfa 2, 32
 260 0164 83348100 		ld	s1,8(sp)
 261              		.cfi_restore 9
 262              	.LVL21:
 263 0168 13010102 		addi	sp,sp,32
 264              		.cfi_def_cfa_offset 0
 265 016c 67800000 		jr	ra
 266              	.LVL22:
 267              	.L15:
 268              		.cfi_restore_state
  26:src/ccb.cpp   ****     if (!old->isFinished()) { Scheduler::put(old); }
 269              		.loc 1 26 31 is_stmt 1 discriminator 1
  26:src/ccb.cpp   ****     if (!old->isFinished()) { Scheduler::put(old); }
 270              		.loc 1 26 45 is_stmt 0 discriminator 1
 271 0170 13850400 		mv	a0,s1
 272 0174 97000000 		call	_ZN9Scheduler3putEP3CCB@plt
 272      E7800000 
 273              	.LVL23:
GAS LISTING /tmp/ccAI66JU.s 			page 8


 274 017c 6FF01FFC 		j	.L13
 275              		.cfi_endproc
 276              	.LFE40:
 278              		.align	2
 279              		.globl	_ZN3CCB5yieldEv
 281              	_ZN3CCB5yieldEv:
 282              	.LFB39:
  15:src/ccb.cpp   **** {
 283              		.loc 1 15 1 is_stmt 1
 284              		.cfi_startproc
 285 0180 130101FF 		addi	sp,sp,-16
 286              		.cfi_def_cfa_offset 16
 287 0184 23341100 		sd	ra,8(sp)
 288 0188 23308100 		sd	s0,0(sp)
 289              		.cfi_offset 1, -8
 290              		.cfi_offset 8, -16
 291 018c 13040101 		addi	s0,sp,16
 292              		.cfi_def_cfa 8, 0
  16:src/ccb.cpp   ****     Riscv::pushRegisters();
 293              		.loc 1 16 5
  16:src/ccb.cpp   ****     Riscv::pushRegisters();
 294              		.loc 1 16 25 is_stmt 0
 295 0190 97000000 		call	_ZN5Riscv13pushRegistersEv@plt
 295      E7800000 
 296              	.LVL24:
  18:src/ccb.cpp   ****     CCB::dispatch();
 297              		.loc 1 18 5 is_stmt 1
  18:src/ccb.cpp   ****     CCB::dispatch();
 298              		.loc 1 18 18 is_stmt 0
 299 0198 97000000 		call	_ZN3CCB8dispatchEv
 299      E7800000 
 300              	.LVL25:
  20:src/ccb.cpp   ****     Riscv::popRegisters();
 301              		.loc 1 20 5 is_stmt 1
  20:src/ccb.cpp   ****     Riscv::popRegisters();
 302              		.loc 1 20 24 is_stmt 0
 303 01a0 97000000 		call	_ZN5Riscv12popRegistersEv@plt
 303      E7800000 
 304              	.LVL26:
  21:src/ccb.cpp   **** }
 305              		.loc 1 21 1
 306 01a8 83308100 		ld	ra,8(sp)
 307              		.cfi_restore 1
 308 01ac 03340100 		ld	s0,0(sp)
 309              		.cfi_restore 8
 310              		.cfi_def_cfa 2, 16
 311 01b0 13010101 		addi	sp,sp,16
 312              		.cfi_def_cfa_offset 0
 313 01b4 67800000 		jr	ra
 314              		.cfi_endproc
 315              	.LFE39:
 317              		.globl	_ZN3CCB7runningE
 318              		.bss
 319              		.align	3
 320              		.set	.LANCHOR0,. + 0
 323              	_ZN3CCB7runningE:
 324 0000 00000000 		.zero	8
GAS LISTING /tmp/ccAI66JU.s 			page 9


 324      00000000 
 325              		.text
 326              	.Letext0:
 327              		.file 3 "src/../h/../lib/hw.h"
 328              		.file 4 "src/../h/MemoryAllocator.hpp"
 329              		.file 5 "src/../h/Scheduler.hpp"
 330              		.file 6 "src/../h/Riscv.hpp"
 331              		.file 7 "src/../h/syscall_c.h"
 2614              		.align	3
 2617              	DW.ref.__gxx_personality_v0:
 2618 0000 00000000 		.dword	__gxx_personality_v0
 2618      00000000 
 2619              		.ident	"GCC: (Ubuntu 9.4.0-1ubuntu1~20.04) 9.4.0"
 2620              		.section	.note.GNU-stack,"",@progbits
GAS LISTING /tmp/ccAI66JU.s 			page 10

