GAS LISTING /tmp/cczwHPDr.s 			page 1


   1              		.file	"Scheduler.cpp"
   2              		.option pic
   3              		.option norelax
   4              		.text
   5              	.Ltext0:
   6              		.align	2
   8              	_Z41__static_initialization_and_destruction_0ii:
   9              	.LFB26:
  10              		.file 1 "src/Scheduler.cpp"
   1:src/Scheduler.cpp **** //
   2:src/Scheduler.cpp **** // Created by os on 6/23/22.
   3:src/Scheduler.cpp **** //
   4:src/Scheduler.cpp **** #include "../h/Scheduler.hpp"
   5:src/Scheduler.cpp **** 
   6:src/Scheduler.cpp **** List<CCB> Scheduler::readyCoroutineQueue;
   7:src/Scheduler.cpp **** 
   8:src/Scheduler.cpp **** CCB *Scheduler::get()
   9:src/Scheduler.cpp **** {
  10:src/Scheduler.cpp ****     return readyCoroutineQueue.removeFirst();
  11:src/Scheduler.cpp **** }
  12:src/Scheduler.cpp **** 
  13:src/Scheduler.cpp **** void Scheduler::put(CCB *ccb)
  14:src/Scheduler.cpp **** {
  15:src/Scheduler.cpp ****     readyCoroutineQueue.addLast(ccb);
  16:src/Scheduler.cpp **** }...
  11              		.loc 1 16 1
  12              		.cfi_startproc
  13              	.LVL0:
  14 0000 130101FF 		addi	sp,sp,-16
  15              		.cfi_def_cfa_offset 16
  16 0004 23348100 		sd	s0,8(sp)
  17              		.cfi_offset 8, -8
  18 0008 13040101 		addi	s0,sp,16
  19              		.cfi_def_cfa 8, 0
  20              		.loc 1 16 1 is_stmt 0
  21 000c 93071000 		li	a5,1
  22 0010 6308F500 		beq	a0,a5,.L4
  23              	.L1:
  24 0014 03348100 		ld	s0,8(sp)
  25              		.cfi_remember_state
  26              		.cfi_restore 8
  27              		.cfi_def_cfa 2, 16
  28 0018 13010101 		addi	sp,sp,16
  29              		.cfi_def_cfa_offset 0
  30 001c 67800000 		jr	ra
  31              	.L4:
  32              		.cfi_restore_state
  33              		.loc 1 16 1 discriminator 1
  34 0020 B7070100 		li	a5,65536
  35 0024 9387F7FF 		addi	a5,a5,-1
  36 0028 E396F5FE 		bne	a1,a5,.L1
  37              	.LVL1:
  38              	.LBB23:
  39              	.LBB24:
  40              	.LBB25:
  41              		.file 2 "src/../h/List.hpp"
   1:src/../h/List.hpp **** //
GAS LISTING /tmp/cczwHPDr.s 			page 2


   2:src/../h/List.hpp **** // Created by os on 6/23/22.
   3:src/../h/List.hpp **** //
   4:src/../h/List.hpp **** 
   5:src/../h/List.hpp **** #ifndef OS_PROJECT_LIST_HPP
   6:src/../h/List.hpp **** #define OS_PROJECT_LIST_HPP
   7:src/../h/List.hpp **** 
   8:src/../h/List.hpp **** #include "MemoryAllocator.hpp"
   9:src/../h/List.hpp **** 
  10:src/../h/List.hpp **** template<typename T>
  11:src/../h/List.hpp **** class List
  12:src/../h/List.hpp **** {
  13:src/../h/List.hpp **** private:
  14:src/../h/List.hpp ****     struct Elem
  15:src/../h/List.hpp ****     {
  16:src/../h/List.hpp ****         void* operator new(size_t size) {
  17:src/../h/List.hpp ****             return MemoryAllocator::allocateB(size);
  18:src/../h/List.hpp ****         }
  19:src/../h/List.hpp **** 
  20:src/../h/List.hpp ****         void operator delete(void* address) {
  21:src/../h/List.hpp ****             MemoryAllocator::free(address);
  22:src/../h/List.hpp ****         }
  23:src/../h/List.hpp **** 
  24:src/../h/List.hpp ****         T *data;
  25:src/../h/List.hpp ****         Elem *next;
  26:src/../h/List.hpp **** 
  27:src/../h/List.hpp ****         Elem(T *data, Elem *next) : data(data), next(next) {}
  28:src/../h/List.hpp ****     };
  29:src/../h/List.hpp **** 
  30:src/../h/List.hpp ****     Elem *head, *tail;
  31:src/../h/List.hpp **** 
  32:src/../h/List.hpp **** public:
  33:src/../h/List.hpp **** 
  34:src/../h/List.hpp ****     void* operator new(size_t size) {
  35:src/../h/List.hpp ****         return MemoryAllocator::allocateB(size);
  36:src/../h/List.hpp ****     }
  37:src/../h/List.hpp **** 
  38:src/../h/List.hpp ****     void operator delete(void* address) {
  39:src/../h/List.hpp ****         MemoryAllocator::free(address);
  40:src/../h/List.hpp ****     }
  41:src/../h/List.hpp **** 
  42:src/../h/List.hpp ****     List() : head(0), tail(0) {}
  42              		.loc 2 42 29
  43 002c 97070000 		lla	a5,.LANCHOR0
  43      93870700 
  44 0034 23B00700 		sd	zero,0(a5)
  45 0038 23B40700 		sd	zero,8(a5)
  46              	.LVL2:
  47              	.LBE25:
  48              	.LBE24:
  49              	.LBE23:
  50              		.loc 1 16 1
  51 003c 6FF09FFD 		j	.L1
  52              		.cfi_endproc
  53              	.LFE26:
  55              		.align	2
  56              		.globl	_ZN9Scheduler3getEv
  58              	_ZN9Scheduler3getEv:
GAS LISTING /tmp/cczwHPDr.s 			page 3


  59              	.LFB14:
   9:src/Scheduler.cpp **** {
  60              		.loc 1 9 1 is_stmt 1
  61              		.cfi_startproc
  62 0040 130101FE 		addi	sp,sp,-32
  63              		.cfi_def_cfa_offset 32
  64 0044 233C1100 		sd	ra,24(sp)
  65 0048 23388100 		sd	s0,16(sp)
  66 004c 23349100 		sd	s1,8(sp)
  67              		.cfi_offset 1, -8
  68              		.cfi_offset 8, -16
  69              		.cfi_offset 9, -24
  70 0050 13040102 		addi	s0,sp,32
  71              		.cfi_def_cfa 8, 0
  10:src/Scheduler.cpp ****     return readyCoroutineQueue.removeFirst();
  72              		.loc 1 10 5
  73              	.LVL3:
  74              	.LBB26:
  75              	.LBB27:
  43:src/../h/List.hpp **** 
  44:src/../h/List.hpp ****     List(const List<T> &) = delete;
  45:src/../h/List.hpp **** 
  46:src/../h/List.hpp ****     List<T> &operator=(const List<T> &) = delete;
  47:src/../h/List.hpp **** 
  48:src/../h/List.hpp ****     void addFirst(T *data)
  49:src/../h/List.hpp ****     {
  50:src/../h/List.hpp ****         Elem *elem = new Elem(data, head);
  51:src/../h/List.hpp ****         head = elem;
  52:src/../h/List.hpp ****         if (!tail) { tail = head; }
  53:src/../h/List.hpp ****     }
  54:src/../h/List.hpp **** 
  55:src/../h/List.hpp ****     void addLast(T *data)
  56:src/../h/List.hpp ****     {
  57:src/../h/List.hpp ****         Elem *elem = new Elem(data, 0);
  58:src/../h/List.hpp ****         if (tail)
  59:src/../h/List.hpp ****         {
  60:src/../h/List.hpp ****             tail->next = elem;
  61:src/../h/List.hpp ****             tail = elem;
  62:src/../h/List.hpp ****         } else
  63:src/../h/List.hpp ****         {
  64:src/../h/List.hpp ****             head = tail = elem;
  65:src/../h/List.hpp ****         }
  66:src/../h/List.hpp ****     }
  67:src/../h/List.hpp **** 
  68:src/../h/List.hpp ****     T *removeFirst()
  69:src/../h/List.hpp ****     {
  70:src/../h/List.hpp ****         if (!head) { return 0; }
  76              		.loc 2 70 14 is_stmt 0
  77 0054 17050000 		ld	a0,.LANCHOR0
  77      03350500 
  78              		.loc 2 70 9
  79 005c 63020504 		beqz	a0,.L8
  80              	.LVL4:
  71:src/../h/List.hpp **** 
  72:src/../h/List.hpp ****         Elem *elem = head;
  73:src/../h/List.hpp ****         head = head->next;
  81              		.loc 2 73 22
GAS LISTING /tmp/cczwHPDr.s 			page 4


  82 0060 83378500 		ld	a5,8(a0)
  83              		.loc 2 73 9
  84 0064 17070000 		sd	a5,.LANCHOR0,a4
  84      2330F700 
  74:src/../h/List.hpp ****         if (!head) { tail = 0; }
  85              		.loc 2 74 9
  86 006c 63840702 		beqz	a5,.L10
  87              	.L7:
  75:src/../h/List.hpp **** 
  76:src/../h/List.hpp ****         T *ret = elem->data;
  88              		.loc 2 76 12
  89 0070 83340500 		ld	s1,0(a0)
  90              	.LVL5:
  91              	.LBB28:
  92              	.LBB29:
  21:src/../h/List.hpp ****         }
  93              		.loc 2 21 34
  94 0074 97000000 		call	_ZN15MemoryAllocator4freeEPv@plt
  94      E7800000 
  95              	.LVL6:
  96              	.L5:
  97              	.LBE29:
  98              	.LBE28:
  99              	.LBE27:
 100              	.LBE26:
  11:src/Scheduler.cpp **** }
 101              		.loc 1 11 1
 102 007c 13850400 		mv	a0,s1
 103 0080 83308101 		ld	ra,24(sp)
 104              		.cfi_remember_state
 105              		.cfi_restore 1
 106 0084 03340101 		ld	s0,16(sp)
 107              		.cfi_restore 8
 108              		.cfi_def_cfa 2, 32
 109 0088 83348100 		ld	s1,8(sp)
 110              		.cfi_restore 9
 111 008c 13010102 		addi	sp,sp,32
 112              		.cfi_def_cfa_offset 0
 113 0090 67800000 		jr	ra
 114              	.LVL7:
 115              	.L10:
 116              		.cfi_restore_state
 117              	.LBB31:
 118              	.LBB30:
  74:src/../h/List.hpp **** 
 119              		.loc 2 74 22
 120 0094 97070000 		sd	zero,.LANCHOR0+8,a5
 120      23B00700 
 121 009c 6FF05FFD 		j	.L7
 122              	.LVL8:
 123              	.L8:
  70:src/../h/List.hpp **** 
 124              		.loc 2 70 29
 125 00a0 93040500 		mv	s1,a0
 126              	.LVL9:
 127              	.LBE30:
 128              	.LBE31:
GAS LISTING /tmp/cczwHPDr.s 			page 5


  10:src/Scheduler.cpp ****     return readyCoroutineQueue.removeFirst();
 129              		.loc 1 10 44
 130 00a4 6FF09FFD 		j	.L5
 131              		.cfi_endproc
 132              	.LFE14:
 134              		.align	2
 135              		.globl	_ZN9Scheduler3putEP3CCB
 137              	_ZN9Scheduler3putEP3CCB:
 138              	.LFB15:
  14:src/Scheduler.cpp **** {
 139              		.loc 1 14 1 is_stmt 1
 140              		.cfi_startproc
 141              	.LVL10:
 142 00a8 130101FE 		addi	sp,sp,-32
 143              		.cfi_def_cfa_offset 32
 144 00ac 233C1100 		sd	ra,24(sp)
 145 00b0 23388100 		sd	s0,16(sp)
 146 00b4 23349100 		sd	s1,8(sp)
 147              		.cfi_offset 1, -8
 148              		.cfi_offset 8, -16
 149              		.cfi_offset 9, -24
 150 00b8 13040102 		addi	s0,sp,32
 151              		.cfi_def_cfa 8, 0
 152 00bc 93040500 		mv	s1,a0
  15:src/Scheduler.cpp ****     readyCoroutineQueue.addLast(ccb);
 153              		.loc 1 15 5
 154              	.LVL11:
 155              	.LBB32:
 156              	.LBB33:
 157              	.LBB34:
 158              	.LBB35:
  17:src/../h/List.hpp ****         }
 159              		.loc 2 17 46 is_stmt 0
 160 00c0 13050001 		li	a0,16
 161              	.LVL12:
 162 00c4 97000000 		call	_ZN15MemoryAllocator9allocateBEm@plt
 162      E7800000 
 163              	.LVL13:
 164              	.LBE35:
 165              	.LBE34:
 166              	.LBB36:
 167              	.LBB37:
  27:src/../h/List.hpp ****     };
 168              		.loc 2 27 58
 169 00cc 23309500 		sd	s1,0(a0)
 170 00d0 23340500 		sd	zero,8(a0)
 171              	.LVL14:
 172              	.LBE37:
 173              	.LBE36:
  58:src/../h/List.hpp ****         {
 174              		.loc 2 58 13
 175 00d4 97070000 		ld	a5,.LANCHOR0+8
 175      83B70700 
  58:src/../h/List.hpp ****         {
 176              		.loc 2 58 9
 177 00dc 63820702 		beqz	a5,.L12
  60:src/../h/List.hpp ****             tail = elem;
GAS LISTING /tmp/cczwHPDr.s 			page 6


 178              		.loc 2 60 13
 179 00e0 23B4A700 		sd	a0,8(a5)
  61:src/../h/List.hpp ****         } else
 180              		.loc 2 61 13
 181 00e4 97070000 		sd	a0,.LANCHOR0+8,a5
 181      23B0A700 
 182              	.LVL15:
 183              	.L11:
 184              	.LBE33:
 185              	.LBE32:
 186              		.loc 1 16 1
 187 00ec 83308101 		ld	ra,24(sp)
 188              		.cfi_remember_state
 189              		.cfi_restore 1
 190 00f0 03340101 		ld	s0,16(sp)
 191              		.cfi_restore 8
 192              		.cfi_def_cfa 2, 32
 193 00f4 83348100 		ld	s1,8(sp)
 194              		.cfi_restore 9
 195              	.LVL16:
 196 00f8 13010102 		addi	sp,sp,32
 197              		.cfi_def_cfa_offset 0
 198 00fc 67800000 		jr	ra
 199              	.LVL17:
 200              	.L12:
 201              		.cfi_restore_state
 202              	.LBB39:
 203              	.LBB38:
  64:src/../h/List.hpp ****         }
 204              		.loc 2 64 13
 205 0100 97070000 		lla	a5,.LANCHOR0
 205      93870700 
 206 0108 23B4A700 		sd	a0,8(a5)
 207 010c 23B0A700 		sd	a0,0(a5)
 208              	.LVL18:
 209              	.LBE38:
 210              	.LBE39:
 211              		.loc 1 16 1
 212 0110 6FF0DFFD 		j	.L11
 213              		.cfi_endproc
 214              	.LFE15:
 216              		.align	2
 218              	_GLOBAL__sub_I__ZN9Scheduler19readyCoroutineQueueE:
 219              	.LFB27:
 220              		.loc 1 16 1 is_stmt 1
 221              		.cfi_startproc
 222 0114 130101FF 		addi	sp,sp,-16
 223              		.cfi_def_cfa_offset 16
 224 0118 23341100 		sd	ra,8(sp)
 225 011c 23308100 		sd	s0,0(sp)
 226              		.cfi_offset 1, -8
 227              		.cfi_offset 8, -16
 228 0120 13040101 		addi	s0,sp,16
 229              		.cfi_def_cfa 8, 0
 230              		.loc 1 16 1 is_stmt 0
 231 0124 B7050100 		li	a1,65536
 232 0128 9385F5FF 		addi	a1,a1,-1
GAS LISTING /tmp/cczwHPDr.s 			page 7


 233 012c 13051000 		li	a0,1
 234 0130 97000000 		call	_Z41__static_initialization_and_destruction_0ii
 234      E7800000 
 235              	.LVL19:
 236 0138 83308100 		ld	ra,8(sp)
 237              		.cfi_restore 1
 238 013c 03340100 		ld	s0,0(sp)
 239              		.cfi_restore 8
 240              		.cfi_def_cfa 2, 16
 241 0140 13010101 		addi	sp,sp,16
 242              		.cfi_def_cfa_offset 0
 243 0144 67800000 		jr	ra
 244              		.cfi_endproc
 245              	.LFE27:
 247              		.section	.init_array,"aw"
 248              		.align	3
 249 0000 00000000 		.dword	_GLOBAL__sub_I__ZN9Scheduler19readyCoroutineQueueE
 249      00000000 
 250              		.globl	_ZN9Scheduler19readyCoroutineQueueE
 251              		.bss
 252              		.align	3
 253              		.set	.LANCHOR0,. + 0
 256              	_ZN9Scheduler19readyCoroutineQueueE:
 257 0000 00000000 		.zero	16
 257      00000000 
 257      00000000 
 257      00000000 
 258              		.text
 259              	.Letext0:
 260              		.file 3 "src/../h/../lib/hw.h"
 261              		.file 4 "src/../h/MemoryAllocator.hpp"
 262              		.file 5 "src/../h/Scheduler.hpp"
GAS LISTING /tmp/cczwHPDr.s 			page 8


DEFINED SYMBOLS
                            *ABS*:0000000000000000 Scheduler.cpp
     /tmp/cczwHPDr.s:8      .text:0000000000000000 _Z41__static_initialization_and_destruction_0ii
     /tmp/cczwHPDr.s:12     .text:0000000000000000 .L0 
     /tmp/cczwHPDr.s:14     .text:0000000000000000 .L0 
     /tmp/cczwHPDr.s:15     .text:0000000000000004 .L0 
     /tmp/cczwHPDr.s:17     .text:0000000000000008 .L0 
     /tmp/cczwHPDr.s:19     .text:000000000000000c .L0 
     /tmp/cczwHPDr.s:21     .text:000000000000000c .L0 
     /tmp/cczwHPDr.s:25     .text:0000000000000018 .L0 
     /tmp/cczwHPDr.s:26     .text:0000000000000018 .L0 
     /tmp/cczwHPDr.s:27     .text:0000000000000018 .L0 
     /tmp/cczwHPDr.s:29     .text:000000000000001c .L0 
     /tmp/cczwHPDr.s:32     .text:0000000000000020 .L0 
     /tmp/cczwHPDr.s:34     .text:0000000000000020 .L0 
     /tmp/cczwHPDr.s:43     .text:000000000000002c .L0 
     /tmp/cczwHPDr.s:51     .text:000000000000003c .L0 
     /tmp/cczwHPDr.s:52     .text:0000000000000040 .L0 
     /tmp/cczwHPDr.s:58     .text:0000000000000040 _ZN9Scheduler3getEv
     /tmp/cczwHPDr.s:61     .text:0000000000000040 .L0 
     /tmp/cczwHPDr.s:62     .text:0000000000000040 .L0 
     /tmp/cczwHPDr.s:63     .text:0000000000000044 .L0 
     /tmp/cczwHPDr.s:67     .text:0000000000000050 .L0 
     /tmp/cczwHPDr.s:68     .text:0000000000000050 .L0 
     /tmp/cczwHPDr.s:69     .text:0000000000000050 .L0 
     /tmp/cczwHPDr.s:71     .text:0000000000000054 .L0 
     /tmp/cczwHPDr.s:76     .text:0000000000000054 .L0 
     /tmp/cczwHPDr.s:77     .text:0000000000000054 .L0 
     /tmp/cczwHPDr.s:79     .text:000000000000005c .L0 
     /tmp/cczwHPDr.s:82     .text:0000000000000060 .L0 
     /tmp/cczwHPDr.s:84     .text:0000000000000064 .L0 
     /tmp/cczwHPDr.s:86     .text:000000000000006c .L0 
     /tmp/cczwHPDr.s:89     .text:0000000000000070 .L0 
     /tmp/cczwHPDr.s:94     .text:0000000000000074 .L0 
     /tmp/cczwHPDr.s:102    .text:000000000000007c .L0 
     /tmp/cczwHPDr.s:104    .text:0000000000000084 .L0 
     /tmp/cczwHPDr.s:105    .text:0000000000000084 .L0 
     /tmp/cczwHPDr.s:107    .text:0000000000000088 .L0 
     /tmp/cczwHPDr.s:108    .text:0000000000000088 .L0 
     /tmp/cczwHPDr.s:110    .text:000000000000008c .L0 
     /tmp/cczwHPDr.s:112    .text:0000000000000090 .L0 
     /tmp/cczwHPDr.s:116    .text:0000000000000094 .L0 
     /tmp/cczwHPDr.s:120    .text:0000000000000094 .L0 
     /tmp/cczwHPDr.s:125    .text:00000000000000a0 .L0 
     /tmp/cczwHPDr.s:130    .text:00000000000000a4 .L0 
     /tmp/cczwHPDr.s:131    .text:00000000000000a8 .L0 
     /tmp/cczwHPDr.s:137    .text:00000000000000a8 _ZN9Scheduler3putEP3CCB
     /tmp/cczwHPDr.s:140    .text:00000000000000a8 .L0 
     /tmp/cczwHPDr.s:142    .text:00000000000000a8 .L0 
     /tmp/cczwHPDr.s:143    .text:00000000000000ac .L0 
     /tmp/cczwHPDr.s:147    .text:00000000000000b8 .L0 
     /tmp/cczwHPDr.s:148    .text:00000000000000b8 .L0 
     /tmp/cczwHPDr.s:149    .text:00000000000000b8 .L0 
     /tmp/cczwHPDr.s:151    .text:00000000000000bc .L0 
     /tmp/cczwHPDr.s:159    .text:00000000000000c0 .L0 
     /tmp/cczwHPDr.s:160    .text:00000000000000c0 .L0 
     /tmp/cczwHPDr.s:169    .text:00000000000000cc .L0 
GAS LISTING /tmp/cczwHPDr.s 			page 9


     /tmp/cczwHPDr.s:175    .text:00000000000000d4 .L0 
     /tmp/cczwHPDr.s:177    .text:00000000000000dc .L0 
     /tmp/cczwHPDr.s:179    .text:00000000000000e0 .L0 
     /tmp/cczwHPDr.s:181    .text:00000000000000e4 .L0 
     /tmp/cczwHPDr.s:187    .text:00000000000000ec .L0 
     /tmp/cczwHPDr.s:188    .text:00000000000000f0 .L0 
     /tmp/cczwHPDr.s:189    .text:00000000000000f0 .L0 
     /tmp/cczwHPDr.s:191    .text:00000000000000f4 .L0 
     /tmp/cczwHPDr.s:192    .text:00000000000000f4 .L0 
     /tmp/cczwHPDr.s:194    .text:00000000000000f8 .L0 
     /tmp/cczwHPDr.s:197    .text:00000000000000fc .L0 
     /tmp/cczwHPDr.s:201    .text:0000000000000100 .L0 
     /tmp/cczwHPDr.s:205    .text:0000000000000100 .L0 
     /tmp/cczwHPDr.s:212    .text:0000000000000110 .L0 
     /tmp/cczwHPDr.s:213    .text:0000000000000114 .L0 
     /tmp/cczwHPDr.s:218    .text:0000000000000114 _GLOBAL__sub_I__ZN9Scheduler19readyCoroutineQueueE
     /tmp/cczwHPDr.s:221    .text:0000000000000114 .L0 
     /tmp/cczwHPDr.s:222    .text:0000000000000114 .L0 
     /tmp/cczwHPDr.s:223    .text:0000000000000118 .L0 
     /tmp/cczwHPDr.s:226    .text:0000000000000120 .L0 
     /tmp/cczwHPDr.s:227    .text:0000000000000120 .L0 
     /tmp/cczwHPDr.s:229    .text:0000000000000124 .L0 
     /tmp/cczwHPDr.s:231    .text:0000000000000124 .L0 
     /tmp/cczwHPDr.s:237    .text:000000000000013c .L0 
     /tmp/cczwHPDr.s:239    .text:0000000000000140 .L0 
     /tmp/cczwHPDr.s:240    .text:0000000000000140 .L0 
     /tmp/cczwHPDr.s:242    .text:0000000000000144 .L0 
     /tmp/cczwHPDr.s:244    .text:0000000000000148 .L0 
     /tmp/cczwHPDr.s:256    .bss:0000000000000000 _ZN9Scheduler19readyCoroutineQueueE
     /tmp/cczwHPDr.s:253    .bss:0000000000000000 .LANCHOR0
     /tmp/cczwHPDr.s:263    .text:0000000000000148 .L0 
     /tmp/cczwHPDr.s:43     .text:000000000000002c .L0 
     /tmp/cczwHPDr.s:77     .text:0000000000000054 .L0 
     /tmp/cczwHPDr.s:84     .text:0000000000000064 .L0 
     /tmp/cczwHPDr.s:120    .text:0000000000000094 .L0 
     /tmp/cczwHPDr.s:175    .text:00000000000000d4 .L0 
     /tmp/cczwHPDr.s:181    .text:00000000000000e4 .L0 
     /tmp/cczwHPDr.s:205    .text:0000000000000100 .L0 
     /tmp/cczwHPDr.s:31     .text:0000000000000020 .L4
     /tmp/cczwHPDr.s:23     .text:0000000000000014 .L1
     /tmp/cczwHPDr.s:123    .text:00000000000000a0 .L8
     /tmp/cczwHPDr.s:115    .text:0000000000000094 .L10
     /tmp/cczwHPDr.s:87     .text:0000000000000070 .L7
     /tmp/cczwHPDr.s:96     .text:000000000000007c .L5
     /tmp/cczwHPDr.s:200    .text:0000000000000100 .L12
     /tmp/cczwHPDr.s:183    .text:00000000000000ec .L11
     /tmp/cczwHPDr.s:1111   .debug_abbrev:0000000000000000 .Ldebug_abbrev0
     /tmp/cczwHPDr.s:2326   .debug_str:0000000000000442 .LASF72
     /tmp/cczwHPDr.s:2346   .debug_str:00000000000005b5 .LASF73
     /tmp/cczwHPDr.s:2210   .debug_str:0000000000000047 .LASF74
     /tmp/cczwHPDr.s:5      .text:0000000000000000 .Ltext0
     /tmp/cczwHPDr.s:259    .text:0000000000000148 .Letext0
     /tmp/cczwHPDr.s:2196   .debug_line:0000000000000000 .Ldebug_line0
     /tmp/cczwHPDr.s:2274   .debug_str:000000000000025f .LASF0
     /tmp/cczwHPDr.s:2284   .debug_str:00000000000002ab .LASF1
     /tmp/cczwHPDr.s:2260   .debug_str:0000000000000208 .LASF2
     /tmp/cczwHPDr.s:2244   .debug_str:000000000000018c .LASF4
GAS LISTING /tmp/cczwHPDr.s 			page 10


     /tmp/cczwHPDr.s:2314   .debug_str:00000000000003c9 .LASF3
     /tmp/cczwHPDr.s:2204   .debug_str:0000000000000024 .LASF5
     /tmp/cczwHPDr.s:2288   .debug_str:00000000000002ec .LASF6
     /tmp/cczwHPDr.s:2272   .debug_str:000000000000024c .LASF7
     /tmp/cczwHPDr.s:2336   .debug_str:0000000000000538 .LASF8
     /tmp/cczwHPDr.s:2236   .debug_str:000000000000015b .LASF9
     /tmp/cczwHPDr.s:2298   .debug_str:0000000000000336 .LASF10
     /tmp/cczwHPDr.s:2332   .debug_str:0000000000000524 .LASF11
     /tmp/cczwHPDr.s:2206   .debug_str:000000000000002b .LASF12
     /tmp/cczwHPDr.s:2198   .debug_str:0000000000000000 .LASF13
     /tmp/cczwHPDr.s:2212   .debug_str:0000000000000066 .LASF14
     /tmp/cczwHPDr.s:2308   .debug_str:0000000000000384 .LASF15
     /tmp/cczwHPDr.s:2216   .debug_str:0000000000000085 .LASF16
     /tmp/cczwHPDr.s:2208   .debug_str:000000000000003b .LASF36
     /tmp/cczwHPDr.s:2322   .debug_str:0000000000000421 .LASF17
     /tmp/cczwHPDr.s:2360   .debug_str:0000000000000649 .LASF18
     /tmp/cczwHPDr.s:2350   .debug_str:00000000000005d4 .LASF19
     /tmp/cczwHPDr.s:2258   .debug_str:00000000000001f8 .LASF20
     /tmp/cczwHPDr.s:2296   .debug_str:000000000000032c .LASF29
     /tmp/cczwHPDr.s:2224   .debug_str:00000000000000ca .LASF22
     /tmp/cczwHPDr.s:2292   .debug_str:000000000000031d .LASF75
     /tmp/cczwHPDr.s:2324   .debug_str:0000000000000426 .LASF76
     /tmp/cczwHPDr.s:2282   .debug_str:00000000000002a2 .LASF21
     /tmp/cczwHPDr.s:2220   .debug_str:00000000000000a5 .LASF23
     /tmp/cczwHPDr.s:2218   .debug_str:000000000000009b .LASF24
     /tmp/cczwHPDr.s:2344   .debug_str:0000000000000594 .LASF25
     /tmp/cczwHPDr.s:2228   .debug_str:0000000000000116 .LASF26
     /tmp/cczwHPDr.s:2306   .debug_str:0000000000000367 .LASF27
     /tmp/cczwHPDr.s:2202   .debug_str:000000000000001a .LASF31
     /tmp/cczwHPDr.s:2286   .debug_str:00000000000002be .LASF33
     /tmp/cczwHPDr.s:2294   .debug_str:0000000000000322 .LASF28
     /tmp/cczwHPDr.s:2340   .debug_str:0000000000000563 .LASF30
     /tmp/cczwHPDr.s:2348   .debug_str:00000000000005c7 .LASF38
     /tmp/cczwHPDr.s:2330   .debug_str:0000000000000512 .LASF39
     /tmp/cczwHPDr.s:2318   .debug_str:00000000000003fa .LASF32
     /tmp/cczwHPDr.s:2276   .debug_str:000000000000026c .LASF34
     /tmp/cczwHPDr.s:2240   .debug_str:0000000000000173 .LASF77
     /tmp/cczwHPDr.s:2280   .debug_str:000000000000028a .LASF78
     /tmp/cczwHPDr.s:2200   .debug_str:0000000000000010 .LASF35
     /tmp/cczwHPDr.s:2334   .debug_str:0000000000000533 .LASF37
     /tmp/cczwHPDr.s:2300   .debug_str:0000000000000345 .LASF40
     /tmp/cczwHPDr.s:2232   .debug_str:000000000000012e .LASF41
     /tmp/cczwHPDr.s:2304   .debug_str:0000000000000362 .LASF42
     /tmp/cczwHPDr.s:2316   .debug_str:00000000000003db .LASF43
     /tmp/cczwHPDr.s:2222   .debug_str:00000000000000c5 .LASF44
     /tmp/cczwHPDr.s:2264   .debug_str:000000000000021e .LASF45
     /tmp/cczwHPDr.s:2230   .debug_str:000000000000011b .LASF46
     /tmp/cczwHPDr.s:2234   .debug_str:0000000000000147 .LASF47
     /tmp/cczwHPDr.s:2242   .debug_str:0000000000000187 .LASF48
     /tmp/cczwHPDr.s:2356   .debug_str:0000000000000612 .LASF49
     /tmp/cczwHPDr.s:2270   .debug_str:0000000000000235 .LASF55
     /tmp/cczwHPDr.s:2266   .debug_str:0000000000000223 .LASF79
     /tmp/cczwHPDr.s:2320   .debug_str:000000000000040a .LASF80
     /tmp/cczwHPDr.s:2256   .debug_str:00000000000001ef .LASF50
     /tmp/cczwHPDr.s:2342   .debug_str:0000000000000577 .LASF51
     /tmp/cczwHPDr.s:2262   .debug_str:0000000000000216 .LASF52
     /tmp/cczwHPDr.s:2252   .debug_str:00000000000001c4 .LASF53
GAS LISTING /tmp/cczwHPDr.s 			page 11


     /tmp/cczwHPDr.s:2328   .debug_str:0000000000000506 .LASF54
     /tmp/cczwHPDr.s:2290   .debug_str:00000000000002ff .LASF56
     /tmp/cczwHPDr.s:2238   .debug_str:0000000000000169 .LASF57
     /tmp/cczwHPDr.s:2338   .debug_str:0000000000000548 .LASF58
     /tmp/cczwHPDr.s:2278   .debug_str:000000000000027f .LASF59
     /tmp/cczwHPDr.s:2250   .debug_str:00000000000001a7 .LASF60
     /tmp/cczwHPDr.s:2248   .debug_str:000000000000019e .LASF61
     /tmp/cczwHPDr.s:2352   .debug_str:00000000000005d9 .LASF62
     /tmp/cczwHPDr.s:2358   .debug_str:0000000000000625 .LASF81
     /tmp/cczwHPDr.s:2226   .debug_str:00000000000000e3 .LASF63
     /tmp/cczwHPDr.s:219    .text:0000000000000114 .LFB27
     /tmp/cczwHPDr.s:245    .text:0000000000000148 .LFE27
     /tmp/cczwHPDr.s:235    .text:0000000000000138 .LVL19
     /tmp/cczwHPDr.s:2312   .debug_str:000000000000039f .LASF64
     /tmp/cczwHPDr.s:9      .text:0000000000000000 .LFB26
     /tmp/cczwHPDr.s:53     .text:0000000000000040 .LFE26
     /tmp/cczwHPDr.s:2254   .debug_str:00000000000001e0 .LASF65
     /tmp/cczwHPDr.s:2246   .debug_str:0000000000000193 .LASF66
     /tmp/cczwHPDr.s:38     .text:000000000000002c .LBB23
     /tmp/cczwHPDr.s:49     .text:000000000000003c .LBE23
     /tmp/cczwHPDr.s:2038   .debug_loc:0000000000000000 .LLST0
     /tmp/cczwHPDr.s:2302   .debug_str:000000000000035d .LASF68
     /tmp/cczwHPDr.s:2354   .debug_str:00000000000005f3 .LASF70
     /tmp/cczwHPDr.s:2268   .debug_str:000000000000022d .LASF67
     /tmp/cczwHPDr.s:2310   .debug_str:000000000000039a .LASF69
     /tmp/cczwHPDr.s:2214   .debug_str:0000000000000072 .LASF71
     /tmp/cczwHPDr.s:138    .text:00000000000000a8 .LFB15
     /tmp/cczwHPDr.s:214    .text:0000000000000114 .LFE15
     /tmp/cczwHPDr.s:2047   .debug_loc:000000000000002c .LLST5
     /tmp/cczwHPDr.s:155    .text:00000000000000c0 .LBB32
     /tmp/cczwHPDr.s:2182   .debug_ranges:0000000000000000 .Ldebug_ranges0
     /tmp/cczwHPDr.s:2069   .debug_loc:000000000000008b .LLST6
     /tmp/cczwHPDr.s:2084   .debug_loc:00000000000000d4 .LLST7
     /tmp/cczwHPDr.s:157    .text:00000000000000c0 .LBB34
     /tmp/cczwHPDr.s:165    .text:00000000000000cc .LBE34
     /tmp/cczwHPDr.s:2099   .debug_loc:000000000000011c .LLST8
     /tmp/cczwHPDr.s:163    .text:00000000000000cc .LVL13
     /tmp/cczwHPDr.s:166    .text:00000000000000cc .LBB36
     /tmp/cczwHPDr.s:173    .text:00000000000000d4 .LBE36
     /tmp/cczwHPDr.s:2107   .debug_loc:0000000000000140 .LLST9
     /tmp/cczwHPDr.s:2115   .debug_loc:0000000000000164 .LLST10
     /tmp/cczwHPDr.s:2122   .debug_loc:0000000000000187 .LLST11
     /tmp/cczwHPDr.s:59     .text:0000000000000040 .LFB14
     /tmp/cczwHPDr.s:132    .text:00000000000000a8 .LFE14
     /tmp/cczwHPDr.s:74     .text:0000000000000054 .LBB26
     /tmp/cczwHPDr.s:2129   .debug_loc:00000000000001aa .LLST1
     /tmp/cczwHPDr.s:2144   .debug_loc:00000000000001f2 .LLST2
     /tmp/cczwHPDr.s:2155   .debug_loc:0000000000000228 .LLST3
     /tmp/cczwHPDr.s:91     .text:0000000000000074 .LBB28
     /tmp/cczwHPDr.s:98     .text:000000000000007c .LBE28
     /tmp/cczwHPDr.s:2162   .debug_loc:000000000000024b .LLST4
     /tmp/cczwHPDr.s:95     .text:000000000000007c .LVL6
     /tmp/cczwHPDr.s:37     .text:000000000000002c .LVL1
     /tmp/cczwHPDr.s:46     .text:000000000000003c .LVL2
     /tmp/cczwHPDr.s:141    .text:00000000000000a8 .LVL10
     /tmp/cczwHPDr.s:161    .text:00000000000000c4 .LVL12
     /tmp/cczwHPDr.s:195    .text:00000000000000f8 .LVL16
GAS LISTING /tmp/cczwHPDr.s 			page 12


     /tmp/cczwHPDr.s:199    .text:0000000000000100 .LVL17
     /tmp/cczwHPDr.s:154    .text:00000000000000c0 .LVL11
     /tmp/cczwHPDr.s:182    .text:00000000000000ec .LVL15
     /tmp/cczwHPDr.s:208    .text:0000000000000110 .LVL18
     /tmp/cczwHPDr.s:171    .text:00000000000000d4 .LVL14
     /tmp/cczwHPDr.s:73     .text:0000000000000054 .LVL3
     /tmp/cczwHPDr.s:114    .text:0000000000000094 .LVL7
     /tmp/cczwHPDr.s:126    .text:00000000000000a4 .LVL9
     /tmp/cczwHPDr.s:80     .text:0000000000000060 .LVL4
     /tmp/cczwHPDr.s:122    .text:00000000000000a0 .LVL8
     /tmp/cczwHPDr.s:90     .text:0000000000000074 .LVL5
     /tmp/cczwHPDr.s:264    .debug_info:0000000000000000 .Ldebug_info0
     /tmp/cczwHPDr.s:100    .text:000000000000007c .LBE26
     /tmp/cczwHPDr.s:117    .text:0000000000000094 .LBB31
     /tmp/cczwHPDr.s:128    .text:00000000000000a4 .LBE31
     /tmp/cczwHPDr.s:185    .text:00000000000000ec .LBE32
     /tmp/cczwHPDr.s:202    .text:0000000000000100 .LBB39
     /tmp/cczwHPDr.s:210    .text:0000000000000110 .LBE39

UNDEFINED SYMBOLS
_ZN15MemoryAllocator4freeEPv
_ZN15MemoryAllocator9allocateBEm
