GAS LISTING /tmp/cckYbF63.s 			page 1


   1              		.file	"Semaphore.cpp"
   2              		.option pic
   3              		.option norelax
   4              		.text
   5              	.Ltext0:
   6              		.align	2
   7              		.globl	_ZN13Semaphore_sys3getEv
   9              	_ZN13Semaphore_sys3getEv:
  10              	.LFB54:
  11              		.file 1 "src/Semaphore.cpp"
   1:src/Semaphore.cpp **** //
   2:src/Semaphore.cpp **** // Created by os on 6/26/22.
   3:src/Semaphore.cpp **** //
   4:src/Semaphore.cpp **** #include "../h/Semaphore.hpp"
   5:src/Semaphore.cpp **** 
   6:src/Semaphore.cpp **** CCB *Semaphore_sys::get(){
  12              		.loc 1 6 26
  13              		.cfi_startproc
  14              	.LVL0:
  15 0000 130101FE 		addi	sp,sp,-32
  16              		.cfi_def_cfa_offset 32
  17 0004 233C1100 		sd	ra,24(sp)
  18 0008 23388100 		sd	s0,16(sp)
  19 000c 23349100 		sd	s1,8(sp)
  20              		.cfi_offset 1, -8
  21              		.cfi_offset 8, -16
  22              		.cfi_offset 9, -24
  23 0010 13040102 		addi	s0,sp,32
  24              		.cfi_def_cfa 8, 0
  25 0014 93070500 		mv	a5,a0
   7:src/Semaphore.cpp ****     return Semaphore_sys::blockedQueue.removeFirst();
  26              		.loc 1 7 5
  27              	.LVL1:
  28              	.LBB40:
  29              	.LBB41:
  30              		.file 2 "src/../h/List.hpp"
   1:src/../h/List.hpp **** //
   2:src/../h/List.hpp **** // Created by os on 6/23/22.
   3:src/../h/List.hpp **** //
   4:src/../h/List.hpp **** 
   5:src/../h/List.hpp **** #ifndef OS_PROJECT_LIST_HPP
   6:src/../h/List.hpp **** #define OS_PROJECT_LIST_HPP
   7:src/../h/List.hpp **** 
   8:src/../h/List.hpp **** #include "MemoryAllocator.hpp"
   9:src/../h/List.hpp **** 
  10:src/../h/List.hpp **** template<typename T>
  11:src/../h/List.hpp **** class List
  12:src/../h/List.hpp **** {
  13:src/../h/List.hpp **** private:
  14:src/../h/List.hpp ****     struct Elem
  15:src/../h/List.hpp ****     {
  16:src/../h/List.hpp ****         void* operator new(size_t size) {
  17:src/../h/List.hpp ****             return MemoryAllocator::allocateB(size);
  18:src/../h/List.hpp ****         }
  19:src/../h/List.hpp **** 
  20:src/../h/List.hpp ****         void operator delete(void* address) {
  21:src/../h/List.hpp ****             MemoryAllocator::free(address);
GAS LISTING /tmp/cckYbF63.s 			page 2


  22:src/../h/List.hpp ****         }
  23:src/../h/List.hpp **** 
  24:src/../h/List.hpp ****         T *data;
  25:src/../h/List.hpp ****         Elem *next;
  26:src/../h/List.hpp **** 
  27:src/../h/List.hpp ****         Elem(T *data, Elem *next) : data(data), next(next) {}
  28:src/../h/List.hpp ****     };
  29:src/../h/List.hpp **** 
  30:src/../h/List.hpp ****     Elem *head, *tail;
  31:src/../h/List.hpp **** 
  32:src/../h/List.hpp **** public:
  33:src/../h/List.hpp **** 
  34:src/../h/List.hpp ****     void* operator new(size_t size) {
  35:src/../h/List.hpp ****         return MemoryAllocator::allocateB(size);
  36:src/../h/List.hpp ****     }
  37:src/../h/List.hpp **** 
  38:src/../h/List.hpp ****     void operator delete(void* address) {
  39:src/../h/List.hpp ****         MemoryAllocator::free(address);
  40:src/../h/List.hpp ****     }
  41:src/../h/List.hpp **** 
  42:src/../h/List.hpp ****     List() : head(0), tail(0) {}
  43:src/../h/List.hpp **** 
  44:src/../h/List.hpp ****     List(const List<T> &) = delete;
  45:src/../h/List.hpp **** 
  46:src/../h/List.hpp ****     List<T> &operator=(const List<T> &) = delete;
  47:src/../h/List.hpp **** 
  48:src/../h/List.hpp ****     void addFirst(T *data)
  49:src/../h/List.hpp ****     {
  50:src/../h/List.hpp ****         Elem *elem = new Elem(data, head);
  51:src/../h/List.hpp ****         head = elem;
  52:src/../h/List.hpp ****         if (!tail) { tail = head; }
  53:src/../h/List.hpp ****     }
  54:src/../h/List.hpp **** 
  55:src/../h/List.hpp ****     void addLast(T *data)
  56:src/../h/List.hpp ****     {
  57:src/../h/List.hpp ****         Elem *elem = new Elem(data, 0);
  58:src/../h/List.hpp ****         if (tail)
  59:src/../h/List.hpp ****         {
  60:src/../h/List.hpp ****             tail->next = elem;
  61:src/../h/List.hpp ****             tail = elem;
  62:src/../h/List.hpp ****         } else
  63:src/../h/List.hpp ****         {
  64:src/../h/List.hpp ****             head = tail = elem;
  65:src/../h/List.hpp ****         }
  66:src/../h/List.hpp ****     }
  67:src/../h/List.hpp **** 
  68:src/../h/List.hpp ****     T *removeFirst()
  69:src/../h/List.hpp ****     {
  70:src/../h/List.hpp ****         if (!head) { return 0; }
  31              		.loc 2 70 14 is_stmt 0
  32 0018 03358500 		ld	a0,8(a0)
  33              	.LVL2:
  34              		.loc 2 70 9
  35 001c 630E0502 		beqz	a0,.L4
  36              	.LVL3:
  71:src/../h/List.hpp **** 
  72:src/../h/List.hpp ****         Elem *elem = head;
GAS LISTING /tmp/cckYbF63.s 			page 3


  73:src/../h/List.hpp ****         head = head->next;
  37              		.loc 2 73 22
  38 0020 03378500 		ld	a4,8(a0)
  39              		.loc 2 73 9
  40 0024 23B4E700 		sd	a4,8(a5)
  74:src/../h/List.hpp ****         if (!head) { tail = 0; }
  41              		.loc 2 74 9
  42 0028 63040702 		beqz	a4,.L6
  43              	.L3:
  75:src/../h/List.hpp **** 
  76:src/../h/List.hpp ****         T *ret = elem->data;
  44              		.loc 2 76 12
  45 002c 83340500 		ld	s1,0(a0)
  46              	.LVL4:
  47              	.LBB42:
  48              	.LBB43:
  21:src/../h/List.hpp ****         }
  49              		.loc 2 21 34
  50 0030 97000000 		call	_ZN15MemoryAllocator4freeEPv@plt
  50      E7800000 
  51              	.LVL5:
  52              	.L1:
  53              	.LBE43:
  54              	.LBE42:
  55              	.LBE41:
  56              	.LBE40:
   8:src/Semaphore.cpp **** }
  57              		.loc 1 8 1
  58 0038 13850400 		mv	a0,s1
  59 003c 83308101 		ld	ra,24(sp)
  60              		.cfi_remember_state
  61              		.cfi_restore 1
  62 0040 03340101 		ld	s0,16(sp)
  63              		.cfi_restore 8
  64              		.cfi_def_cfa 2, 32
  65 0044 83348100 		ld	s1,8(sp)
  66              		.cfi_restore 9
  67 0048 13010102 		addi	sp,sp,32
  68              		.cfi_def_cfa_offset 0
  69 004c 67800000 		jr	ra
  70              	.LVL6:
  71              	.L6:
  72              		.cfi_restore_state
  73              	.LBB45:
  74              	.LBB44:
  74:src/../h/List.hpp **** 
  75              		.loc 2 74 22
  76 0050 23B80700 		sd	zero,16(a5)
  77 0054 6FF09FFD 		j	.L3
  78              	.LVL7:
  79              	.L4:
  70:src/../h/List.hpp **** 
  80              		.loc 2 70 29
  81 0058 93040500 		mv	s1,a0
  82              	.LVL8:
  83              	.LBE44:
  84              	.LBE45:
GAS LISTING /tmp/cckYbF63.s 			page 4


   7:src/Semaphore.cpp **** }
  85              		.loc 1 7 52
  86 005c 6FF0DFFD 		j	.L1
  87              		.cfi_endproc
  88              	.LFE54:
  90              		.align	2
  91              		.globl	_ZN13Semaphore_sys3putEP3CCB
  93              	_ZN13Semaphore_sys3putEP3CCB:
  94              	.LFB55:
   9:src/Semaphore.cpp **** 
  10:src/Semaphore.cpp **** void Semaphore_sys::put(CCB *ccb){
  95              		.loc 1 10 34 is_stmt 1
  96              		.cfi_startproc
  97              	.LVL9:
  98 0060 130101FE 		addi	sp,sp,-32
  99              		.cfi_def_cfa_offset 32
 100 0064 233C1100 		sd	ra,24(sp)
 101 0068 23388100 		sd	s0,16(sp)
 102 006c 23349100 		sd	s1,8(sp)
 103 0070 23302101 		sd	s2,0(sp)
 104              		.cfi_offset 1, -8
 105              		.cfi_offset 8, -16
 106              		.cfi_offset 9, -24
 107              		.cfi_offset 18, -32
 108 0074 13040102 		addi	s0,sp,32
 109              		.cfi_def_cfa 8, 0
 110 0078 93040500 		mv	s1,a0
 111 007c 13890500 		mv	s2,a1
  11:src/Semaphore.cpp ****     Semaphore_sys::blockedQueue.addLast(ccb);
 112              		.loc 1 11 5
 113              	.LVL10:
 114              	.LBB46:
 115              	.LBB47:
 116              	.LBB48:
 117              	.LBB49:
  17:src/../h/List.hpp ****         }
 118              		.loc 2 17 46 is_stmt 0
 119 0080 13050001 		li	a0,16
 120              	.LVL11:
 121 0084 97000000 		call	_ZN15MemoryAllocator9allocateBEm@plt
 121      E7800000 
 122              	.LVL12:
 123              	.LBE49:
 124              	.LBE48:
 125              	.LBB50:
 126              	.LBB51:
  27:src/../h/List.hpp ****     };
 127              		.loc 2 27 58
 128 008c 23302501 		sd	s2,0(a0)
 129 0090 23340500 		sd	zero,8(a0)
 130              	.LVL13:
 131              	.LBE51:
 132              	.LBE50:
  58:src/../h/List.hpp ****         {
 133              		.loc 2 58 13
 134 0094 83B70401 		ld	a5,16(s1)
  58:src/../h/List.hpp ****         {
GAS LISTING /tmp/cckYbF63.s 			page 5


 135              		.loc 2 58 9
 136 0098 63820702 		beqz	a5,.L8
  60:src/../h/List.hpp ****             tail = elem;
 137              		.loc 2 60 13
 138 009c 23B4A700 		sd	a0,8(a5)
  61:src/../h/List.hpp ****         } else
 139              		.loc 2 61 13
 140 00a0 23B8A400 		sd	a0,16(s1)
 141              	.LVL14:
 142              	.L7:
 143              	.LBE47:
 144              	.LBE46:
  12:src/Semaphore.cpp **** }
 145              		.loc 1 12 1
 146 00a4 83308101 		ld	ra,24(sp)
 147              		.cfi_remember_state
 148              		.cfi_restore 1
 149 00a8 03340101 		ld	s0,16(sp)
 150              		.cfi_restore 8
 151              		.cfi_def_cfa 2, 32
 152 00ac 83348100 		ld	s1,8(sp)
 153              		.cfi_restore 9
 154              	.LVL15:
 155 00b0 03390100 		ld	s2,0(sp)
 156              		.cfi_restore 18
 157              	.LVL16:
 158 00b4 13010102 		addi	sp,sp,32
 159              		.cfi_def_cfa_offset 0
 160 00b8 67800000 		jr	ra
 161              	.LVL17:
 162              	.L8:
 163              		.cfi_restore_state
 164              	.LBB53:
 165              	.LBB52:
  64:src/../h/List.hpp ****         }
 166              		.loc 2 64 13
 167 00bc 23B8A400 		sd	a0,16(s1)
 168 00c0 23B4A400 		sd	a0,8(s1)
 169              	.LVL18:
 170              	.LBE52:
 171              	.LBE53:
 172              		.loc 1 12 1
 173 00c4 6FF01FFE 		j	.L7
 174              		.cfi_endproc
 175              	.LFE55:
 177              		.align	2
 178              		.globl	_ZN13Semaphore_sys5blockEv
 180              	_ZN13Semaphore_sys5blockEv:
 181              	.LFB56:
  13:src/Semaphore.cpp **** void Semaphore_sys::block() {
 182              		.loc 1 13 29 is_stmt 1
 183              		.cfi_startproc
 184              	.LVL19:
 185 00c8 130101FE 		addi	sp,sp,-32
 186              		.cfi_def_cfa_offset 32
 187 00cc 233C1100 		sd	ra,24(sp)
 188 00d0 23388100 		sd	s0,16(sp)
GAS LISTING /tmp/cckYbF63.s 			page 6


 189 00d4 23349100 		sd	s1,8(sp)
 190              		.cfi_offset 1, -8
 191              		.cfi_offset 8, -16
 192              		.cfi_offset 9, -24
 193 00d8 13040102 		addi	s0,sp,32
 194              		.cfi_def_cfa 8, 0
  14:src/Semaphore.cpp ****     put(CCB::running);
 195              		.loc 1 14 5
 196              		.loc 1 14 8 is_stmt 0
 197 00dc 97040000 		la	s1,_ZN3CCB7runningE
 197      83B40400 
 198 00e4 83B50400 		ld	a1,0(s1)
 199 00e8 97000000 		call	_ZN13Semaphore_sys3putEP3CCB
 199      E7800000 
 200              	.LVL20:
  15:src/Semaphore.cpp ****     CCB::running->setBlocked(true);
 201              		.loc 1 15 5 is_stmt 1
 202              		.loc 1 15 29 is_stmt 0
 203 00f0 83B70400 		ld	a5,0(s1)
 204              	.LVL21:
 205              	.LBB54:
 206              	.LBB55:
 207              		.file 3 "src/../h/tcb.hpp"
   1:src/../h/tcb.hpp **** //
   2:src/../h/tcb.hpp **** // Created by os on 6/24/22.
   3:src/../h/tcb.hpp **** //
   4:src/../h/tcb.hpp **** 
   5:src/../h/tcb.hpp **** #ifndef PROJECT_V33333333333_CCB_HPP
   6:src/../h/tcb.hpp **** #define PROJECT_V33333333333_CCB_HPP
   7:src/../h/tcb.hpp **** #include "../lib/hw.h"
   8:src/../h/tcb.hpp **** #include "Scheduler.hpp"
   9:src/../h/tcb.hpp **** #include "syscall_c.h"
  10:src/../h/tcb.hpp **** #include "MemoryAllocator.hpp"
  11:src/../h/tcb.hpp **** #include "Riscv.hpp"
  12:src/../h/tcb.hpp **** 
  13:src/../h/tcb.hpp **** // Coroutine Control Block
  14:src/../h/tcb.hpp **** class CCB
  15:src/../h/tcb.hpp **** {
  16:src/../h/tcb.hpp **** public:
  17:src/../h/tcb.hpp ****     ~CCB() { delete[] stack; }
  18:src/../h/tcb.hpp ****     void* operator new(size_t size) {
  19:src/../h/tcb.hpp ****         return MemoryAllocator::allocateB(size);
  20:src/../h/tcb.hpp ****     }
  21:src/../h/tcb.hpp ****     void operator delete(void* address) {
  22:src/../h/tcb.hpp ****         MemoryAllocator::free(address);
  23:src/../h/tcb.hpp ****     }
  24:src/../h/tcb.hpp **** 
  25:src/../h/tcb.hpp ****     bool isFinished() const { return finished; }
  26:src/../h/tcb.hpp ****     bool isBlocked() const { return blocked; }
  27:src/../h/tcb.hpp ****     void setFinished(bool value) { finished = value;}
  28:src/../h/tcb.hpp ****     void setBlocked(bool value) { blocked = value; }
 208              		.loc 3 28 35 is_stmt 1
 209              		.loc 3 28 43 is_stmt 0
 210 00f4 13071000 		li	a4,1
 211 00f8 A384E702 		sb	a4,41(a5)
 212              	.LVL22:
 213              	.LBE55:
GAS LISTING /tmp/cckYbF63.s 			page 7


 214              	.LBE54:
  16:src/Semaphore.cpp ****     CCB::dispatch();
 215              		.loc 1 16 5 is_stmt 1
 216              		.loc 1 16 18 is_stmt 0
 217 00fc 97000000 		call	_ZN3CCB8dispatchEv@plt
 217      E7800000 
 218              	.LVL23:
  17:src/Semaphore.cpp **** }
 219              		.loc 1 17 1
 220 0104 83308101 		ld	ra,24(sp)
 221              		.cfi_restore 1
 222 0108 03340101 		ld	s0,16(sp)
 223              		.cfi_restore 8
 224              		.cfi_def_cfa 2, 32
 225 010c 83348100 		ld	s1,8(sp)
 226              		.cfi_restore 9
 227 0110 13010102 		addi	sp,sp,32
 228              		.cfi_def_cfa_offset 0
 229 0114 67800000 		jr	ra
 230              		.cfi_endproc
 231              	.LFE56:
 233              		.align	2
 234              		.globl	_ZN13Semaphore_sys7unblockEv
 236              	_ZN13Semaphore_sys7unblockEv:
 237              	.LFB57:
  18:src/Semaphore.cpp **** 
  19:src/Semaphore.cpp **** void Semaphore_sys::unblock() {
 238              		.loc 1 19 31 is_stmt 1
 239              		.cfi_startproc
 240              	.LVL24:
 241 0118 130101FE 		addi	sp,sp,-32
 242              		.cfi_def_cfa_offset 32
 243 011c 233C1100 		sd	ra,24(sp)
 244 0120 23388100 		sd	s0,16(sp)
 245 0124 23349100 		sd	s1,8(sp)
 246              		.cfi_offset 1, -8
 247              		.cfi_offset 8, -16
 248              		.cfi_offset 9, -24
 249 0128 13040102 		addi	s0,sp,32
 250              		.cfi_def_cfa 8, 0
 251 012c 93070500 		mv	a5,a0
  20:src/Semaphore.cpp ****     CCB* thread = blockedQueue.removeFirst();
 252              		.loc 1 20 5
 253              	.LVL25:
 254              	.LBB56:
 255              	.LBB57:
  70:src/../h/List.hpp **** 
 256              		.loc 2 70 14 is_stmt 0
 257 0130 03358500 		ld	a0,8(a0)
 258              	.LVL26:
  70:src/../h/List.hpp **** 
 259              		.loc 2 70 9
 260 0134 63040504 		beqz	a0,.L16
 261              	.LVL27:
  73:src/../h/List.hpp ****         if (!head) { tail = 0; }
 262              		.loc 2 73 22
 263 0138 03378500 		ld	a4,8(a0)
GAS LISTING /tmp/cckYbF63.s 			page 8


  73:src/../h/List.hpp ****         if (!head) { tail = 0; }
 264              		.loc 2 73 9
 265 013c 23B4E700 		sd	a4,8(a5)
  74:src/../h/List.hpp **** 
 266              		.loc 2 74 9
 267 0140 630A0702 		beqz	a4,.L18
 268              	.L15:
 269              		.loc 2 76 12
 270 0144 83340500 		ld	s1,0(a0)
 271              	.LVL28:
 272              	.LBB58:
 273              	.LBB59:
  21:src/../h/List.hpp ****         }
 274              		.loc 2 21 34
 275 0148 97000000 		call	_ZN15MemoryAllocator4freeEPv@plt
 275      E7800000 
 276              	.LVL29:
 277              	.L14:
 278              	.LBE59:
 279              	.LBE58:
 280              	.LBE57:
 281              	.LBE56:
  21:src/Semaphore.cpp ****     thread->setBlocked(false);
 282              		.loc 1 21 5 is_stmt 1
 283              	.LBB61:
 284              	.LBB62:
 285              		.loc 3 28 35
 286              		.loc 3 28 43 is_stmt 0
 287 0150 A3840402 		sb	zero,41(s1)
 288              	.LVL30:
 289              	.LBE62:
 290              	.LBE61:
  22:src/Semaphore.cpp ****     Scheduler::put(thread);
 291              		.loc 1 22 5 is_stmt 1
 292              		.loc 1 22 19 is_stmt 0
 293 0154 13850400 		mv	a0,s1
 294 0158 97000000 		call	_ZN9Scheduler3putEP3CCB@plt
 294      E7800000 
 295              	.LVL31:
  23:src/Semaphore.cpp **** }
 296              		.loc 1 23 1
 297 0160 83308101 		ld	ra,24(sp)
 298              		.cfi_remember_state
 299              		.cfi_restore 1
 300 0164 03340101 		ld	s0,16(sp)
 301              		.cfi_restore 8
 302              		.cfi_def_cfa 2, 32
 303 0168 83348100 		ld	s1,8(sp)
 304              		.cfi_restore 9
 305              	.LVL32:
 306 016c 13010102 		addi	sp,sp,32
 307              		.cfi_def_cfa_offset 0
 308 0170 67800000 		jr	ra
 309              	.LVL33:
 310              	.L18:
 311              		.cfi_restore_state
 312              	.LBB63:
GAS LISTING /tmp/cckYbF63.s 			page 9


 313              	.LBB60:
  74:src/../h/List.hpp **** 
 314              		.loc 2 74 22
 315 0174 23B80700 		sd	zero,16(a5)
 316 0178 6FF0DFFC 		j	.L15
 317              	.LVL34:
 318              	.L16:
  70:src/../h/List.hpp **** 
 319              		.loc 2 70 29
 320 017c 93040500 		mv	s1,a0
 321 0180 6FF01FFD 		j	.L14
 322              	.LBE60:
 323              	.LBE63:
 324              		.cfi_endproc
 325              	.LFE57:
 327              		.align	2
 328              		.globl	_ZN13Semaphore_sys6signalEv
 330              	_ZN13Semaphore_sys6signalEv:
 331              	.LFB58:
  24:src/Semaphore.cpp **** 
  25:src/Semaphore.cpp **** void Semaphore_sys::signal() {
 332              		.loc 1 25 30 is_stmt 1
 333              		.cfi_startproc
 334              	.LVL35:
  26:src/Semaphore.cpp ****     if(++val <= 0) unblock();
 335              		.loc 1 26 5
 336              		.loc 1 26 10 is_stmt 0
 337 0184 83270500 		lw	a5,0(a0)
 338              		.loc 1 26 8
 339 0188 9B871700 		addiw	a5,a5,1
 340 018c 1B870700 		sext.w	a4,a5
 341              		.loc 1 26 14
 342 0190 2320F500 		sw	a5,0(a0)
 343              		.loc 1 26 5
 344 0194 6354E000 		blez	a4,.L25
 345 0198 67800000 		ret
 346              	.L25:
  25:src/Semaphore.cpp ****     if(++val <= 0) unblock();
 347              		.loc 1 25 30 discriminator 1
 348 019c 130101FF 		addi	sp,sp,-16
 349              		.cfi_def_cfa_offset 16
 350 01a0 23341100 		sd	ra,8(sp)
 351 01a4 23308100 		sd	s0,0(sp)
 352              		.cfi_offset 1, -8
 353              		.cfi_offset 8, -16
 354 01a8 13040101 		addi	s0,sp,16
 355              		.cfi_def_cfa 8, 0
 356              		.loc 1 26 20 is_stmt 1 discriminator 1
 357              		.loc 1 26 27 is_stmt 0 discriminator 1
 358 01ac 97000000 		call	_ZN13Semaphore_sys7unblockEv
 358      E7800000 
 359              	.LVL36:
  27:src/Semaphore.cpp **** }
 360              		.loc 1 27 1 discriminator 1
 361 01b4 83308100 		ld	ra,8(sp)
 362              		.cfi_restore 1
 363 01b8 03340100 		ld	s0,0(sp)
GAS LISTING /tmp/cckYbF63.s 			page 10


 364              		.cfi_restore 8
 365              		.cfi_def_cfa 2, 16
 366 01bc 13010101 		addi	sp,sp,16
 367              		.cfi_def_cfa_offset 0
 368 01c0 67800000 		jr	ra
 369              		.cfi_endproc
 370              	.LFE58:
 372              		.align	2
 373              		.globl	_ZN13Semaphore_sys4waitEv
 375              	_ZN13Semaphore_sys4waitEv:
 376              	.LFB59:
  28:src/Semaphore.cpp **** 
  29:src/Semaphore.cpp **** void Semaphore_sys::wait() {
 377              		.loc 1 29 28 is_stmt 1
 378              		.cfi_startproc
 379              	.LVL37:
  30:src/Semaphore.cpp ****     if(--val < 0) block();
 380              		.loc 1 30 5
 381              		.loc 1 30 10 is_stmt 0
 382 01c4 83270500 		lw	a5,0(a0)
 383              		.loc 1 30 8
 384 01c8 9B87F7FF 		addiw	a5,a5,-1
 385              		.loc 1 30 14
 386 01cc 2320F500 		sw	a5,0(a0)
 387              		.loc 1 30 5
 388 01d0 13970702 		slli	a4,a5,32
 389 01d4 63440700 		bltz	a4,.L32
 390 01d8 67800000 		ret
 391              	.L32:
  29:src/Semaphore.cpp ****     if(--val < 0) block();
 392              		.loc 1 29 28 discriminator 1
 393 01dc 130101FF 		addi	sp,sp,-16
 394              		.cfi_def_cfa_offset 16
 395 01e0 23341100 		sd	ra,8(sp)
 396 01e4 23308100 		sd	s0,0(sp)
 397              		.cfi_offset 1, -8
 398              		.cfi_offset 8, -16
 399 01e8 13040101 		addi	s0,sp,16
 400              		.cfi_def_cfa 8, 0
 401              		.loc 1 30 19 is_stmt 1 discriminator 1
 402              		.loc 1 30 24 is_stmt 0 discriminator 1
 403 01ec 97000000 		call	_ZN13Semaphore_sys5blockEv
 403      E7800000 
 404              	.LVL38:
  31:src/Semaphore.cpp **** }
 405              		.loc 1 31 1 discriminator 1
 406 01f4 83308100 		ld	ra,8(sp)
 407              		.cfi_restore 1
 408 01f8 03340100 		ld	s0,0(sp)
 409              		.cfi_restore 8
 410              		.cfi_def_cfa 2, 16
 411 01fc 13010101 		addi	sp,sp,16
 412              		.cfi_def_cfa_offset 0
 413 0200 67800000 		jr	ra
 414              		.cfi_endproc
 415              	.LFE59:
 417              		.align	2
GAS LISTING /tmp/cckYbF63.s 			page 11


 418              		.globl	_ZN13Semaphore_sys15createSemaphoreEj
 420              	_ZN13Semaphore_sys15createSemaphoreEj:
 421              	.LFB60:
  32:src/Semaphore.cpp **** 
  33:src/Semaphore.cpp **** sem_t Semaphore_sys::createSemaphore(unsigned int init) {
 422              		.loc 1 33 57 is_stmt 1
 423              		.cfi_startproc
 424              	.LVL39:
 425 0204 130101FE 		addi	sp,sp,-32
 426              		.cfi_def_cfa_offset 32
 427 0208 233C1100 		sd	ra,24(sp)
 428 020c 23388100 		sd	s0,16(sp)
 429 0210 23349100 		sd	s1,8(sp)
 430              		.cfi_offset 1, -8
 431              		.cfi_offset 8, -16
 432              		.cfi_offset 9, -24
 433 0214 13040102 		addi	s0,sp,32
 434              		.cfi_def_cfa 8, 0
 435 0218 93040500 		mv	s1,a0
  34:src/Semaphore.cpp ****     return new Semaphore_sys(init);
 436              		.loc 1 34 5
 437              	.LVL40:
 438              	.LBB64:
 439              	.LBB65:
 440              		.file 4 "src/../h/Semaphore.hpp"
   1:src/../h/Semaphore.hpp **** //
   2:src/../h/Semaphore.hpp **** // Created by os on 6/26/22.
   3:src/../h/Semaphore.hpp **** //
   4:src/../h/Semaphore.hpp **** 
   5:src/../h/Semaphore.hpp **** #ifndef SYNCH_WORKING_SEMAPHORE_HPP
   6:src/../h/Semaphore.hpp **** #define SYNCH_WORKING_SEMAPHORE_HPP
   7:src/../h/Semaphore.hpp **** #include "List.hpp"
   8:src/../h/Semaphore.hpp **** #include "tcb.hpp"
   9:src/../h/Semaphore.hpp **** class Semaphore_sys {
  10:src/../h/Semaphore.hpp **** public:
  11:src/../h/Semaphore.hpp ****     Semaphore_sys(unsigned init = 1): val(init) {}
  12:src/../h/Semaphore.hpp ****     void* operator new(size_t size) {
  13:src/../h/Semaphore.hpp ****         return MemoryAllocator::allocateB(size);
 441              		.loc 4 13 9
 442              		.loc 4 13 42 is_stmt 0
 443 021c 13058001 		li	a0,24
 444              	.LVL41:
 445 0220 97000000 		call	_ZN15MemoryAllocator9allocateBEm@plt
 445      E7800000 
 446              	.LVL42:
 447              	.LBE65:
 448              	.LBE64:
 449              	.LBB66:
 450              	.LBB67:
  11:src/../h/Semaphore.hpp ****     void* operator new(size_t size) {
 451              		.loc 4 11 47
 452 0228 23209500 		sw	s1,0(a0)
 453              	.LVL43:
 454              	.LBB68:
 455              	.LBB69:
  42:src/../h/List.hpp **** 
 456              		.loc 2 42 29
GAS LISTING /tmp/cckYbF63.s 			page 12


 457 022c 23340500 		sd	zero,8(a0)
 458 0230 23380500 		sd	zero,16(a0)
 459              	.LVL44:
 460              	.LBE69:
 461              	.LBE68:
 462              	.LBE67:
 463              	.LBE66:
  35:src/Semaphore.cpp **** }
 464              		.loc 1 35 1
 465 0234 83308101 		ld	ra,24(sp)
 466              		.cfi_restore 1
 467 0238 03340101 		ld	s0,16(sp)
 468              		.cfi_restore 8
 469              		.cfi_def_cfa 2, 32
 470 023c 83348100 		ld	s1,8(sp)
 471              		.cfi_restore 9
 472 0240 13010102 		addi	sp,sp,32
 473              		.cfi_def_cfa_offset 0
 474 0244 67800000 		jr	ra
 475              		.cfi_endproc
 476              	.LFE60:
 478              	.Letext0:
 479              		.file 5 "src/../h/../lib/hw.h"
 480              		.file 6 "src/../h/MemoryAllocator.hpp"
 481              		.file 7 "src/../h/Scheduler.hpp"
 482              		.file 8 "src/../h/syscall_c.h"
GAS LISTING /tmp/cckYbF63.s 			page 13


DEFINED SYMBOLS
                            *ABS*:0000000000000000 Semaphore.cpp
     /tmp/cckYbF63.s:9      .text:0000000000000000 _ZN13Semaphore_sys3getEv
     /tmp/cckYbF63.s:13     .text:0000000000000000 .L0 
     /tmp/cckYbF63.s:15     .text:0000000000000000 .L0 
     /tmp/cckYbF63.s:16     .text:0000000000000004 .L0 
     /tmp/cckYbF63.s:20     .text:0000000000000010 .L0 
     /tmp/cckYbF63.s:21     .text:0000000000000010 .L0 
     /tmp/cckYbF63.s:22     .text:0000000000000010 .L0 
     /tmp/cckYbF63.s:24     .text:0000000000000014 .L0 
     /tmp/cckYbF63.s:31     .text:0000000000000018 .L0 
     /tmp/cckYbF63.s:32     .text:0000000000000018 .L0 
     /tmp/cckYbF63.s:35     .text:000000000000001c .L0 
     /tmp/cckYbF63.s:38     .text:0000000000000020 .L0 
     /tmp/cckYbF63.s:40     .text:0000000000000024 .L0 
     /tmp/cckYbF63.s:42     .text:0000000000000028 .L0 
     /tmp/cckYbF63.s:45     .text:000000000000002c .L0 
     /tmp/cckYbF63.s:50     .text:0000000000000030 .L0 
     /tmp/cckYbF63.s:58     .text:0000000000000038 .L0 
     /tmp/cckYbF63.s:60     .text:0000000000000040 .L0 
     /tmp/cckYbF63.s:61     .text:0000000000000040 .L0 
     /tmp/cckYbF63.s:63     .text:0000000000000044 .L0 
     /tmp/cckYbF63.s:64     .text:0000000000000044 .L0 
     /tmp/cckYbF63.s:66     .text:0000000000000048 .L0 
     /tmp/cckYbF63.s:68     .text:000000000000004c .L0 
     /tmp/cckYbF63.s:72     .text:0000000000000050 .L0 
     /tmp/cckYbF63.s:76     .text:0000000000000050 .L0 
     /tmp/cckYbF63.s:81     .text:0000000000000058 .L0 
     /tmp/cckYbF63.s:86     .text:000000000000005c .L0 
     /tmp/cckYbF63.s:87     .text:0000000000000060 .L0 
     /tmp/cckYbF63.s:93     .text:0000000000000060 _ZN13Semaphore_sys3putEP3CCB
     /tmp/cckYbF63.s:96     .text:0000000000000060 .L0 
     /tmp/cckYbF63.s:98     .text:0000000000000060 .L0 
     /tmp/cckYbF63.s:99     .text:0000000000000064 .L0 
     /tmp/cckYbF63.s:104    .text:0000000000000074 .L0 
     /tmp/cckYbF63.s:105    .text:0000000000000074 .L0 
     /tmp/cckYbF63.s:106    .text:0000000000000074 .L0 
     /tmp/cckYbF63.s:107    .text:0000000000000074 .L0 
     /tmp/cckYbF63.s:109    .text:0000000000000078 .L0 
     /tmp/cckYbF63.s:118    .text:0000000000000080 .L0 
     /tmp/cckYbF63.s:119    .text:0000000000000080 .L0 
     /tmp/cckYbF63.s:128    .text:000000000000008c .L0 
     /tmp/cckYbF63.s:134    .text:0000000000000094 .L0 
     /tmp/cckYbF63.s:136    .text:0000000000000098 .L0 
     /tmp/cckYbF63.s:138    .text:000000000000009c .L0 
     /tmp/cckYbF63.s:140    .text:00000000000000a0 .L0 
     /tmp/cckYbF63.s:146    .text:00000000000000a4 .L0 
     /tmp/cckYbF63.s:147    .text:00000000000000a8 .L0 
     /tmp/cckYbF63.s:148    .text:00000000000000a8 .L0 
     /tmp/cckYbF63.s:150    .text:00000000000000ac .L0 
     /tmp/cckYbF63.s:151    .text:00000000000000ac .L0 
     /tmp/cckYbF63.s:153    .text:00000000000000b0 .L0 
     /tmp/cckYbF63.s:156    .text:00000000000000b4 .L0 
     /tmp/cckYbF63.s:159    .text:00000000000000b8 .L0 
     /tmp/cckYbF63.s:163    .text:00000000000000bc .L0 
     /tmp/cckYbF63.s:167    .text:00000000000000bc .L0 
     /tmp/cckYbF63.s:173    .text:00000000000000c4 .L0 
GAS LISTING /tmp/cckYbF63.s 			page 14


     /tmp/cckYbF63.s:174    .text:00000000000000c8 .L0 
     /tmp/cckYbF63.s:180    .text:00000000000000c8 _ZN13Semaphore_sys5blockEv
     /tmp/cckYbF63.s:183    .text:00000000000000c8 .L0 
     /tmp/cckYbF63.s:185    .text:00000000000000c8 .L0 
     /tmp/cckYbF63.s:186    .text:00000000000000cc .L0 
     /tmp/cckYbF63.s:190    .text:00000000000000d8 .L0 
     /tmp/cckYbF63.s:191    .text:00000000000000d8 .L0 
     /tmp/cckYbF63.s:192    .text:00000000000000d8 .L0 
     /tmp/cckYbF63.s:194    .text:00000000000000dc .L0 
     /tmp/cckYbF63.s:196    .text:00000000000000dc .L0 
     /tmp/cckYbF63.s:197    .text:00000000000000dc .L0 
     /tmp/cckYbF63.s:202    .text:00000000000000f0 .L0 
     /tmp/cckYbF63.s:203    .text:00000000000000f0 .L0 
     /tmp/cckYbF63.s:209    .text:00000000000000f4 .L0 
     /tmp/cckYbF63.s:210    .text:00000000000000f4 .L0 
     /tmp/cckYbF63.s:216    .text:00000000000000fc .L0 
     /tmp/cckYbF63.s:217    .text:00000000000000fc .L0 
     /tmp/cckYbF63.s:220    .text:0000000000000104 .L0 
     /tmp/cckYbF63.s:221    .text:0000000000000108 .L0 
     /tmp/cckYbF63.s:223    .text:000000000000010c .L0 
     /tmp/cckYbF63.s:224    .text:000000000000010c .L0 
     /tmp/cckYbF63.s:226    .text:0000000000000110 .L0 
     /tmp/cckYbF63.s:228    .text:0000000000000114 .L0 
     /tmp/cckYbF63.s:230    .text:0000000000000118 .L0 
     /tmp/cckYbF63.s:236    .text:0000000000000118 _ZN13Semaphore_sys7unblockEv
     /tmp/cckYbF63.s:239    .text:0000000000000118 .L0 
     /tmp/cckYbF63.s:241    .text:0000000000000118 .L0 
     /tmp/cckYbF63.s:242    .text:000000000000011c .L0 
     /tmp/cckYbF63.s:246    .text:0000000000000128 .L0 
     /tmp/cckYbF63.s:247    .text:0000000000000128 .L0 
     /tmp/cckYbF63.s:248    .text:0000000000000128 .L0 
     /tmp/cckYbF63.s:250    .text:000000000000012c .L0 
     /tmp/cckYbF63.s:256    .text:0000000000000130 .L0 
     /tmp/cckYbF63.s:257    .text:0000000000000130 .L0 
     /tmp/cckYbF63.s:260    .text:0000000000000134 .L0 
     /tmp/cckYbF63.s:263    .text:0000000000000138 .L0 
     /tmp/cckYbF63.s:265    .text:000000000000013c .L0 
     /tmp/cckYbF63.s:267    .text:0000000000000140 .L0 
     /tmp/cckYbF63.s:270    .text:0000000000000144 .L0 
     /tmp/cckYbF63.s:275    .text:0000000000000148 .L0 
     /tmp/cckYbF63.s:285    .text:0000000000000150 .L0 
     /tmp/cckYbF63.s:286    .text:0000000000000150 .L0 
     /tmp/cckYbF63.s:287    .text:0000000000000150 .L0 
     /tmp/cckYbF63.s:292    .text:0000000000000154 .L0 
     /tmp/cckYbF63.s:293    .text:0000000000000154 .L0 
     /tmp/cckYbF63.s:297    .text:0000000000000160 .L0 
     /tmp/cckYbF63.s:298    .text:0000000000000164 .L0 
     /tmp/cckYbF63.s:299    .text:0000000000000164 .L0 
     /tmp/cckYbF63.s:301    .text:0000000000000168 .L0 
     /tmp/cckYbF63.s:302    .text:0000000000000168 .L0 
     /tmp/cckYbF63.s:304    .text:000000000000016c .L0 
     /tmp/cckYbF63.s:307    .text:0000000000000170 .L0 
     /tmp/cckYbF63.s:311    .text:0000000000000174 .L0 
     /tmp/cckYbF63.s:315    .text:0000000000000174 .L0 
     /tmp/cckYbF63.s:320    .text:000000000000017c .L0 
     /tmp/cckYbF63.s:324    .text:0000000000000184 .L0 
     /tmp/cckYbF63.s:330    .text:0000000000000184 _ZN13Semaphore_sys6signalEv
GAS LISTING /tmp/cckYbF63.s 			page 15


     /tmp/cckYbF63.s:333    .text:0000000000000184 .L0 
     /tmp/cckYbF63.s:335    .text:0000000000000184 .L0 
     /tmp/cckYbF63.s:336    .text:0000000000000184 .L0 
     /tmp/cckYbF63.s:337    .text:0000000000000184 .L0 
     /tmp/cckYbF63.s:339    .text:0000000000000188 .L0 
     /tmp/cckYbF63.s:342    .text:0000000000000190 .L0 
     /tmp/cckYbF63.s:344    .text:0000000000000194 .L0 
     /tmp/cckYbF63.s:348    .text:000000000000019c .L0 
     /tmp/cckYbF63.s:349    .text:00000000000001a0 .L0 
     /tmp/cckYbF63.s:352    .text:00000000000001a8 .L0 
     /tmp/cckYbF63.s:353    .text:00000000000001a8 .L0 
     /tmp/cckYbF63.s:355    .text:00000000000001ac .L0 
     /tmp/cckYbF63.s:357    .text:00000000000001ac .L0 
     /tmp/cckYbF63.s:358    .text:00000000000001ac .L0 
     /tmp/cckYbF63.s:361    .text:00000000000001b4 .L0 
     /tmp/cckYbF63.s:362    .text:00000000000001b8 .L0 
     /tmp/cckYbF63.s:364    .text:00000000000001bc .L0 
     /tmp/cckYbF63.s:365    .text:00000000000001bc .L0 
     /tmp/cckYbF63.s:367    .text:00000000000001c0 .L0 
     /tmp/cckYbF63.s:369    .text:00000000000001c4 .L0 
     /tmp/cckYbF63.s:375    .text:00000000000001c4 _ZN13Semaphore_sys4waitEv
     /tmp/cckYbF63.s:378    .text:00000000000001c4 .L0 
     /tmp/cckYbF63.s:380    .text:00000000000001c4 .L0 
     /tmp/cckYbF63.s:381    .text:00000000000001c4 .L0 
     /tmp/cckYbF63.s:382    .text:00000000000001c4 .L0 
     /tmp/cckYbF63.s:384    .text:00000000000001c8 .L0 
     /tmp/cckYbF63.s:386    .text:00000000000001cc .L0 
     /tmp/cckYbF63.s:388    .text:00000000000001d0 .L0 
     /tmp/cckYbF63.s:393    .text:00000000000001dc .L0 
     /tmp/cckYbF63.s:394    .text:00000000000001e0 .L0 
     /tmp/cckYbF63.s:397    .text:00000000000001e8 .L0 
     /tmp/cckYbF63.s:398    .text:00000000000001e8 .L0 
     /tmp/cckYbF63.s:400    .text:00000000000001ec .L0 
     /tmp/cckYbF63.s:402    .text:00000000000001ec .L0 
     /tmp/cckYbF63.s:403    .text:00000000000001ec .L0 
     /tmp/cckYbF63.s:406    .text:00000000000001f4 .L0 
     /tmp/cckYbF63.s:407    .text:00000000000001f8 .L0 
     /tmp/cckYbF63.s:409    .text:00000000000001fc .L0 
     /tmp/cckYbF63.s:410    .text:00000000000001fc .L0 
     /tmp/cckYbF63.s:412    .text:0000000000000200 .L0 
     /tmp/cckYbF63.s:414    .text:0000000000000204 .L0 
     /tmp/cckYbF63.s:420    .text:0000000000000204 _ZN13Semaphore_sys15createSemaphoreEj
     /tmp/cckYbF63.s:423    .text:0000000000000204 .L0 
     /tmp/cckYbF63.s:425    .text:0000000000000204 .L0 
     /tmp/cckYbF63.s:426    .text:0000000000000208 .L0 
     /tmp/cckYbF63.s:430    .text:0000000000000214 .L0 
     /tmp/cckYbF63.s:431    .text:0000000000000214 .L0 
     /tmp/cckYbF63.s:432    .text:0000000000000214 .L0 
     /tmp/cckYbF63.s:434    .text:0000000000000218 .L0 
     /tmp/cckYbF63.s:441    .text:000000000000021c .L0 
     /tmp/cckYbF63.s:442    .text:000000000000021c .L0 
     /tmp/cckYbF63.s:443    .text:000000000000021c .L0 
     /tmp/cckYbF63.s:452    .text:0000000000000228 .L0 
     /tmp/cckYbF63.s:457    .text:000000000000022c .L0 
     /tmp/cckYbF63.s:465    .text:0000000000000234 .L0 
     /tmp/cckYbF63.s:466    .text:0000000000000238 .L0 
     /tmp/cckYbF63.s:468    .text:000000000000023c .L0 
GAS LISTING /tmp/cckYbF63.s 			page 16


     /tmp/cckYbF63.s:469    .text:000000000000023c .L0 
     /tmp/cckYbF63.s:471    .text:0000000000000240 .L0 
     /tmp/cckYbF63.s:473    .text:0000000000000244 .L0 
     /tmp/cckYbF63.s:475    .text:0000000000000248 .L0 
     /tmp/cckYbF63.s:483    .text:0000000000000248 .L0 
     /tmp/cckYbF63.s:197    .text:00000000000000dc .L0 
     /tmp/cckYbF63.s:79     .text:0000000000000058 .L4
     /tmp/cckYbF63.s:71     .text:0000000000000050 .L6
     /tmp/cckYbF63.s:43     .text:000000000000002c .L3
     /tmp/cckYbF63.s:52     .text:0000000000000038 .L1
     /tmp/cckYbF63.s:162    .text:00000000000000bc .L8
     /tmp/cckYbF63.s:142    .text:00000000000000a4 .L7
     /tmp/cckYbF63.s:318    .text:000000000000017c .L16
     /tmp/cckYbF63.s:310    .text:0000000000000174 .L18
     /tmp/cckYbF63.s:268    .text:0000000000000144 .L15
     /tmp/cckYbF63.s:277    .text:0000000000000150 .L14
     /tmp/cckYbF63.s:346    .text:000000000000019c .L25
     /tmp/cckYbF63.s:391    .text:00000000000001dc .L32
     /tmp/cckYbF63.s:2097   .debug_abbrev:0000000000000000 .Ldebug_abbrev0
     /tmp/cckYbF63.s:3916   .debug_str:0000000000000718 .LASF133
     /tmp/cckYbF63.s:3734   .debug_str:0000000000000170 .LASF134
     /tmp/cckYbF63.s:3820   .debug_str:0000000000000413 .LASF135
     /tmp/cckYbF63.s:5      .text:0000000000000000 .Ltext0
     /tmp/cckYbF63.s:478    .text:0000000000000248 .Letext0
     /tmp/cckYbF63.s:3680   .debug_line:0000000000000000 .Ldebug_line0
     /tmp/cckYbF63.s:3766   .debug_str:000000000000028b .LASF0
     /tmp/cckYbF63.s:3790   .debug_str:000000000000033d .LASF1
     /tmp/cckYbF63.s:3858   .debug_str:000000000000057a .LASF2
     /tmp/cckYbF63.s:3864   .debug_str:000000000000059d .LASF4
     /tmp/cckYbF63.s:3774   .debug_str:00000000000002be .LASF3
     /tmp/cckYbF63.s:3690   .debug_str:0000000000000040 .LASF5
     /tmp/cckYbF63.s:3840   .debug_str:00000000000004fa .LASF6
     /tmp/cckYbF63.s:3780   .debug_str:00000000000002fd .LASF7
     /tmp/cckYbF63.s:3754   .debug_str:0000000000000228 .LASF8
     /tmp/cckYbF63.s:3760   .debug_str:0000000000000271 .LASF9
     /tmp/cckYbF63.s:3716   .debug_str:00000000000000f6 .LASF10
     /tmp/cckYbF63.s:3746   .debug_str:00000000000001f7 .LASF11
     /tmp/cckYbF63.s:3724   .debug_str:000000000000012a .LASF12
     /tmp/cckYbF63.s:3714   .debug_str:00000000000000e6 .LASF13
     /tmp/cckYbF63.s:3892   .debug_str:0000000000000688 .LASF14
     /tmp/cckYbF63.s:3738   .debug_str:00000000000001a8 .LASF15
     /tmp/cckYbF63.s:3888   .debug_str:000000000000066d .LASF16
     /tmp/cckYbF63.s:3876   .debug_str:00000000000005ff .LASF44
     /tmp/cckYbF63.s:3788   .debug_str:0000000000000338 .LASF17
     /tmp/cckYbF63.s:3718   .debug_str:0000000000000105 .LASF18
     /tmp/cckYbF63.s:3696   .debug_str:0000000000000078 .LASF19
     /tmp/cckYbF63.s:3834   .debug_str:00000000000004c5 .LASF22
     /tmp/cckYbF63.s:3884   .debug_str:0000000000000650 .LASF20
     /tmp/cckYbF63.s:3872   .debug_str:00000000000005ef .LASF21
     /tmp/cckYbF63.s:3694   .debug_str:000000000000005f .LASF24
     /tmp/cckYbF63.s:3964   .debug_str:00000000000009af .LASF23
     /tmp/cckYbF63.s:3758   .debug_str:0000000000000251 .LASF25
     /tmp/cckYbF63.s:3806   .debug_str:00000000000003af .LASF26
     /tmp/cckYbF63.s:3866   .debug_str:00000000000005a4 .LASF27
     /tmp/cckYbF63.s:3922   .debug_str:000000000000080b .LASF28
     /tmp/cckYbF63.s:3776   .debug_str:00000000000002d0 .LASF29
     /tmp/cckYbF63.s:3772   .debug_str:00000000000002b4 .LASF33
GAS LISTING /tmp/cckYbF63.s 			page 17


     /tmp/cckYbF63.s:3832   .debug_str:0000000000000497 .LASF35
     /tmp/cckYbF63.s:3802   .debug_str:000000000000039f .LASF30
     /tmp/cckYbF63.s:3752   .debug_str:000000000000021e .LASF31
     /tmp/cckYbF63.s:3906   .debug_str:00000000000006cc .LASF32
     /tmp/cckYbF63.s:3962   .debug_str:00000000000009a2 .LASF37
     /tmp/cckYbF63.s:3706   .debug_str:00000000000000a8 .LASF39
     /tmp/cckYbF63.s:3684   .debug_str:0000000000000005 .LASF34
     /tmp/cckYbF63.s:3830   .debug_str:0000000000000484 .LASF36
     /tmp/cckYbF63.s:3710   .debug_str:00000000000000c8 .LASF38
     /tmp/cckYbF63.s:3698   .debug_str:000000000000007d .LASF40
     /tmp/cckYbF63.s:3886   .debug_str:000000000000065a .LASF41
     /tmp/cckYbF63.s:3902   .debug_str:00000000000006ae .LASF42
     /tmp/cckYbF63.s:3956   .debug_str:000000000000096e .LASF136
     /tmp/cckYbF63.s:3920   .debug_str:00000000000007f3 .LASF137
     /tmp/cckYbF63.s:3908   .debug_str:00000000000006e0 .LASF43
     /tmp/cckYbF63.s:3932   .debug_str:000000000000086b .LASF45
     /tmp/cckYbF63.s:3692   .debug_str:0000000000000047 .LASF46
     /tmp/cckYbF63.s:3756   .debug_str:0000000000000238 .LASF47
     /tmp/cckYbF63.s:3784   .debug_str:000000000000032b .LASF48
     /tmp/cckYbF63.s:3954   .debug_str:000000000000094f .LASF49
     /tmp/cckYbF63.s:3890   .debug_str:0000000000000683 .LASF50
     /tmp/cckYbF63.s:3816   .debug_str:00000000000003fb .LASF51
     /tmp/cckYbF63.s:3792   .debug_str:0000000000000350 .LASF52
     /tmp/cckYbF63.s:3958   .debug_str:0000000000000982 .LASF53
     /tmp/cckYbF63.s:3812   .debug_str:00000000000003ea .LASF54
     /tmp/cckYbF63.s:3750   .debug_str:000000000000020b .LASF55
     /tmp/cckYbF63.s:3942   .debug_str:00000000000008cc .LASF61
     /tmp/cckYbF63.s:3860   .debug_str:0000000000000588 .LASF138
     /tmp/cckYbF63.s:3848   .debug_str:000000000000053e .LASF139
     /tmp/cckYbF63.s:3854   .debug_str:0000000000000561 .LASF56
     /tmp/cckYbF63.s:3868   .debug_str:00000000000005c5 .LASF57
     /tmp/cckYbF63.s:3798   .debug_str:0000000000000380 .LASF58
     /tmp/cckYbF63.s:3826   .debug_str:0000000000000453 .LASF59
     /tmp/cckYbF63.s:3836   .debug_str:00000000000004d5 .LASF60
     /tmp/cckYbF63.s:3938   .debug_str:00000000000008a4 .LASF62
     /tmp/cckYbF63.s:3966   .debug_str:00000000000009b8 .LASF63
     /tmp/cckYbF63.s:3924   .debug_str:0000000000000810 .LASF64
     /tmp/cckYbF63.s:3874   .debug_str:00000000000005f4 .LASF65
     /tmp/cckYbF63.s:3948   .debug_str:0000000000000900 .LASF66
     /tmp/cckYbF63.s:3844   .debug_str:000000000000052a .LASF67
     /tmp/cckYbF63.s:3808   .debug_str:00000000000003b9 .LASF68
     /tmp/cckYbF63.s:3722   .debug_str:0000000000000122 .LASF69
     /tmp/cckYbF63.s:3894   .debug_str:0000000000000694 .LASF70
     /tmp/cckYbF63.s:3960   .debug_str:0000000000000996 .LASF71
     /tmp/cckYbF63.s:3744   .debug_str:00000000000001eb .LASF72
     /tmp/cckYbF63.s:3870   .debug_str:00000000000005e2 .LASF73
     /tmp/cckYbF63.s:3904   .debug_str:00000000000006c1 .LASF74
     /tmp/cckYbF63.s:3918   .debug_str:00000000000007dc .LASF75
     /tmp/cckYbF63.s:3940   .debug_str:00000000000008c2 .LASF76
     /tmp/cckYbF63.s:3828   .debug_str:000000000000046f .LASF77
     /tmp/cckYbF63.s:3704   .debug_str:000000000000009c .LASF78
     /tmp/cckYbF63.s:3796   .debug_str:0000000000000369 .LASF79
     /tmp/cckYbF63.s:3804   .debug_str:00000000000003a4 .LASF80
     /tmp/cckYbF63.s:3930   .debug_str:0000000000000855 .LASF81
     /tmp/cckYbF63.s:3846   .debug_str:0000000000000533 .LASF82
     /tmp/cckYbF63.s:3910   .debug_str:00000000000006ea .LASF83
     /tmp/cckYbF63.s:3814   .debug_str:00000000000003ef .LASF84
GAS LISTING /tmp/cckYbF63.s 			page 18


     /tmp/cckYbF63.s:3800   .debug_str:0000000000000388 .LASF85
     /tmp/cckYbF63.s:3912   .debug_str:0000000000000700 .LASF86
     /tmp/cckYbF63.s:3688   .debug_str:000000000000001d .LASF87
     /tmp/cckYbF63.s:3850   .debug_str:0000000000000555 .LASF140
     /tmp/cckYbF63.s:3794   .debug_str:0000000000000363 .LASF88
     /tmp/cckYbF63.s:3778   .debug_str:00000000000002ed .LASF90
     /tmp/cckYbF63.s:3730   .debug_str:0000000000000162 .LASF89
     /tmp/cckYbF63.s:3952   .debug_str:000000000000093c .LASF91
     /tmp/cckYbF63.s:3708   .debug_str:00000000000000ba .LASF92
     /tmp/cckYbF63.s:3740   .debug_str:00000000000001be .LASF93
     /tmp/cckYbF63.s:3914   .debug_str:0000000000000710 .LASF141
     /tmp/cckYbF63.s:3742   .debug_str:00000000000001d7 .LASF116
     /tmp/cckYbF63.s:3682   .debug_str:0000000000000000 .LASF94
     /tmp/cckYbF63.s:3880   .debug_str:0000000000000622 .LASF95
     /tmp/cckYbF63.s:3898   .debug_str:00000000000006a0 .LASF96
     /tmp/cckYbF63.s:3786   .debug_str:0000000000000330 .LASF97
     /tmp/cckYbF63.s:3900   .debug_str:00000000000006a5 .LASF98
     /tmp/cckYbF63.s:3824   .debug_str:000000000000044b .LASF99
     /tmp/cckYbF63.s:3702   .debug_str:0000000000000094 .LASF100
     /tmp/cckYbF63.s:3728   .debug_str:0000000000000154 .LASF101
     /tmp/cckYbF63.s:3882   .debug_str:0000000000000628 .LASF102
     /tmp/cckYbF63.s:3862   .debug_str:0000000000000592 .LASF142
     /tmp/cckYbF63.s:3946   .debug_str:00000000000008fa .LASF103
     /tmp/cckYbF63.s:3712   .debug_str:00000000000000d8 .LASF104
     /tmp/cckYbF63.s:3768   .debug_str:0000000000000298 .LASF105
     /tmp/cckYbF63.s:3944   .debug_str:00000000000008e3 .LASF106
     /tmp/cckYbF63.s:3936   .debug_str:000000000000088c .LASF107
     /tmp/cckYbF63.s:3810   .debug_str:00000000000003d3 .LASF108
     /tmp/cckYbF63.s:3720   .debug_str:000000000000010a .LASF109
     /tmp/cckYbF63.s:3732   .debug_str:000000000000016b .LASF110
     /tmp/cckYbF63.s:3726   .debug_str:000000000000013a .LASF111
     /tmp/cckYbF63.s:3896   .debug_str:0000000000000699 .LASF112
     /tmp/cckYbF63.s:3934   .debug_str:0000000000000870 .LASF113
     /tmp/cckYbF63.s:3762   .debug_str:000000000000027f .LASF114
     /tmp/cckYbF63.s:3968   .debug_str:00000000000009c2 .LASF115
     /tmp/cckYbF63.s:3838   .debug_str:00000000000004e1 .LASF143
     /tmp/cckYbF63.s:3926   .debug_str:000000000000082b .LASF117
     /tmp/cckYbF63.s:3856   .debug_str:000000000000056a .LASF118
     /tmp/cckYbF63.s:3736   .debug_str:0000000000000182 .LASF119
     /tmp/cckYbF63.s:3764   .debug_str:0000000000000285 .LASF120
     /tmp/cckYbF63.s:3782   .debug_str:0000000000000310 .LASF121
     /tmp/cckYbF63.s:3686   .debug_str:0000000000000015 .LASF122
     /tmp/cckYbF63.s:3842   .debug_str:000000000000050d .LASF123
     /tmp/cckYbF63.s:3928   .debug_str:0000000000000848 .LASF124
     /tmp/cckYbF63.s:3748   .debug_str:0000000000000206 .LASF126
     /tmp/cckYbF63.s:3950   .debug_str:000000000000091d .LASF128
     /tmp/cckYbF63.s:3822   .debug_str:0000000000000443 .LASF125
     /tmp/cckYbF63.s:3770   .debug_str:00000000000002af .LASF127
     /tmp/cckYbF63.s:3818   .debug_str:0000000000000400 .LASF129
     /tmp/cckYbF63.s:421    .text:0000000000000204 .LFB60
     /tmp/cckYbF63.s:476    .text:0000000000000248 .LFE60
     /tmp/cckYbF63.s:3700   .debug_str:000000000000008f .LASF131
     /tmp/cckYbF63.s:3259   .debug_loc:0000000000000000 .LLST26
     /tmp/cckYbF63.s:438    .text:000000000000021c .LBB64
     /tmp/cckYbF63.s:448    .text:0000000000000228 .LBE64
     /tmp/cckYbF63.s:3273   .debug_loc:0000000000000039 .LLST27
     /tmp/cckYbF63.s:446    .text:0000000000000228 .LVL42
GAS LISTING /tmp/cckYbF63.s 			page 19


     /tmp/cckYbF63.s:449    .text:0000000000000228 .LBB66
     /tmp/cckYbF63.s:463    .text:0000000000000234 .LBE66
     /tmp/cckYbF63.s:3281   .debug_loc:000000000000005d .LLST28
     /tmp/cckYbF63.s:3288   .debug_loc:0000000000000080 .LLST29
     /tmp/cckYbF63.s:454    .text:000000000000022c .LBB68
     /tmp/cckYbF63.s:461    .text:0000000000000234 .LBE68
     /tmp/cckYbF63.s:3295   .debug_loc:00000000000000a3 .LLST30
     /tmp/cckYbF63.s:376    .text:00000000000001c4 .LFB59
     /tmp/cckYbF63.s:415    .text:0000000000000204 .LFE59
     /tmp/cckYbF63.s:3304   .debug_loc:00000000000000c8 .LLST25
     /tmp/cckYbF63.s:404    .text:00000000000001f4 .LVL38
     /tmp/cckYbF63.s:331    .text:0000000000000184 .LFB58
     /tmp/cckYbF63.s:370    .text:00000000000001c4 .LFE58
     /tmp/cckYbF63.s:3318   .debug_loc:0000000000000101 .LLST24
     /tmp/cckYbF63.s:359    .text:00000000000001b4 .LVL36
     /tmp/cckYbF63.s:237    .text:0000000000000118 .LFB57
     /tmp/cckYbF63.s:325    .text:0000000000000184 .LFE57
     /tmp/cckYbF63.s:3332   .debug_loc:000000000000013a .LLST16
     /tmp/cckYbF63.s:3852   .debug_str:000000000000055a .LASF130
     /tmp/cckYbF63.s:3354   .debug_loc:0000000000000199 .LLST17
     /tmp/cckYbF63.s:254    .text:0000000000000130 .LBB56
     /tmp/cckYbF63.s:3660   .debug_ranges:0000000000000000 .Ldebug_ranges0
     /tmp/cckYbF63.s:3361   .debug_loc:00000000000001bc .LLST18
     /tmp/cckYbF63.s:3391   .debug_loc:0000000000000223 .LLST19
     /tmp/cckYbF63.s:3402   .debug_loc:0000000000000259 .LLST20
     /tmp/cckYbF63.s:272    .text:0000000000000148 .LBB58
     /tmp/cckYbF63.s:279    .text:0000000000000150 .LBE58
     /tmp/cckYbF63.s:3409   .debug_loc:000000000000027c .LLST21
     /tmp/cckYbF63.s:276    .text:0000000000000150 .LVL29
     /tmp/cckYbF63.s:283    .text:0000000000000150 .LBB61
     /tmp/cckYbF63.s:290    .text:0000000000000154 .LBE61
     /tmp/cckYbF63.s:3416   .debug_loc:000000000000029f .LLST22
     /tmp/cckYbF63.s:3424   .debug_loc:00000000000002c3 .LLST23
     /tmp/cckYbF63.s:295    .text:0000000000000160 .LVL31
     /tmp/cckYbF63.s:181    .text:00000000000000c8 .LFB56
     /tmp/cckYbF63.s:231    .text:0000000000000118 .LFE56
     /tmp/cckYbF63.s:3431   .debug_loc:00000000000002e6 .LLST13
     /tmp/cckYbF63.s:205    .text:00000000000000f4 .LBB54
     /tmp/cckYbF63.s:214    .text:00000000000000fc .LBE54
     /tmp/cckYbF63.s:3445   .debug_loc:000000000000031f .LLST14
     /tmp/cckYbF63.s:3453   .debug_loc:0000000000000343 .LLST15
     /tmp/cckYbF63.s:200    .text:00000000000000f0 .LVL20
     /tmp/cckYbF63.s:218    .text:0000000000000104 .LVL23
     /tmp/cckYbF63.s:94     .text:0000000000000060 .LFB55
     /tmp/cckYbF63.s:175    .text:00000000000000c8 .LFE55
     /tmp/cckYbF63.s:3460   .debug_loc:0000000000000366 .LLST5
     /tmp/cckYbF63.s:3482   .debug_loc:00000000000003c5 .LLST6
     /tmp/cckYbF63.s:114    .text:0000000000000080 .LBB46
     /tmp/cckYbF63.s:3504   .debug_loc:0000000000000424 .LLST7
     /tmp/cckYbF63.s:3519   .debug_loc:000000000000046d .LLST8
     /tmp/cckYbF63.s:116    .text:0000000000000080 .LBB48
     /tmp/cckYbF63.s:124    .text:000000000000008c .LBE48
     /tmp/cckYbF63.s:3540   .debug_loc:00000000000004bc .LLST9
     /tmp/cckYbF63.s:122    .text:000000000000008c .LVL12
     /tmp/cckYbF63.s:125    .text:000000000000008c .LBB50
     /tmp/cckYbF63.s:132    .text:0000000000000094 .LBE50
     /tmp/cckYbF63.s:3548   .debug_loc:00000000000004e0 .LLST10
GAS LISTING /tmp/cckYbF63.s 			page 20


     /tmp/cckYbF63.s:3556   .debug_loc:0000000000000504 .LLST11
     /tmp/cckYbF63.s:3563   .debug_loc:0000000000000527 .LLST12
     /tmp/cckYbF63.s:10     .text:0000000000000000 .LFB54
     /tmp/cckYbF63.s:88     .text:0000000000000060 .LFE54
     /tmp/cckYbF63.s:3570   .debug_loc:000000000000054a .LLST0
     /tmp/cckYbF63.s:28     .text:0000000000000018 .LBB40
     /tmp/cckYbF63.s:3592   .debug_loc:00000000000005a9 .LLST1
     /tmp/cckYbF63.s:3622   .debug_loc:0000000000000610 .LLST2
     /tmp/cckYbF63.s:3633   .debug_loc:0000000000000646 .LLST3
     /tmp/cckYbF63.s:47     .text:0000000000000030 .LBB42
     /tmp/cckYbF63.s:54     .text:0000000000000038 .LBE42
     /tmp/cckYbF63.s:3640   .debug_loc:0000000000000669 .LLST4
     /tmp/cckYbF63.s:51     .text:0000000000000038 .LVL5
     /tmp/cckYbF63.s:3878   .debug_str:000000000000060b .LASF132
     /tmp/cckYbF63.s:424    .text:0000000000000204 .LVL39
     /tmp/cckYbF63.s:444    .text:0000000000000220 .LVL41
     /tmp/cckYbF63.s:437    .text:000000000000021c .LVL40
     /tmp/cckYbF63.s:459    .text:0000000000000234 .LVL44
     /tmp/cckYbF63.s:453    .text:000000000000022c .LVL43
     /tmp/cckYbF63.s:379    .text:00000000000001c4 .LVL37
     /tmp/cckYbF63.s:334    .text:0000000000000184 .LVL35
     /tmp/cckYbF63.s:240    .text:0000000000000118 .LVL24
     /tmp/cckYbF63.s:258    .text:0000000000000134 .LVL26
     /tmp/cckYbF63.s:309    .text:0000000000000174 .LVL33
     /tmp/cckYbF63.s:305    .text:000000000000016c .LVL32
     /tmp/cckYbF63.s:253    .text:0000000000000130 .LVL25
     /tmp/cckYbF63.s:261    .text:0000000000000138 .LVL27
     /tmp/cckYbF63.s:317    .text:000000000000017c .LVL34
     /tmp/cckYbF63.s:271    .text:0000000000000148 .LVL28
     /tmp/cckYbF63.s:288    .text:0000000000000154 .LVL30
     /tmp/cckYbF63.s:184    .text:00000000000000c8 .LVL19
     /tmp/cckYbF63.s:204    .text:00000000000000f4 .LVL21
     /tmp/cckYbF63.s:212    .text:00000000000000fc .LVL22
     /tmp/cckYbF63.s:97     .text:0000000000000060 .LVL9
     /tmp/cckYbF63.s:120    .text:0000000000000084 .LVL11
     /tmp/cckYbF63.s:154    .text:00000000000000b0 .LVL15
     /tmp/cckYbF63.s:161    .text:00000000000000bc .LVL17
     /tmp/cckYbF63.s:157    .text:00000000000000b4 .LVL16
     /tmp/cckYbF63.s:113    .text:0000000000000080 .LVL10
     /tmp/cckYbF63.s:141    .text:00000000000000a4 .LVL14
     /tmp/cckYbF63.s:169    .text:00000000000000c4 .LVL18
     /tmp/cckYbF63.s:130    .text:0000000000000094 .LVL13
     /tmp/cckYbF63.s:14     .text:0000000000000000 .LVL0
     /tmp/cckYbF63.s:33     .text:000000000000001c .LVL2
     /tmp/cckYbF63.s:70     .text:0000000000000050 .LVL6
     /tmp/cckYbF63.s:27     .text:0000000000000018 .LVL1
     /tmp/cckYbF63.s:82     .text:000000000000005c .LVL8
     /tmp/cckYbF63.s:36     .text:0000000000000020 .LVL3
     /tmp/cckYbF63.s:78     .text:0000000000000058 .LVL7
     /tmp/cckYbF63.s:46     .text:0000000000000030 .LVL4
     /tmp/cckYbF63.s:484    .debug_info:0000000000000000 .Ldebug_info0
     /tmp/cckYbF63.s:56     .text:0000000000000038 .LBE40
     /tmp/cckYbF63.s:73     .text:0000000000000050 .LBB45
     /tmp/cckYbF63.s:84     .text:000000000000005c .LBE45
     /tmp/cckYbF63.s:144    .text:00000000000000a4 .LBE46
     /tmp/cckYbF63.s:164    .text:00000000000000bc .LBB53
     /tmp/cckYbF63.s:171    .text:00000000000000c4 .LBE53
GAS LISTING /tmp/cckYbF63.s 			page 21


     /tmp/cckYbF63.s:281    .text:0000000000000150 .LBE56
     /tmp/cckYbF63.s:312    .text:0000000000000174 .LBB63
     /tmp/cckYbF63.s:323    .text:0000000000000184 .LBE63

UNDEFINED SYMBOLS
_ZN15MemoryAllocator4freeEPv
_ZN15MemoryAllocator9allocateBEm
_ZN3CCB7runningE
_ZN3CCB8dispatchEv
_ZN9Scheduler3putEP3CCB
