GAS LISTING /tmp/ccVF8Imi.s 			page 1


   1              		.file	"syscall_cpp.cpp"
   2              		.option pic
   3              		.option norelax
   4              		.text
   5              	.Ltext0:
   6              		.section	.text._ZN6Thread3runEv,"axG",@progbits,_ZN6Thread3runEv,comdat
   7              		.align	2
   8              		.weak	_ZN6Thread3runEv
  10              	_ZN6Thread3runEv:
  11              	.LFB0:
  12              		.file 1 "src/../h/syscall_cpp.hpp"
   1:src/../h/syscall_cpp.hpp **** //
   2:src/../h/syscall_cpp.hpp **** // Created by os on 6/22/22.
   3:src/../h/syscall_cpp.hpp **** //
   4:src/../h/syscall_cpp.hpp **** 
   5:src/../h/syscall_cpp.hpp **** #ifndef OS_PROJECT_SYSCALL_CPP_HPP
   6:src/../h/syscall_cpp.hpp **** #define OS_PROJECT_SYSCALL_CPP_HPP
   7:src/../h/syscall_cpp.hpp **** #include "../lib/hw.h"
   8:src/../h/syscall_cpp.hpp **** #include "syscall_c.h"
   9:src/../h/syscall_cpp.hpp **** 
  10:src/../h/syscall_cpp.hpp **** void* operator new(size_t);
  11:src/../h/syscall_cpp.hpp **** void* operator new[](size_t);
  12:src/../h/syscall_cpp.hpp **** void operator delete(void*);
  13:src/../h/syscall_cpp.hpp **** void operator delete[](void*);
  14:src/../h/syscall_cpp.hpp **** 
  15:src/../h/syscall_cpp.hpp **** 
  16:src/../h/syscall_cpp.hpp **** class Thread{
  17:src/../h/syscall_cpp.hpp **** public:
  18:src/../h/syscall_cpp.hpp ****     Thread(void (*body)(void*), void* arg);
  19:src/../h/syscall_cpp.hpp ****     virtual ~Thread();
  20:src/../h/syscall_cpp.hpp ****     int start();
  21:src/../h/syscall_cpp.hpp ****     static void dispatch();
  22:src/../h/syscall_cpp.hpp ****     static int sleep(time_t time);
  23:src/../h/syscall_cpp.hpp ****     static void wrapper(void* args);
  24:src/../h/syscall_cpp.hpp **** private:
  25:src/../h/syscall_cpp.hpp ****     thread_t myHandle;
  26:src/../h/syscall_cpp.hpp **** protected:
  27:src/../h/syscall_cpp.hpp ****     Thread();
  28:src/../h/syscall_cpp.hpp ****     virtual void run() {}
  13              		.loc 1 28 18
  14              		.cfi_startproc
  15              	.LVL0:
  16 0000 130101FF 		addi	sp,sp,-16
  17              		.cfi_def_cfa_offset 16
  18 0004 23348100 		sd	s0,8(sp)
  19              		.cfi_offset 8, -8
  20 0008 13040101 		addi	s0,sp,16
  21              		.cfi_def_cfa 8, 0
  22              		.loc 1 28 25 is_stmt 0
  23 000c 03348100 		ld	s0,8(sp)
  24              		.cfi_restore 8
  25              		.cfi_def_cfa 2, 16
  26 0010 13010101 		addi	sp,sp,16
  27              		.cfi_def_cfa_offset 0
  28 0014 67800000 		jr	ra
  29              		.cfi_endproc
  30              	.LFE0:
GAS LISTING /tmp/ccVF8Imi.s 			page 2


  32              		.text
  33              		.align	2
  34              		.globl	_ZN6Thread7wrapperEPv
  36              	_ZN6Thread7wrapperEPv:
  37              	.LFB62:
  38              		.file 2 "src/syscall_cpp.cpp"
   1:src/syscall_cpp.cpp **** //
   2:src/syscall_cpp.cpp **** // Created by os on 6/22/22.
   3:src/syscall_cpp.cpp **** //
   4:src/syscall_cpp.cpp **** #include "../h/syscall_cpp.hpp"
   5:src/syscall_cpp.cpp **** #include "../h/Scheduler.hpp"
   6:src/syscall_cpp.cpp **** #include "../h/tcb.hpp"
   7:src/syscall_cpp.cpp **** 
   8:src/syscall_cpp.cpp **** void* operator new(size_t size) {
   9:src/syscall_cpp.cpp ****     return mem_alloc(size);
  10:src/syscall_cpp.cpp **** }
  11:src/syscall_cpp.cpp **** void* operator new[](size_t size) {
  12:src/syscall_cpp.cpp ****     return mem_alloc(size);
  13:src/syscall_cpp.cpp **** }
  14:src/syscall_cpp.cpp **** void operator delete(void* address) {
  15:src/syscall_cpp.cpp ****     mem_free(address);
  16:src/syscall_cpp.cpp **** }
  17:src/syscall_cpp.cpp **** void operator delete[](void* address) {
  18:src/syscall_cpp.cpp ****     mem_free(address);
  19:src/syscall_cpp.cpp **** }
  20:src/syscall_cpp.cpp **** 
  21:src/syscall_cpp.cpp **** // Threads
  22:src/syscall_cpp.cpp **** 
  23:src/syscall_cpp.cpp **** Thread::Thread(void (*body)(void *), void *args) {
  24:src/syscall_cpp.cpp ****     thread_create_NOT_STARTED(&myHandle, body, args);
  25:src/syscall_cpp.cpp **** }
  26:src/syscall_cpp.cpp **** Thread::Thread() {
  27:src/syscall_cpp.cpp ****     thread_create_NOT_STARTED(&myHandle, wrapper, this);
  28:src/syscall_cpp.cpp **** }
  29:src/syscall_cpp.cpp **** Thread::~Thread() {
  30:src/syscall_cpp.cpp ****     thread_exit();
  31:src/syscall_cpp.cpp **** }
  32:src/syscall_cpp.cpp **** void Thread::dispatch() { thread_dispatch(); }
  33:src/syscall_cpp.cpp **** 
  34:src/syscall_cpp.cpp **** void Thread::wrapper(void *args) { ((Thread*) args)->run(); }
  39              		.loc 2 34 34 is_stmt 1
  40              		.cfi_startproc
  41              	.LVL1:
  42 0000 130101FF 		addi	sp,sp,-16
  43              		.cfi_def_cfa_offset 16
  44 0004 23341100 		sd	ra,8(sp)
  45 0008 23308100 		sd	s0,0(sp)
  46              		.cfi_offset 1, -8
  47              		.cfi_offset 8, -16
  48 000c 13040101 		addi	s0,sp,16
  49              		.cfi_def_cfa 8, 0
  50              		.loc 2 34 36
  51              		.loc 2 34 58 is_stmt 0
  52 0010 83370500 		ld	a5,0(a0)
  53 0014 83B70701 		ld	a5,16(a5)
  54              		.loc 2 34 57
  55 0018 E7800700 		jalr	a5
GAS LISTING /tmp/ccVF8Imi.s 			page 3


  56              	.LVL2:
  57              		.loc 2 34 61
  58 001c 83308100 		ld	ra,8(sp)
  59              		.cfi_restore 1
  60 0020 03340100 		ld	s0,0(sp)
  61              		.cfi_restore 8
  62              		.cfi_def_cfa 2, 16
  63 0024 13010101 		addi	sp,sp,16
  64              		.cfi_def_cfa_offset 0
  65 0028 67800000 		jr	ra
  66              		.cfi_endproc
  67              	.LFE62:
  69              		.align	2
  70              		.globl	_ZN6ThreadD2Ev
  72              	_ZN6ThreadD2Ev:
  73              	.LFB58:
  29:src/syscall_cpp.cpp ****     thread_exit();
  74              		.loc 2 29 1 is_stmt 1
  75              		.cfi_startproc
  76              		.cfi_personality 0x9b,DW.ref.__gxx_personality_v0
  77              		.cfi_lsda 0x1b,.LLSDA58
  78              	.LVL3:
  79 002c 130101FF 		addi	sp,sp,-16
  80              		.cfi_def_cfa_offset 16
  81 0030 23341100 		sd	ra,8(sp)
  82 0034 23308100 		sd	s0,0(sp)
  83              		.cfi_offset 1, -8
  84              		.cfi_offset 8, -16
  85 0038 13040101 		addi	s0,sp,16
  86              		.cfi_def_cfa 8, 0
  87              	.LBB4:
  29:src/syscall_cpp.cpp ****     thread_exit();
  88              		.loc 2 29 17 is_stmt 0
  89 003c 97070000 		lla	a5,_ZTV6Thread+16
  89      93870700 
  90 0044 2330F500 		sd	a5,0(a0)
  30:src/syscall_cpp.cpp **** }
  91              		.loc 2 30 5 is_stmt 1
  30:src/syscall_cpp.cpp **** }
  92              		.loc 2 30 16 is_stmt 0
  93 0048 97000000 		call	_Z11thread_exitv@plt
  93      E7800000 
  94              	.LVL4:
  95              	.LBE4:
  31:src/syscall_cpp.cpp **** void Thread::dispatch() { thread_dispatch(); }
  96              		.loc 2 31 1
  97 0050 83308100 		ld	ra,8(sp)
  98              		.cfi_restore 1
  99 0054 03340100 		ld	s0,0(sp)
 100              		.cfi_restore 8
 101              		.cfi_def_cfa 2, 16
 102 0058 13010101 		addi	sp,sp,16
 103              		.cfi_def_cfa_offset 0
 104 005c 67800000 		jr	ra
 105              		.cfi_endproc
 106              	.LFE58:
 107              		.globl	__gxx_personality_v0
GAS LISTING /tmp/ccVF8Imi.s 			page 4


 108              		.section	.gcc_except_table,"a",@progbits
 109              	.LLSDA58:
 110 0000 FF       		.byte	0xff
 111 0001 FF       		.byte	0xff
 112 0002 03       		.byte	0x3
 113 0003 00       		.byte	0
 114              		.text
 116              		.globl	_ZN6ThreadD1Ev
 117              		.set	_ZN6ThreadD1Ev,_ZN6ThreadD2Ev
 118              		.align	2
 119              		.globl	_ZN9SemaphoreD2Ev
 121              	_ZN9SemaphoreD2Ev:
 122              	.LFB67:
  35:src/syscall_cpp.cpp **** 
  36:src/syscall_cpp.cpp **** int Thread::start() {
  37:src/syscall_cpp.cpp ****     Scheduler::put(myHandle);
  38:src/syscall_cpp.cpp ****     myHandle->setStarted(true);
  39:src/syscall_cpp.cpp ****     return 1;
  40:src/syscall_cpp.cpp **** }
  41:src/syscall_cpp.cpp **** 
  42:src/syscall_cpp.cpp **** 
  43:src/syscall_cpp.cpp **** // Semaphores
  44:src/syscall_cpp.cpp **** 
  45:src/syscall_cpp.cpp **** int Semaphore::signal() {
  46:src/syscall_cpp.cpp ****    return sem_signal(myHandle);
  47:src/syscall_cpp.cpp **** }
  48:src/syscall_cpp.cpp **** int Semaphore::wait() {
  49:src/syscall_cpp.cpp ****     return sem_wait(myHandle);
  50:src/syscall_cpp.cpp **** }
  51:src/syscall_cpp.cpp **** Semaphore::~Semaphore() {
 123              		.loc 2 51 1 is_stmt 1
 124              		.cfi_startproc
 125              		.cfi_personality 0x9b,DW.ref.__gxx_personality_v0
 126              		.cfi_lsda 0x1b,.LLSDA67
 127              	.LVL5:
 128 0060 130101FF 		addi	sp,sp,-16
 129              		.cfi_def_cfa_offset 16
 130 0064 23341100 		sd	ra,8(sp)
 131 0068 23308100 		sd	s0,0(sp)
 132              		.cfi_offset 1, -8
 133              		.cfi_offset 8, -16
 134 006c 13040101 		addi	s0,sp,16
 135              		.cfi_def_cfa 8, 0
 136              	.LBB5:
 137              		.loc 2 51 23 is_stmt 0
 138 0070 97070000 		lla	a5,_ZTV9Semaphore+16
 138      93870700 
 139 0078 2330F500 		sd	a5,0(a0)
  52:src/syscall_cpp.cpp ****     sem_close(myHandle);
 140              		.loc 2 52 5 is_stmt 1
 141              		.loc 2 52 14 is_stmt 0
 142 007c 03358500 		ld	a0,8(a0)
 143              	.LVL6:
 144 0080 97000000 		call	_Z9sem_closeP13Semaphore_sys@plt
 144      E7800000 
 145              	.LVL7:
 146              	.LBE5:
GAS LISTING /tmp/ccVF8Imi.s 			page 5


  53:src/syscall_cpp.cpp **** }
 147              		.loc 2 53 1
 148 0088 83308100 		ld	ra,8(sp)
 149              		.cfi_restore 1
 150 008c 03340100 		ld	s0,0(sp)
 151              		.cfi_restore 8
 152              		.cfi_def_cfa 2, 16
 153 0090 13010101 		addi	sp,sp,16
 154              		.cfi_def_cfa_offset 0
 155 0094 67800000 		jr	ra
 156              		.cfi_endproc
 157              	.LFE67:
 158              		.section	.gcc_except_table
 159              	.LLSDA67:
 160 0004 FF       		.byte	0xff
 161 0005 FF       		.byte	0xff
 162 0006 03       		.byte	0x3
 163 0007 00       		.byte	0
 164              		.text
 166              		.globl	_ZN9SemaphoreD1Ev
 167              		.set	_ZN9SemaphoreD1Ev,_ZN9SemaphoreD2Ev
 168              		.align	2
 169              		.globl	_Znwm
 171              	_Znwm:
 172              	.LFB47:
   8:src/syscall_cpp.cpp ****     return mem_alloc(size);
 173              		.loc 2 8 33 is_stmt 1
 174              		.cfi_startproc
 175              	.LVL8:
 176 0098 130101FF 		addi	sp,sp,-16
 177              		.cfi_def_cfa_offset 16
 178 009c 23341100 		sd	ra,8(sp)
 179 00a0 23308100 		sd	s0,0(sp)
 180              		.cfi_offset 1, -8
 181              		.cfi_offset 8, -16
 182 00a4 13040101 		addi	s0,sp,16
 183              		.cfi_def_cfa 8, 0
   9:src/syscall_cpp.cpp **** }
 184              		.loc 2 9 5
   9:src/syscall_cpp.cpp **** }
 185              		.loc 2 9 21 is_stmt 0
 186 00a8 97000000 		call	_Z9mem_allocm@plt
 186      E7800000 
 187              	.LVL9:
  10:src/syscall_cpp.cpp **** void* operator new[](size_t size) {
 188              		.loc 2 10 1
 189 00b0 83308100 		ld	ra,8(sp)
 190              		.cfi_restore 1
 191 00b4 03340100 		ld	s0,0(sp)
 192              		.cfi_restore 8
 193              		.cfi_def_cfa 2, 16
 194 00b8 13010101 		addi	sp,sp,16
 195              		.cfi_def_cfa_offset 0
 196 00bc 67800000 		jr	ra
 197              		.cfi_endproc
 198              	.LFE47:
 200              		.align	2
GAS LISTING /tmp/ccVF8Imi.s 			page 6


 201              		.globl	_Znam
 203              	_Znam:
 204              	.LFB48:
  11:src/syscall_cpp.cpp ****     return mem_alloc(size);
 205              		.loc 2 11 35 is_stmt 1
 206              		.cfi_startproc
 207              	.LVL10:
 208 00c0 130101FF 		addi	sp,sp,-16
 209              		.cfi_def_cfa_offset 16
 210 00c4 23341100 		sd	ra,8(sp)
 211 00c8 23308100 		sd	s0,0(sp)
 212              		.cfi_offset 1, -8
 213              		.cfi_offset 8, -16
 214 00cc 13040101 		addi	s0,sp,16
 215              		.cfi_def_cfa 8, 0
  12:src/syscall_cpp.cpp **** }
 216              		.loc 2 12 5
  12:src/syscall_cpp.cpp **** }
 217              		.loc 2 12 21 is_stmt 0
 218 00d0 97000000 		call	_Z9mem_allocm@plt
 218      E7800000 
 219              	.LVL11:
  13:src/syscall_cpp.cpp **** void operator delete(void* address) {
 220              		.loc 2 13 1
 221 00d8 83308100 		ld	ra,8(sp)
 222              		.cfi_restore 1
 223 00dc 03340100 		ld	s0,0(sp)
 224              		.cfi_restore 8
 225              		.cfi_def_cfa 2, 16
 226 00e0 13010101 		addi	sp,sp,16
 227              		.cfi_def_cfa_offset 0
 228 00e4 67800000 		jr	ra
 229              		.cfi_endproc
 230              	.LFE48:
 232              		.align	2
 233              		.globl	_ZdlPv
 235              	_ZdlPv:
 236              	.LFB49:
  14:src/syscall_cpp.cpp ****     mem_free(address);
 237              		.loc 2 14 37 is_stmt 1
 238              		.cfi_startproc
 239              	.LVL12:
 240 00e8 130101FF 		addi	sp,sp,-16
 241              		.cfi_def_cfa_offset 16
 242 00ec 23341100 		sd	ra,8(sp)
 243 00f0 23308100 		sd	s0,0(sp)
 244              		.cfi_offset 1, -8
 245              		.cfi_offset 8, -16
 246 00f4 13040101 		addi	s0,sp,16
 247              		.cfi_def_cfa 8, 0
  15:src/syscall_cpp.cpp **** }
 248              		.loc 2 15 5
  15:src/syscall_cpp.cpp **** }
 249              		.loc 2 15 13 is_stmt 0
 250 00f8 97000000 		call	_Z8mem_freePv@plt
 250      E7800000 
 251              	.LVL13:
GAS LISTING /tmp/ccVF8Imi.s 			page 7


  16:src/syscall_cpp.cpp **** void operator delete[](void* address) {
 252              		.loc 2 16 1
 253 0100 83308100 		ld	ra,8(sp)
 254              		.cfi_restore 1
 255 0104 03340100 		ld	s0,0(sp)
 256              		.cfi_restore 8
 257              		.cfi_def_cfa 2, 16
 258 0108 13010101 		addi	sp,sp,16
 259              		.cfi_def_cfa_offset 0
 260 010c 67800000 		jr	ra
 261              		.cfi_endproc
 262              	.LFE49:
 264              		.align	2
 265              		.globl	_ZN6ThreadD0Ev
 267              	_ZN6ThreadD0Ev:
 268              	.LFB60:
  29:src/syscall_cpp.cpp ****     thread_exit();
 269              		.loc 2 29 1 is_stmt 1
 270              		.cfi_startproc
 271              	.LVL14:
 272 0110 130101FE 		addi	sp,sp,-32
 273              		.cfi_def_cfa_offset 32
 274 0114 233C1100 		sd	ra,24(sp)
 275 0118 23388100 		sd	s0,16(sp)
 276 011c 23349100 		sd	s1,8(sp)
 277              		.cfi_offset 1, -8
 278              		.cfi_offset 8, -16
 279              		.cfi_offset 9, -24
 280 0120 13040102 		addi	s0,sp,32
 281              		.cfi_def_cfa 8, 0
 282 0124 93040500 		mv	s1,a0
  31:src/syscall_cpp.cpp **** void Thread::dispatch() { thread_dispatch(); }
 283              		.loc 2 31 1 is_stmt 0
 284 0128 97000000 		call	_ZN6ThreadD1Ev
 284      E7800000 
 285              	.LVL15:
 286 0130 13850400 		mv	a0,s1
 287 0134 97000000 		call	_ZdlPv
 287      E7800000 
 288              	.LVL16:
 289 013c 83308101 		ld	ra,24(sp)
 290              		.cfi_restore 1
 291 0140 03340101 		ld	s0,16(sp)
 292              		.cfi_restore 8
 293              		.cfi_def_cfa 2, 32
 294 0144 83348100 		ld	s1,8(sp)
 295              		.cfi_restore 9
 296              	.LVL17:
 297 0148 13010102 		addi	sp,sp,32
 298              		.cfi_def_cfa_offset 0
 299 014c 67800000 		jr	ra
 300              		.cfi_endproc
 301              	.LFE60:
 303              		.align	2
 304              		.globl	_ZN9SemaphoreD0Ev
 306              	_ZN9SemaphoreD0Ev:
 307              	.LFB69:
GAS LISTING /tmp/ccVF8Imi.s 			page 8


  51:src/syscall_cpp.cpp ****     sem_close(myHandle);
 308              		.loc 2 51 1 is_stmt 1
 309              		.cfi_startproc
 310              	.LVL18:
 311 0150 130101FE 		addi	sp,sp,-32
 312              		.cfi_def_cfa_offset 32
 313 0154 233C1100 		sd	ra,24(sp)
 314 0158 23388100 		sd	s0,16(sp)
 315 015c 23349100 		sd	s1,8(sp)
 316              		.cfi_offset 1, -8
 317              		.cfi_offset 8, -16
 318              		.cfi_offset 9, -24
 319 0160 13040102 		addi	s0,sp,32
 320              		.cfi_def_cfa 8, 0
 321 0164 93040500 		mv	s1,a0
 322              		.loc 2 53 1 is_stmt 0
 323 0168 97000000 		call	_ZN9SemaphoreD1Ev
 323      E7800000 
 324              	.LVL19:
 325 0170 13850400 		mv	a0,s1
 326 0174 97000000 		call	_ZdlPv
 326      E7800000 
 327              	.LVL20:
 328 017c 83308101 		ld	ra,24(sp)
 329              		.cfi_restore 1
 330 0180 03340101 		ld	s0,16(sp)
 331              		.cfi_restore 8
 332              		.cfi_def_cfa 2, 32
 333 0184 83348100 		ld	s1,8(sp)
 334              		.cfi_restore 9
 335              	.LVL21:
 336 0188 13010102 		addi	sp,sp,32
 337              		.cfi_def_cfa_offset 0
 338 018c 67800000 		jr	ra
 339              		.cfi_endproc
 340              	.LFE69:
 342              		.align	2
 343              		.globl	_ZdaPv
 345              	_ZdaPv:
 346              	.LFB50:
  17:src/syscall_cpp.cpp ****     mem_free(address);
 347              		.loc 2 17 39 is_stmt 1
 348              		.cfi_startproc
 349              	.LVL22:
 350 0190 130101FF 		addi	sp,sp,-16
 351              		.cfi_def_cfa_offset 16
 352 0194 23341100 		sd	ra,8(sp)
 353 0198 23308100 		sd	s0,0(sp)
 354              		.cfi_offset 1, -8
 355              		.cfi_offset 8, -16
 356 019c 13040101 		addi	s0,sp,16
 357              		.cfi_def_cfa 8, 0
  18:src/syscall_cpp.cpp **** }
 358              		.loc 2 18 5
  18:src/syscall_cpp.cpp **** }
 359              		.loc 2 18 13 is_stmt 0
 360 01a0 97000000 		call	_Z8mem_freePv@plt
GAS LISTING /tmp/ccVF8Imi.s 			page 9


 360      E7800000 
 361              	.LVL23:
  19:src/syscall_cpp.cpp **** 
 362              		.loc 2 19 1
 363 01a8 83308100 		ld	ra,8(sp)
 364              		.cfi_restore 1
 365 01ac 03340100 		ld	s0,0(sp)
 366              		.cfi_restore 8
 367              		.cfi_def_cfa 2, 16
 368 01b0 13010101 		addi	sp,sp,16
 369              		.cfi_def_cfa_offset 0
 370 01b4 67800000 		jr	ra
 371              		.cfi_endproc
 372              	.LFE50:
 374              		.align	2
 375              		.globl	_ZN6ThreadC2EPFvPvES0_
 377              	_ZN6ThreadC2EPFvPvES0_:
 378              	.LFB52:
  23:src/syscall_cpp.cpp ****     thread_create_NOT_STARTED(&myHandle, body, args);
 379              		.loc 2 23 1 is_stmt 1
 380              		.cfi_startproc
 381              	.LVL24:
 382 01b8 130101FF 		addi	sp,sp,-16
 383              		.cfi_def_cfa_offset 16
 384 01bc 23341100 		sd	ra,8(sp)
 385 01c0 23308100 		sd	s0,0(sp)
 386              		.cfi_offset 1, -8
 387              		.cfi_offset 8, -16
 388 01c4 13040101 		addi	s0,sp,16
 389              		.cfi_def_cfa 8, 0
 390              	.LBB6:
  23:src/syscall_cpp.cpp ****     thread_create_NOT_STARTED(&myHandle, body, args);
 391              		.loc 2 23 48 is_stmt 0
 392 01c8 97070000 		lla	a5,_ZTV6Thread+16
 392      93870700 
 393 01d0 2330F500 		sd	a5,0(a0)
  24:src/syscall_cpp.cpp **** }
 394              		.loc 2 24 5 is_stmt 1
  24:src/syscall_cpp.cpp **** }
 395              		.loc 2 24 30 is_stmt 0
 396 01d4 13058500 		addi	a0,a0,8
 397              	.LVL25:
 398 01d8 97000000 		call	_Z25thread_create_NOT_STARTEDPP3CCBPFvPvES2_@plt
 398      E7800000 
 399              	.LVL26:
 400              	.LBE6:
  25:src/syscall_cpp.cpp **** Thread::Thread() {
 401              		.loc 2 25 1
 402 01e0 83308100 		ld	ra,8(sp)
 403              		.cfi_restore 1
 404 01e4 03340100 		ld	s0,0(sp)
 405              		.cfi_restore 8
 406              		.cfi_def_cfa 2, 16
 407 01e8 13010101 		addi	sp,sp,16
 408              		.cfi_def_cfa_offset 0
 409 01ec 67800000 		jr	ra
 410              		.cfi_endproc
GAS LISTING /tmp/ccVF8Imi.s 			page 10


 411              	.LFE52:
 413              		.globl	_ZN6ThreadC1EPFvPvES0_
 414              		.set	_ZN6ThreadC1EPFvPvES0_,_ZN6ThreadC2EPFvPvES0_
 415              		.align	2
 416              		.globl	_ZN6ThreadC2Ev
 418              	_ZN6ThreadC2Ev:
 419              	.LFB55:
  26:src/syscall_cpp.cpp ****     thread_create_NOT_STARTED(&myHandle, wrapper, this);
 420              		.loc 2 26 1 is_stmt 1
 421              		.cfi_startproc
 422              	.LVL27:
 423 01f0 130101FF 		addi	sp,sp,-16
 424              		.cfi_def_cfa_offset 16
 425 01f4 23341100 		sd	ra,8(sp)
 426 01f8 23308100 		sd	s0,0(sp)
 427              		.cfi_offset 1, -8
 428              		.cfi_offset 8, -16
 429 01fc 13040101 		addi	s0,sp,16
 430              		.cfi_def_cfa 8, 0
 431              	.LBB7:
  26:src/syscall_cpp.cpp ****     thread_create_NOT_STARTED(&myHandle, wrapper, this);
 432              		.loc 2 26 16 is_stmt 0
 433 0200 97070000 		lla	a5,_ZTV6Thread+16
 433      93870700 
 434 0208 2330F500 		sd	a5,0(a0)
  27:src/syscall_cpp.cpp **** }
 435              		.loc 2 27 5 is_stmt 1
  27:src/syscall_cpp.cpp **** }
 436              		.loc 2 27 30 is_stmt 0
 437 020c 13060500 		mv	a2,a0
 438 0210 97050000 		lla	a1,_ZN6Thread7wrapperEPv
 438      93850500 
 439 0218 13058500 		addi	a0,a0,8
 440              	.LVL28:
 441 021c 97000000 		call	_Z25thread_create_NOT_STARTEDPP3CCBPFvPvES2_@plt
 441      E7800000 
 442              	.LVL29:
 443              	.LBE7:
  28:src/syscall_cpp.cpp **** Thread::~Thread() {
 444              		.loc 2 28 1
 445 0224 83308100 		ld	ra,8(sp)
 446              		.cfi_restore 1
 447 0228 03340100 		ld	s0,0(sp)
 448              		.cfi_restore 8
 449              		.cfi_def_cfa 2, 16
 450 022c 13010101 		addi	sp,sp,16
 451              		.cfi_def_cfa_offset 0
 452 0230 67800000 		jr	ra
 453              		.cfi_endproc
 454              	.LFE55:
 456              		.globl	_ZN6ThreadC1Ev
 457              		.set	_ZN6ThreadC1Ev,_ZN6ThreadC2Ev
 458              		.align	2
 459              		.globl	_ZN6Thread8dispatchEv
 461              	_ZN6Thread8dispatchEv:
 462              	.LFB61:
  32:src/syscall_cpp.cpp **** 
GAS LISTING /tmp/ccVF8Imi.s 			page 11


 463              		.loc 2 32 25 is_stmt 1
 464              		.cfi_startproc
 465 0234 130101FF 		addi	sp,sp,-16
 466              		.cfi_def_cfa_offset 16
 467 0238 23341100 		sd	ra,8(sp)
 468 023c 23308100 		sd	s0,0(sp)
 469              		.cfi_offset 1, -8
 470              		.cfi_offset 8, -16
 471 0240 13040101 		addi	s0,sp,16
 472              		.cfi_def_cfa 8, 0
  32:src/syscall_cpp.cpp **** 
 473              		.loc 2 32 27
  32:src/syscall_cpp.cpp **** 
 474              		.loc 2 32 42 is_stmt 0
 475 0244 97000000 		call	_Z15thread_dispatchv@plt
 475      E7800000 
 476              	.LVL30:
  32:src/syscall_cpp.cpp **** 
 477              		.loc 2 32 46
 478 024c 83308100 		ld	ra,8(sp)
 479              		.cfi_restore 1
 480 0250 03340100 		ld	s0,0(sp)
 481              		.cfi_restore 8
 482              		.cfi_def_cfa 2, 16
 483 0254 13010101 		addi	sp,sp,16
 484              		.cfi_def_cfa_offset 0
 485 0258 67800000 		jr	ra
 486              		.cfi_endproc
 487              	.LFE61:
 489              		.align	2
 490              		.globl	_ZN6Thread5startEv
 492              	_ZN6Thread5startEv:
 493              	.LFB63:
  36:src/syscall_cpp.cpp ****     Scheduler::put(myHandle);
 494              		.loc 2 36 21 is_stmt 1
 495              		.cfi_startproc
 496              	.LVL31:
 497 025c 130101FE 		addi	sp,sp,-32
 498              		.cfi_def_cfa_offset 32
 499 0260 233C1100 		sd	ra,24(sp)
 500 0264 23388100 		sd	s0,16(sp)
 501 0268 23349100 		sd	s1,8(sp)
 502              		.cfi_offset 1, -8
 503              		.cfi_offset 8, -16
 504              		.cfi_offset 9, -24
 505 026c 13040102 		addi	s0,sp,32
 506              		.cfi_def_cfa 8, 0
 507 0270 93040500 		mv	s1,a0
  37:src/syscall_cpp.cpp ****     myHandle->setStarted(true);
 508              		.loc 2 37 5
  37:src/syscall_cpp.cpp ****     myHandle->setStarted(true);
 509              		.loc 2 37 19 is_stmt 0
 510 0274 03358500 		ld	a0,8(a0)
 511              	.LVL32:
 512 0278 97000000 		call	_ZN9Scheduler3putEP3CCB@plt
 512      E7800000 
 513              	.LVL33:
GAS LISTING /tmp/ccVF8Imi.s 			page 12


  38:src/syscall_cpp.cpp ****     return 1;
 514              		.loc 2 38 5 is_stmt 1
 515 0280 83B78400 		ld	a5,8(s1)
 516              	.LVL34:
 517              	.LBB8:
 518              	.LBB9:
 519              		.file 3 "src/../h/tcb.hpp"
   1:src/../h/tcb.hpp **** //
   2:src/../h/tcb.hpp **** // Created by os on 6/24/22.
   3:src/../h/tcb.hpp **** //
   4:src/../h/tcb.hpp **** 
   5:src/../h/tcb.hpp **** #ifndef PROJECT_V33333333333_CCB_HPP
   6:src/../h/tcb.hpp **** #define PROJECT_V33333333333_CCB_HPP
   7:src/../h/tcb.hpp **** #include "../lib/hw.h"
   8:src/../h/tcb.hpp **** #include "Scheduler.hpp"
   9:src/../h/tcb.hpp **** #include "syscall_c.h"
  10:src/../h/tcb.hpp **** #include "MemoryAllocator.hpp"
  11:src/../h/tcb.hpp **** #include "Riscv.hpp"
  12:src/../h/tcb.hpp **** 
  13:src/../h/tcb.hpp **** // Coroutine Control Block
  14:src/../h/tcb.hpp **** class CCB
  15:src/../h/tcb.hpp **** {
  16:src/../h/tcb.hpp **** public:
  17:src/../h/tcb.hpp ****     ~CCB() { delete[] stack; }
  18:src/../h/tcb.hpp ****     void* operator new(size_t size) {
  19:src/../h/tcb.hpp ****         return MemoryAllocator::allocateB(size);
  20:src/../h/tcb.hpp ****     }
  21:src/../h/tcb.hpp ****     void operator delete(void* address) {
  22:src/../h/tcb.hpp ****         MemoryAllocator::free(address);
  23:src/../h/tcb.hpp ****     }
  24:src/../h/tcb.hpp **** 
  25:src/../h/tcb.hpp ****     bool isFinished() const { return finished; }
  26:src/../h/tcb.hpp ****     bool isBlocked() const { return blocked; }
  27:src/../h/tcb.hpp ****     void setFinished(bool value) { finished = value;}
  28:src/../h/tcb.hpp ****     void setBlocked(bool value) { blocked = value; }
  29:src/../h/tcb.hpp ****     void setStarted(bool value) { started = value; }
 520              		.loc 3 29 35
 521              		.loc 3 29 43 is_stmt 0
 522 0284 13071000 		li	a4,1
 523 0288 2385E702 		sb	a4,42(a5)
 524              	.LVL35:
 525              	.LBE9:
 526              	.LBE8:
  39:src/syscall_cpp.cpp **** }
 527              		.loc 2 39 5 is_stmt 1
  40:src/syscall_cpp.cpp **** 
 528              		.loc 2 40 1 is_stmt 0
 529 028c 13051000 		li	a0,1
 530 0290 83308101 		ld	ra,24(sp)
 531              		.cfi_restore 1
 532 0294 03340101 		ld	s0,16(sp)
 533              		.cfi_restore 8
 534              		.cfi_def_cfa 2, 32
 535 0298 83348100 		ld	s1,8(sp)
 536              		.cfi_restore 9
 537              	.LVL36:
 538 029c 13010102 		addi	sp,sp,32
GAS LISTING /tmp/ccVF8Imi.s 			page 13


 539              		.cfi_def_cfa_offset 0
 540 02a0 67800000 		jr	ra
 541              		.cfi_endproc
 542              	.LFE63:
 544              		.align	2
 545              		.globl	_ZN9Semaphore6signalEv
 547              	_ZN9Semaphore6signalEv:
 548              	.LFB64:
  45:src/syscall_cpp.cpp ****    return sem_signal(myHandle);
 549              		.loc 2 45 25 is_stmt 1
 550              		.cfi_startproc
 551              	.LVL37:
 552 02a4 130101FF 		addi	sp,sp,-16
 553              		.cfi_def_cfa_offset 16
 554 02a8 23341100 		sd	ra,8(sp)
 555 02ac 23308100 		sd	s0,0(sp)
 556              		.cfi_offset 1, -8
 557              		.cfi_offset 8, -16
 558 02b0 13040101 		addi	s0,sp,16
 559              		.cfi_def_cfa 8, 0
  46:src/syscall_cpp.cpp **** }
 560              		.loc 2 46 4
  46:src/syscall_cpp.cpp **** }
 561              		.loc 2 46 21 is_stmt 0
 562 02b4 03358500 		ld	a0,8(a0)
 563              	.LVL38:
 564 02b8 97000000 		call	_Z10sem_signalP13Semaphore_sys@plt
 564      E7800000 
 565              	.LVL39:
  47:src/syscall_cpp.cpp **** int Semaphore::wait() {
 566              		.loc 2 47 1
 567 02c0 83308100 		ld	ra,8(sp)
 568              		.cfi_restore 1
 569 02c4 03340100 		ld	s0,0(sp)
 570              		.cfi_restore 8
 571              		.cfi_def_cfa 2, 16
 572 02c8 13010101 		addi	sp,sp,16
 573              		.cfi_def_cfa_offset 0
 574 02cc 67800000 		jr	ra
 575              		.cfi_endproc
 576              	.LFE64:
 578              		.align	2
 579              		.globl	_ZN9Semaphore4waitEv
 581              	_ZN9Semaphore4waitEv:
 582              	.LFB65:
  48:src/syscall_cpp.cpp ****     return sem_wait(myHandle);
 583              		.loc 2 48 23 is_stmt 1
 584              		.cfi_startproc
 585              	.LVL40:
 586 02d0 130101FF 		addi	sp,sp,-16
 587              		.cfi_def_cfa_offset 16
 588 02d4 23341100 		sd	ra,8(sp)
 589 02d8 23308100 		sd	s0,0(sp)
 590              		.cfi_offset 1, -8
 591              		.cfi_offset 8, -16
 592 02dc 13040101 		addi	s0,sp,16
 593              		.cfi_def_cfa 8, 0
GAS LISTING /tmp/ccVF8Imi.s 			page 14


  49:src/syscall_cpp.cpp **** }
 594              		.loc 2 49 5
  49:src/syscall_cpp.cpp **** }
 595              		.loc 2 49 20 is_stmt 0
 596 02e0 03358500 		ld	a0,8(a0)
 597              	.LVL41:
 598 02e4 97000000 		call	_Z8sem_waitP13Semaphore_sys@plt
 598      E7800000 
 599              	.LVL42:
  50:src/syscall_cpp.cpp **** Semaphore::~Semaphore() {
 600              		.loc 2 50 1
 601 02ec 83308100 		ld	ra,8(sp)
 602              		.cfi_restore 1
 603 02f0 03340100 		ld	s0,0(sp)
 604              		.cfi_restore 8
 605              		.cfi_def_cfa 2, 16
 606 02f4 13010101 		addi	sp,sp,16
 607              		.cfi_def_cfa_offset 0
 608 02f8 67800000 		jr	ra
 609              		.cfi_endproc
 610              	.LFE65:
 612              		.align	2
 613              		.globl	_ZN9SemaphoreC2Ej
 615              	_ZN9SemaphoreC2Ej:
 616              	.LFB71:
  54:src/syscall_cpp.cpp **** 
  55:src/syscall_cpp.cpp **** Semaphore::Semaphore(unsigned int init) {
 617              		.loc 2 55 1 is_stmt 1
 618              		.cfi_startproc
 619              	.LVL43:
 620 02fc 130101FF 		addi	sp,sp,-16
 621              		.cfi_def_cfa_offset 16
 622 0300 23341100 		sd	ra,8(sp)
 623 0304 23308100 		sd	s0,0(sp)
 624              		.cfi_offset 1, -8
 625              		.cfi_offset 8, -16
 626 0308 13040101 		addi	s0,sp,16
 627              		.cfi_def_cfa 8, 0
 628              	.LBB10:
 629              		.loc 2 55 39 is_stmt 0
 630 030c 97070000 		lla	a5,_ZTV9Semaphore+16
 630      93870700 
 631 0314 2330F500 		sd	a5,0(a0)
  56:src/syscall_cpp.cpp ****     sem_open(&myHandle, init);
 632              		.loc 2 56 5 is_stmt 1
 633              		.loc 2 56 13 is_stmt 0
 634 0318 13058500 		addi	a0,a0,8
 635              	.LVL44:
 636 031c 97000000 		call	_Z8sem_openPP13Semaphore_sysj@plt
 636      E7800000 
 637              	.LVL45:
 638              	.LBE10:
  57:src/syscall_cpp.cpp **** }...
 639              		.loc 2 57 1
 640 0324 83308100 		ld	ra,8(sp)
 641              		.cfi_restore 1
 642 0328 03340100 		ld	s0,0(sp)
GAS LISTING /tmp/ccVF8Imi.s 			page 15


 643              		.cfi_restore 8
 644              		.cfi_def_cfa 2, 16
 645 032c 13010101 		addi	sp,sp,16
 646              		.cfi_def_cfa_offset 0
 647 0330 67800000 		jr	ra
 648              		.cfi_endproc
 649              	.LFE71:
 651              		.globl	_ZN9SemaphoreC1Ej
 652              		.set	_ZN9SemaphoreC1Ej,_ZN9SemaphoreC2Ej
 653              		.weak	_ZTV6Thread
 654              		.section	.data.rel.ro.local._ZTV6Thread,"awG",@progbits,_ZTV6Thread,comdat
 655              		.align	3
 658              	_ZTV6Thread:
 659 0000 00000000 		.dword	0
 659      00000000 
 660 0008 00000000 		.dword	0
 660      00000000 
 661 0010 00000000 		.dword	_ZN6ThreadD1Ev
 661      00000000 
 662 0018 00000000 		.dword	_ZN6ThreadD0Ev
 662      00000000 
 663 0020 00000000 		.dword	_ZN6Thread3runEv
 663      00000000 
 664              		.weak	_ZTV9Semaphore
 665              		.section	.data.rel.ro.local._ZTV9Semaphore,"awG",@progbits,_ZTV9Semaphore,comdat
 666              		.align	3
 669              	_ZTV9Semaphore:
 670 0000 00000000 		.dword	0
 670      00000000 
 671 0008 00000000 		.dword	0
 671      00000000 
 672 0010 00000000 		.dword	_ZN9SemaphoreD1Ev
 672      00000000 
 673 0018 00000000 		.dword	_ZN9SemaphoreD0Ev
 673      00000000 
 674              		.text
 675              	.Letext0:
 676              		.file 4 "src/../h/../lib/hw.h"
 677              		.file 5 "src/../h/syscall_c.h"
 678              		.file 6 "src/../h/Scheduler.hpp"
 3696              		.align	3
 3699              	DW.ref.__gxx_personality_v0:
 3700 0000 00000000 		.dword	__gxx_personality_v0
 3700      00000000 
 3701              		.ident	"GCC: (Ubuntu 9.4.0-1ubuntu1~20.04) 9.4.0"
 3702              		.section	.note.GNU-stack,"",@progbits
GAS LISTING /tmp/ccVF8Imi.s 			page 16

