GAS LISTING /tmp/ccj3j8ko.s 			page 1


   1              		.file	"syscall_c.cpp"
   2              		.option pic
   3              		.option norelax
   4              		.text
   5              	.Ltext0:
   6              		.align	2
   7              		.globl	_Z9mem_allocm
   9              	_Z9mem_allocm:
  10              	.LFB46:
  11              		.file 1 "src/syscall_c.cpp"
   1:src/syscall_c.cpp **** //
   2:src/syscall_c.cpp **** // Created by os on 6/22/22.
   3:src/syscall_c.cpp **** //
   4:src/syscall_c.cpp **** #include "../h/syscall_c.h"
   5:src/syscall_c.cpp **** #include "../h/Scheduler.hpp"
   6:src/syscall_c.cpp **** #include "../h/tcb.hpp"
   7:src/syscall_c.cpp **** #include "../lib/console.h"
   8:src/syscall_c.cpp **** 
   9:src/syscall_c.cpp **** /* ================================================================================================
  10:src/syscall_c.cpp ****  * This file contains the system calls to the riscv.cpp file that handles the codes of the specific
  11:src/syscall_c.cpp ****  * ================================================================================================
  12:src/syscall_c.cpp ****  * */
  13:src/syscall_c.cpp **** 
  14:src/syscall_c.cpp **** void* mem_alloc(size_t size){
  12              		.loc 1 14 29
  13              		.cfi_startproc
  14              	.LVL0:
  15 0000 130101FF 		addi	sp,sp,-16
  16              		.cfi_def_cfa_offset 16
  17 0004 23348100 		sd	s0,8(sp)
  18              		.cfi_offset 8, -8
  19 0008 13040101 		addi	s0,sp,16
  20              		.cfi_def_cfa 8, 0
  15:src/syscall_c.cpp ****     if(size <= 0) return nullptr;
  21              		.loc 1 15 5
  22 000c 630C0502 		beqz	a0,.L4
  16:src/syscall_c.cpp ****     uint64 numBlocks = (size + 24)/MEM_BLOCK_SIZE + ((size + 24) % MEM_BLOCK_SIZE ? 1 : 0);
  23              		.loc 1 16 5
  24              		.loc 1 16 30 is_stmt 0
  25 0010 13058501 		addi	a0,a0,24
  26              	.LVL1:
  27              		.loc 1 16 35
  28 0014 93576500 		srli	a5,a0,6
  29              		.loc 1 16 66
  30 0018 1375F503 		andi	a0,a0,63
  31              	.LVL2:
  32              		.loc 1 16 83
  33 001c 63040500 		beqz	a0,.L3
  34 0020 13051000 		li	a0,1
  35              	.L3:
  36              		.loc 1 16 12 discriminator 4
  37 0024 3385A700 		add	a0,a5,a0
  38              	.LVL3:
  17:src/syscall_c.cpp ****     void* address = nullptr;
  39              		.loc 1 17 5 is_stmt 1 discriminator 4
  18:src/syscall_c.cpp ****     __asm__ volatile ("mv a1, %0" : : "r" (numBlocks));
  40              		.loc 1 18 5 discriminator 4
GAS LISTING /tmp/ccj3j8ko.s 			page 2


  41              		.loc 1 18 55 is_stmt 0 discriminator 4
  42              	#APP
  43              	# 18 "src/syscall_c.cpp" 1
  19              	    __asm__ volatile ("li a0, 1");
  44              		mv a1, a0
  45              	# 0 "" 2
  46              		.loc 1 19 5 is_stmt 1 discriminator 4
  47              		.loc 1 19 34 is_stmt 0 discriminator 4
  48              	# 19 "src/syscall_c.cpp" 1
  20              	    __asm__ volatile ("ecall");
  49              		li a0, 1
  50              	# 0 "" 2
  51              		.loc 1 20 5 is_stmt 1 discriminator 4
  52              		.loc 1 20 31 is_stmt 0 discriminator 4
  53              	# 20 "src/syscall_c.cpp" 1
  21              	    __asm__ volatile ("mv %0, a0" : "=r" (address));
  54              		ecall
  55              	# 0 "" 2
  56              		.loc 1 21 5 is_stmt 1 discriminator 4
  57              		.loc 1 21 52 is_stmt 0 discriminator 4
  58              	# 21 "src/syscall_c.cpp" 1
  22              	    return address;
  59              		mv a0, a0
  60              	# 0 "" 2
  61              	.LVL4:
  62              		.loc 1 22 5 is_stmt 1 discriminator 4
  63              	#NO_APP
  64              	.L1:
  23:src/syscall_c.cpp **** }
  65              		.loc 1 23 1 is_stmt 0
  66 0038 03348100 		ld	s0,8(sp)
  67              		.cfi_remember_state
  68              		.cfi_restore 8
  69              		.cfi_def_cfa 2, 16
  70 003c 13010101 		addi	sp,sp,16
  71              		.cfi_def_cfa_offset 0
  72 0040 67800000 		jr	ra
  73              	.LVL5:
  74              	.L4:
  75              		.cfi_restore_state
  15:src/syscall_c.cpp ****     uint64 numBlocks = (size + 24)/MEM_BLOCK_SIZE + ((size + 24) % MEM_BLOCK_SIZE ? 1 : 0);
  76              		.loc 1 15 26
  77 0044 13050000 		li	a0,0
  78              	.LVL6:
  79 0048 6FF01FFF 		j	.L1
  80              		.cfi_endproc
  81              	.LFE46:
  83              		.align	2
  84              		.globl	_Z8mem_freePv
  86              	_Z8mem_freePv:
  87              	.LFB47:
  24:src/syscall_c.cpp **** 
  25:src/syscall_c.cpp **** void mem_free(void* address){
  88              		.loc 1 25 29 is_stmt 1
  89              		.cfi_startproc
  90              	.LVL7:
  91 004c 130101FF 		addi	sp,sp,-16
GAS LISTING /tmp/ccj3j8ko.s 			page 3


  92              		.cfi_def_cfa_offset 16
  93 0050 23348100 		sd	s0,8(sp)
  94              		.cfi_offset 8, -8
  95 0054 13040101 		addi	s0,sp,16
  96              		.cfi_def_cfa 8, 0
  26:src/syscall_c.cpp ****     __asm__ volatile ("mv a1, %0" : : "r" (address));
  97              		.loc 1 26 5
  98              		.loc 1 26 53 is_stmt 0
  99              	#APP
 100              	# 26 "src/syscall_c.cpp" 1
  27              	    __asm__ volatile ("li a0, 0x02");
 101              		mv a1, a0
 102              	# 0 "" 2
 103              		.loc 1 27 5 is_stmt 1
 104              		.loc 1 27 37 is_stmt 0
 105              	# 27 "src/syscall_c.cpp" 1
  28              	    __asm__ volatile ("ecall");
 106              		li a0, 0x02
 107              	# 0 "" 2
 108              		.loc 1 28 5 is_stmt 1
 109              		.loc 1 28 31 is_stmt 0
 110              	# 28 "src/syscall_c.cpp" 1
  29              	}
 111              		ecall
 112              	# 0 "" 2
 113              		.loc 1 29 1
 114              	#NO_APP
 115 0064 03348100 		ld	s0,8(sp)
 116              		.cfi_restore 8
 117              		.cfi_def_cfa 2, 16
 118 0068 13010101 		addi	sp,sp,16
 119              		.cfi_def_cfa_offset 0
 120 006c 67800000 		jr	ra
 121              		.cfi_endproc
 122              	.LFE47:
 124              		.align	2
 125              		.globl	_Z13thread_createPP3CCBPFvPvES2_
 127              	_Z13thread_createPP3CCBPFvPvES2_:
 128              	.LFB48:
  30:src/syscall_c.cpp **** 
  31:src/syscall_c.cpp **** int thread_create(thread_t* handle, void (*start_routine)(void*), void* args){
 129              		.loc 1 31 78 is_stmt 1
 130              		.cfi_startproc
 131              	.LVL8:
 132 0070 130101FF 		addi	sp,sp,-16
 133              		.cfi_def_cfa_offset 16
 134 0074 23348100 		sd	s0,8(sp)
 135              		.cfi_offset 8, -8
 136 0078 13040101 		addi	s0,sp,16
 137              		.cfi_def_cfa 8, 0
  32:src/syscall_c.cpp ****     __asm__ volatile("mv a3, %0" : : "r" (args));
 138              		.loc 1 32 5
 139              		.loc 1 32 49 is_stmt 0
 140              	#APP
 141              	# 32 "src/syscall_c.cpp" 1
  33              	    __asm__ volatile("mv a2, %0" : : "r" (start_routine));
 142              		mv a3, a2
GAS LISTING /tmp/ccj3j8ko.s 			page 4


 143              	# 0 "" 2
 144              		.loc 1 33 5 is_stmt 1
 145              		.loc 1 33 58 is_stmt 0
 146              	# 33 "src/syscall_c.cpp" 1
  34              	    __asm__ volatile("mv a1, %0" : : "r" (handle));
 147              		mv a2, a1
 148              	# 0 "" 2
 149              		.loc 1 34 5 is_stmt 1
 150              		.loc 1 34 51 is_stmt 0
 151              	# 34 "src/syscall_c.cpp" 1
  35              	    __asm__ volatile("li a0, 0x11");
 152              		mv a1, a0
 153              	# 0 "" 2
 154              		.loc 1 35 5 is_stmt 1
 155              		.loc 1 35 36 is_stmt 0
 156              	# 35 "src/syscall_c.cpp" 1
  36              	    __asm__ volatile("ecall");
 157              		li a0, 0x11
 158              	# 0 "" 2
 159              		.loc 1 36 5 is_stmt 1
 160              		.loc 1 36 30 is_stmt 0
 161              	# 36 "src/syscall_c.cpp" 1
  37              	    return 0;
 162              		ecall
 163              	# 0 "" 2
 164              		.loc 1 37 5 is_stmt 1
  38:src/syscall_c.cpp **** }
 165              		.loc 1 38 1 is_stmt 0
 166              	#NO_APP
 167 0090 13050000 		li	a0,0
 168              	.LVL9:
 169 0094 03348100 		ld	s0,8(sp)
 170              		.cfi_restore 8
 171              		.cfi_def_cfa 2, 16
 172 0098 13010101 		addi	sp,sp,16
 173              		.cfi_def_cfa_offset 0
 174 009c 67800000 		jr	ra
 175              		.cfi_endproc
 176              	.LFE48:
 178              		.align	2
 179              		.globl	_Z15thread_dispatchv
 181              	_Z15thread_dispatchv:
 182              	.LFB49:
  39:src/syscall_c.cpp **** 
  40:src/syscall_c.cpp **** void thread_dispatch(){
 183              		.loc 1 40 23 is_stmt 1
 184              		.cfi_startproc
 185 00a0 130101FF 		addi	sp,sp,-16
 186              		.cfi_def_cfa_offset 16
 187 00a4 23348100 		sd	s0,8(sp)
 188              		.cfi_offset 8, -8
 189 00a8 13040101 		addi	s0,sp,16
 190              		.cfi_def_cfa 8, 0
  41:src/syscall_c.cpp ****     __asm__ volatile("li a0, 0x13");
 191              		.loc 1 41 5
 192              		.loc 1 41 36 is_stmt 0
 193              	#APP
GAS LISTING /tmp/ccj3j8ko.s 			page 5


 194              	# 41 "src/syscall_c.cpp" 1
  42              	    __asm__ volatile("ecall");
 195              		li a0, 0x13
 196              	# 0 "" 2
 197              		.loc 1 42 5 is_stmt 1
 198              		.loc 1 42 30 is_stmt 0
 199              	# 42 "src/syscall_c.cpp" 1
  43              	}
 200              		ecall
 201              	# 0 "" 2
 202              		.loc 1 43 1
 203              	#NO_APP
 204 00b4 03348100 		ld	s0,8(sp)
 205              		.cfi_restore 8
 206              		.cfi_def_cfa 2, 16
 207 00b8 13010101 		addi	sp,sp,16
 208              		.cfi_def_cfa_offset 0
 209 00bc 67800000 		jr	ra
 210              		.cfi_endproc
 211              	.LFE49:
 213              		.align	2
 214              		.globl	_Z11thread_exitv
 216              	_Z11thread_exitv:
 217              	.LFB50:
  44:src/syscall_c.cpp **** 
  45:src/syscall_c.cpp **** int thread_exit(){
 218              		.loc 1 45 18 is_stmt 1
 219              		.cfi_startproc
 220 00c0 130101FF 		addi	sp,sp,-16
 221              		.cfi_def_cfa_offset 16
 222 00c4 23348100 		sd	s0,8(sp)
 223              		.cfi_offset 8, -8
 224 00c8 13040101 		addi	s0,sp,16
 225              		.cfi_def_cfa 8, 0
  46:src/syscall_c.cpp ****     __asm__ volatile ("li a0, 0x12");
 226              		.loc 1 46 5
 227              		.loc 1 46 37 is_stmt 0
 228              	#APP
 229              	# 46 "src/syscall_c.cpp" 1
  47              	    __asm__ volatile ("ecall");
 230              		li a0, 0x12
 231              	# 0 "" 2
 232              		.loc 1 47 5 is_stmt 1
 233              		.loc 1 47 31 is_stmt 0
 234              	# 47 "src/syscall_c.cpp" 1
  48              	    return 0;
 235              		ecall
 236              	# 0 "" 2
 237              		.loc 1 48 5 is_stmt 1
  49:src/syscall_c.cpp **** }
 238              		.loc 1 49 1 is_stmt 0
 239              	#NO_APP
 240 00d4 13050000 		li	a0,0
 241 00d8 03348100 		ld	s0,8(sp)
 242              		.cfi_restore 8
 243              		.cfi_def_cfa 2, 16
 244 00dc 13010101 		addi	sp,sp,16
GAS LISTING /tmp/ccj3j8ko.s 			page 6


 245              		.cfi_def_cfa_offset 0
 246 00e0 67800000 		jr	ra
 247              		.cfi_endproc
 248              	.LFE50:
 250              		.align	2
 251              		.globl	_Z25thread_create_NOT_STARTEDPP3CCBPFvPvES2_
 253              	_Z25thread_create_NOT_STARTEDPP3CCBPFvPvES2_:
 254              	.LFB51:
  50:src/syscall_c.cpp **** 
  51:src/syscall_c.cpp **** int thread_create_NOT_STARTED(thread_t* handle, void (*start_routine)(void*), void* args){
 255              		.loc 1 51 90 is_stmt 1
 256              		.cfi_startproc
 257              	.LVL10:
 258 00e4 130101FF 		addi	sp,sp,-16
 259              		.cfi_def_cfa_offset 16
 260 00e8 23348100 		sd	s0,8(sp)
 261              		.cfi_offset 8, -8
 262 00ec 13040101 		addi	s0,sp,16
 263              		.cfi_def_cfa 8, 0
  52:src/syscall_c.cpp ****     __asm__ volatile("mv a3, %0" : : "r" (args));
 264              		.loc 1 52 5
 265              		.loc 1 52 49 is_stmt 0
 266              	#APP
 267              	# 52 "src/syscall_c.cpp" 1
  53              	    __asm__ volatile("mv a2, %0" : : "r" (start_routine));
 268              		mv a3, a2
 269              	# 0 "" 2
 270              		.loc 1 53 5 is_stmt 1
 271              		.loc 1 53 58 is_stmt 0
 272              	# 53 "src/syscall_c.cpp" 1
  54              	    __asm__ volatile("mv a1, %0" : : "r" (handle));
 273              		mv a2, a1
 274              	# 0 "" 2
 275              		.loc 1 54 5 is_stmt 1
 276              		.loc 1 54 51 is_stmt 0
 277              	# 54 "src/syscall_c.cpp" 1
  55              	    __asm__ volatile("li a0, 0x14");
 278              		mv a1, a0
 279              	# 0 "" 2
 280              		.loc 1 55 5 is_stmt 1
 281              		.loc 1 55 36 is_stmt 0
 282              	# 55 "src/syscall_c.cpp" 1
  56              	    __asm__ volatile("ecall");
 283              		li a0, 0x14
 284              	# 0 "" 2
 285              		.loc 1 56 5 is_stmt 1
 286              		.loc 1 56 30 is_stmt 0
 287              	# 56 "src/syscall_c.cpp" 1
  57              	    return 0;
 288              		ecall
 289              	# 0 "" 2
 290              		.loc 1 57 5 is_stmt 1
  58:src/syscall_c.cpp **** }
 291              		.loc 1 58 1 is_stmt 0
 292              	#NO_APP
 293 0104 13050000 		li	a0,0
 294              	.LVL11:
GAS LISTING /tmp/ccj3j8ko.s 			page 7


 295 0108 03348100 		ld	s0,8(sp)
 296              		.cfi_restore 8
 297              		.cfi_def_cfa 2, 16
 298 010c 13010101 		addi	sp,sp,16
 299              		.cfi_def_cfa_offset 0
 300 0110 67800000 		jr	ra
 301              		.cfi_endproc
 302              	.LFE51:
 304              		.align	2
 305              		.globl	_Z8sem_openPP13Semaphore_sysj
 307              	_Z8sem_openPP13Semaphore_sysj:
 308              	.LFB52:
  59:src/syscall_c.cpp **** int sem_open (sem_t* handle, unsigned init) {
 309              		.loc 1 59 45 is_stmt 1
 310              		.cfi_startproc
 311              	.LVL12:
 312 0114 130101FF 		addi	sp,sp,-16
 313              		.cfi_def_cfa_offset 16
 314 0118 23348100 		sd	s0,8(sp)
 315              		.cfi_offset 8, -8
 316 011c 13040101 		addi	s0,sp,16
 317              		.cfi_def_cfa 8, 0
  60:src/syscall_c.cpp ****     __asm__ volatile ("mv a2, %0" : : "r" (init));
 318              		.loc 1 60 5
 319              		.loc 1 60 50 is_stmt 0
 320              	#APP
 321              	# 60 "src/syscall_c.cpp" 1
  61              	    __asm__ volatile ("mv a1, %0" : : "r" (handle));
 322              		mv a2, a1
 323              	# 0 "" 2
 324              		.loc 1 61 5 is_stmt 1
 325              		.loc 1 61 52 is_stmt 0
 326              	# 61 "src/syscall_c.cpp" 1
  62              	    __asm__ volatile ("li a0, 0x21");
 327              		mv a1, a0
 328              	# 0 "" 2
 329              		.loc 1 62 5 is_stmt 1
 330              		.loc 1 62 37 is_stmt 0
 331              	# 62 "src/syscall_c.cpp" 1
  63              	    __asm__ volatile ("ecall");
 332              		li a0, 0x21
 333              	# 0 "" 2
 334              		.loc 1 63 5 is_stmt 1
 335              		.loc 1 63 31 is_stmt 0
 336              	# 63 "src/syscall_c.cpp" 1
  64              	    return 0;
 337              		ecall
 338              	# 0 "" 2
 339              		.loc 1 64 5 is_stmt 1
  65:src/syscall_c.cpp **** }
 340              		.loc 1 65 1 is_stmt 0
 341              	#NO_APP
 342 0130 13050000 		li	a0,0
 343              	.LVL13:
 344 0134 03348100 		ld	s0,8(sp)
 345              		.cfi_restore 8
 346              		.cfi_def_cfa 2, 16
GAS LISTING /tmp/ccj3j8ko.s 			page 8


 347 0138 13010101 		addi	sp,sp,16
 348              		.cfi_def_cfa_offset 0
 349 013c 67800000 		jr	ra
 350              		.cfi_endproc
 351              	.LFE52:
 353              		.align	2
 354              		.globl	_Z9sem_closeP13Semaphore_sys
 356              	_Z9sem_closeP13Semaphore_sys:
 357              	.LFB53:
  66:src/syscall_c.cpp **** 
  67:src/syscall_c.cpp **** int sem_close (sem_t handle) {
 358              		.loc 1 67 30 is_stmt 1
 359              		.cfi_startproc
 360              	.LVL14:
 361 0140 130101FF 		addi	sp,sp,-16
 362              		.cfi_def_cfa_offset 16
 363 0144 23348100 		sd	s0,8(sp)
 364              		.cfi_offset 8, -8
 365 0148 13040101 		addi	s0,sp,16
 366              		.cfi_def_cfa 8, 0
  68:src/syscall_c.cpp ****     if (!handle) return -1;
 367              		.loc 1 68 5
 368 014c 63000502 		beqz	a0,.L20
  69:src/syscall_c.cpp ****     __asm__ volatile ("mv a1, %0" : : "r" (handle));
 369              		.loc 1 69 5
 370              		.loc 1 69 52 is_stmt 0
 371              	#APP
 372              	# 69 "src/syscall_c.cpp" 1
  70              	    __asm__ volatile ("li a0, 0x22");
 373              		mv a1, a0
 374              	# 0 "" 2
 375              		.loc 1 70 5 is_stmt 1
 376              		.loc 1 70 37 is_stmt 0
 377              	# 70 "src/syscall_c.cpp" 1
  71              	    __asm__ volatile ("ecall");
 378              		li a0, 0x22
 379              	# 0 "" 2
 380              		.loc 1 71 5 is_stmt 1
 381              		.loc 1 71 31 is_stmt 0
 382              	# 71 "src/syscall_c.cpp" 1
  72              	    return 0;
 383              		ecall
 384              	# 0 "" 2
 385              		.loc 1 72 5 is_stmt 1
 386              		.loc 1 72 12 is_stmt 0
 387              	#NO_APP
 388 015c 13050000 		li	a0,0
 389              	.LVL15:
 390              	.L19:
  73:src/syscall_c.cpp **** }
 391              		.loc 1 73 1
 392 0160 03348100 		ld	s0,8(sp)
 393              		.cfi_remember_state
 394              		.cfi_restore 8
 395              		.cfi_def_cfa 2, 16
 396 0164 13010101 		addi	sp,sp,16
 397              		.cfi_def_cfa_offset 0
GAS LISTING /tmp/ccj3j8ko.s 			page 9


 398 0168 67800000 		jr	ra
 399              	.LVL16:
 400              	.L20:
 401              		.cfi_restore_state
  68:src/syscall_c.cpp ****     if (!handle) return -1;
 402              		.loc 1 68 26
 403 016c 1305F0FF 		li	a0,-1
 404              	.LVL17:
 405 0170 6FF01FFF 		j	.L19
 406              		.cfi_endproc
 407              	.LFE53:
 409              		.align	2
 410              		.globl	_Z8sem_waitP13Semaphore_sys
 412              	_Z8sem_waitP13Semaphore_sys:
 413              	.LFB54:
  74:src/syscall_c.cpp **** 
  75:src/syscall_c.cpp **** int sem_wait (sem_t sem) {
 414              		.loc 1 75 26 is_stmt 1
 415              		.cfi_startproc
 416              	.LVL18:
 417 0174 130101FF 		addi	sp,sp,-16
 418              		.cfi_def_cfa_offset 16
 419 0178 23348100 		sd	s0,8(sp)
 420              		.cfi_offset 8, -8
 421 017c 13040101 		addi	s0,sp,16
 422              		.cfi_def_cfa 8, 0
  76:src/syscall_c.cpp ****     if (!sem) return -1;
 423              		.loc 1 76 5
 424 0180 63000502 		beqz	a0,.L24
  77:src/syscall_c.cpp ****     __asm__ volatile ("mv a1, %0" : : "r" (sem));
 425              		.loc 1 77 5
 426              		.loc 1 77 49 is_stmt 0
 427              	#APP
 428              	# 77 "src/syscall_c.cpp" 1
  78              	    __asm__ volatile ("li a0, 0x23");
 429              		mv a1, a0
 430              	# 0 "" 2
 431              		.loc 1 78 5 is_stmt 1
 432              		.loc 1 78 37 is_stmt 0
 433              	# 78 "src/syscall_c.cpp" 1
  79              	    __asm__ volatile ("ecall");
 434              		li a0, 0x23
 435              	# 0 "" 2
 436              		.loc 1 79 5 is_stmt 1
 437              		.loc 1 79 31 is_stmt 0
 438              	# 79 "src/syscall_c.cpp" 1
  80              	    return 0;
 439              		ecall
 440              	# 0 "" 2
 441              		.loc 1 80 5 is_stmt 1
 442              		.loc 1 80 12 is_stmt 0
 443              	#NO_APP
 444 0190 13050000 		li	a0,0
 445              	.LVL19:
 446              	.L23:
  81:src/syscall_c.cpp **** }
 447              		.loc 1 81 1
GAS LISTING /tmp/ccj3j8ko.s 			page 10


 448 0194 03348100 		ld	s0,8(sp)
 449              		.cfi_remember_state
 450              		.cfi_restore 8
 451              		.cfi_def_cfa 2, 16
 452 0198 13010101 		addi	sp,sp,16
 453              		.cfi_def_cfa_offset 0
 454 019c 67800000 		jr	ra
 455              	.LVL20:
 456              	.L24:
 457              		.cfi_restore_state
  76:src/syscall_c.cpp ****     if (!sem) return -1;
 458              		.loc 1 76 23
 459 01a0 1305F0FF 		li	a0,-1
 460              	.LVL21:
 461 01a4 6FF01FFF 		j	.L23
 462              		.cfi_endproc
 463              	.LFE54:
 465              		.align	2
 466              		.globl	_Z10sem_signalP13Semaphore_sys
 468              	_Z10sem_signalP13Semaphore_sys:
 469              	.LFB55:
  82:src/syscall_c.cpp **** 
  83:src/syscall_c.cpp **** int sem_signal (sem_t sem) {
 470              		.loc 1 83 28 is_stmt 1
 471              		.cfi_startproc
 472              	.LVL22:
 473 01a8 130101FF 		addi	sp,sp,-16
 474              		.cfi_def_cfa_offset 16
 475 01ac 23348100 		sd	s0,8(sp)
 476              		.cfi_offset 8, -8
 477 01b0 13040101 		addi	s0,sp,16
 478              		.cfi_def_cfa 8, 0
  84:src/syscall_c.cpp ****     if (!sem) return -1;
 479              		.loc 1 84 5
 480 01b4 63000502 		beqz	a0,.L28
  85:src/syscall_c.cpp ****     __asm__ volatile ("mv a1, %0" : : "r" (sem));
 481              		.loc 1 85 5
 482              		.loc 1 85 49 is_stmt 0
 483              	#APP
 484              	# 85 "src/syscall_c.cpp" 1
  86              	    __asm__ volatile ("li a0, 0x24");
 485              		mv a1, a0
 486              	# 0 "" 2
 487              		.loc 1 86 5 is_stmt 1
 488              		.loc 1 86 37 is_stmt 0
 489              	# 86 "src/syscall_c.cpp" 1
  87              	    __asm__ volatile ("ecall");
 490              		li a0, 0x24
 491              	# 0 "" 2
 492              		.loc 1 87 5 is_stmt 1
 493              		.loc 1 87 31 is_stmt 0
 494              	# 87 "src/syscall_c.cpp" 1
  88              	    return 0;
 495              		ecall
 496              	# 0 "" 2
 497              		.loc 1 88 5 is_stmt 1
 498              		.loc 1 88 12 is_stmt 0
GAS LISTING /tmp/ccj3j8ko.s 			page 11


 499              	#NO_APP
 500 01c4 13050000 		li	a0,0
 501              	.LVL23:
 502              	.L27:
  89:src/syscall_c.cpp **** }
 503              		.loc 1 89 1
 504 01c8 03348100 		ld	s0,8(sp)
 505              		.cfi_remember_state
 506              		.cfi_restore 8
 507              		.cfi_def_cfa 2, 16
 508 01cc 13010101 		addi	sp,sp,16
 509              		.cfi_def_cfa_offset 0
 510 01d0 67800000 		jr	ra
 511              	.LVL24:
 512              	.L28:
 513              		.cfi_restore_state
  84:src/syscall_c.cpp ****     if (!sem) return -1;
 514              		.loc 1 84 23
 515 01d4 1305F0FF 		li	a0,-1
 516              	.LVL25:
 517 01d8 6FF01FFF 		j	.L27
 518              		.cfi_endproc
 519              	.LFE55:
 521              		.align	2
 522              		.globl	_Z4getcv
 524              	_Z4getcv:
 525              	.LFB56:
  90:src/syscall_c.cpp **** 
  91:src/syscall_c.cpp **** char getc() {
 526              		.loc 1 91 13 is_stmt 1
 527              		.cfi_startproc
 528 01dc 130101FF 		addi	sp,sp,-16
 529              		.cfi_def_cfa_offset 16
 530 01e0 23341100 		sd	ra,8(sp)
 531 01e4 23308100 		sd	s0,0(sp)
 532              		.cfi_offset 1, -8
 533              		.cfi_offset 8, -16
 534 01e8 13040101 		addi	s0,sp,16
 535              		.cfi_def_cfa 8, 0
  92:src/syscall_c.cpp ****     return __getc();
 536              		.loc 1 92 5
 537              		.loc 1 92 18 is_stmt 0
 538 01ec 97000000 		call	__getc@plt
 538      E7800000 
 539              	.LVL26:
  93:src/syscall_c.cpp **** }
 540              		.loc 1 93 1
 541 01f4 83308100 		ld	ra,8(sp)
 542              		.cfi_restore 1
 543 01f8 03340100 		ld	s0,0(sp)
 544              		.cfi_restore 8
 545              		.cfi_def_cfa 2, 16
 546 01fc 13010101 		addi	sp,sp,16
 547              		.cfi_def_cfa_offset 0
 548 0200 67800000 		jr	ra
 549              		.cfi_endproc
 550              	.LFE56:
GAS LISTING /tmp/ccj3j8ko.s 			page 12


 552              		.align	2
 553              		.globl	_Z4putcc
 555              	_Z4putcc:
 556              	.LFB57:
  94:src/syscall_c.cpp **** void putc(char c) {
 557              		.loc 1 94 19 is_stmt 1
 558              		.cfi_startproc
 559              	.LVL27:
 560 0204 130101FF 		addi	sp,sp,-16
 561              		.cfi_def_cfa_offset 16
 562 0208 23341100 		sd	ra,8(sp)
 563 020c 23308100 		sd	s0,0(sp)
 564              		.cfi_offset 1, -8
 565              		.cfi_offset 8, -16
 566 0210 13040101 		addi	s0,sp,16
 567              		.cfi_def_cfa 8, 0
  95:src/syscall_c.cpp ****     __putc(c);
 568              		.loc 1 95 5
 569              		.loc 1 95 11 is_stmt 0
 570 0214 97000000 		call	__putc@plt
 570      E7800000 
 571              	.LVL28:
  96:src/syscall_c.cpp **** }...
 572              		.loc 1 96 1
 573 021c 83308100 		ld	ra,8(sp)
 574              		.cfi_restore 1
 575 0220 03340100 		ld	s0,0(sp)
 576              		.cfi_restore 8
 577              		.cfi_def_cfa 2, 16
 578 0224 13010101 		addi	sp,sp,16
 579              		.cfi_def_cfa_offset 0
 580 0228 67800000 		jr	ra
 581              		.cfi_endproc
 582              	.LFE57:
 584              	.Letext0:
 585              		.file 2 "src/../h/../lib/hw.h"
 586              		.file 3 "src/../h/syscall_c.h"
 587              		.file 4 "src/../h/tcb.hpp"
 588              		.file 5 "src/../lib/console.h"
GAS LISTING /tmp/ccj3j8ko.s 			page 13

