GAS LISTING /tmp/ccHV6P9G.s 			page 1


   1              		.file	"tcb.cpp"
   2              		.option pic
   3              		.option norelax
   4              		.text
   5              	.Ltext0:
   6              		.align	2
   7              		.globl	_ZN3CCB13threadWrapperEv
   9              	_ZN3CCB13threadWrapperEv:
  10              	.LFB49:
  11              		.file 1 "src/tcb.cpp"
   1:src/tcb.cpp   **** //
   2:src/tcb.cpp   **** // Created by os on 6/24/22.
   3:src/tcb.cpp   **** //
   4:src/tcb.cpp   **** #include "../h/tcb.hpp"
   5:src/tcb.cpp   **** #include "../h/Riscv.hpp"
   6:src/tcb.cpp   **** 
   7:src/tcb.cpp   **** CCB *CCB::running = nullptr;
   8:src/tcb.cpp   **** 
   9:src/tcb.cpp   **** CCB *CCB::createCoroutine(Body body, void* args)
  10:src/tcb.cpp   **** {
  11:src/tcb.cpp   ****     return new CCB(body, args);
  12:src/tcb.cpp   **** }
  13:src/tcb.cpp   **** 
  14:src/tcb.cpp   **** void CCB::yield()
  15:src/tcb.cpp   **** {
  16:src/tcb.cpp   ****     Riscv::pushRegisters();
  17:src/tcb.cpp   **** 
  18:src/tcb.cpp   ****     CCB::dispatch();
  19:src/tcb.cpp   **** 
  20:src/tcb.cpp   ****     Riscv::popRegisters();
  21:src/tcb.cpp   **** }
  22:src/tcb.cpp   **** 
  23:src/tcb.cpp   **** void CCB::dispatch()
  24:src/tcb.cpp   **** {
  25:src/tcb.cpp   ****     CCB *old = running;
  26:src/tcb.cpp   ****     if (!old->isFinished() && !old->isBlocked()) { Scheduler::put(old); }
  27:src/tcb.cpp   ****     running = Scheduler::get();
  28:src/tcb.cpp   ****     CCB::contextSwitch(&old->context, &running->context);
  29:src/tcb.cpp   **** }
  30:src/tcb.cpp   **** 
  31:src/tcb.cpp   **** void CCB::threadWrapper() {
  12              		.loc 1 31 27
  13              		.cfi_startproc
  14 0000 130101FE 		addi	sp,sp,-32
  15              		.cfi_def_cfa_offset 32
  16 0004 233C1100 		sd	ra,24(sp)
  17 0008 23388100 		sd	s0,16(sp)
  18 000c 23349100 		sd	s1,8(sp)
  19              		.cfi_offset 1, -8
  20              		.cfi_offset 8, -16
  21              		.cfi_offset 9, -24
  22 0010 13040102 		addi	s0,sp,32
  23              		.cfi_def_cfa 8, 0
  32:src/tcb.cpp   ****     Riscv::popSppSpie();
  24              		.loc 1 32 5
  25              		.loc 1 32 22 is_stmt 0
  26 0014 97000000 		call	_ZN5Riscv10popSppSpieEv@plt
GAS LISTING /tmp/ccHV6P9G.s 			page 2


  26      E7800000 
  27              	.LVL0:
  33:src/tcb.cpp   ****     running->body(running->args);
  28              		.loc 1 33 5 is_stmt 1
  29              		.loc 1 33 14 is_stmt 0
  30 001c 97040000 		lla	s1,.LANCHOR0
  30      93840400 
  31 0024 83B70400 		ld	a5,0(s1)
  32 0028 03B70700 		ld	a4,0(a5)
  33              		.loc 1 33 18
  34 002c 03B50701 		ld	a0,16(a5)
  35 0030 E7000700 		jalr	a4
  36              	.LVL1:
  34:src/tcb.cpp   ****     running->setFinished(true);
  37              		.loc 1 34 5 is_stmt 1
  38              		.loc 1 34 25 is_stmt 0
  39 0034 83B70400 		ld	a5,0(s1)
  40              	.LVL2:
  41              	.LBB12:
  42              	.LBB13:
  43              		.file 2 "src/../h/tcb.hpp"
   1:src/../h/tcb.hpp **** //
   2:src/../h/tcb.hpp **** // Created by os on 6/24/22.
   3:src/../h/tcb.hpp **** //
   4:src/../h/tcb.hpp **** 
   5:src/../h/tcb.hpp **** #ifndef PROJECT_V33333333333_CCB_HPP
   6:src/../h/tcb.hpp **** #define PROJECT_V33333333333_CCB_HPP
   7:src/../h/tcb.hpp **** #include "../lib/hw.h"
   8:src/../h/tcb.hpp **** #include "Scheduler.hpp"
   9:src/../h/tcb.hpp **** #include "syscall_c.h"
  10:src/../h/tcb.hpp **** #include "MemoryAllocator.hpp"
  11:src/../h/tcb.hpp **** #include "Riscv.hpp"
  12:src/../h/tcb.hpp **** 
  13:src/../h/tcb.hpp **** // Coroutine Control Block
  14:src/../h/tcb.hpp **** class CCB
  15:src/../h/tcb.hpp **** {
  16:src/../h/tcb.hpp **** public:
  17:src/../h/tcb.hpp ****     ~CCB() { delete[] stack; }
  18:src/../h/tcb.hpp ****     void* operator new(size_t size) {
  19:src/../h/tcb.hpp ****         return MemoryAllocator::allocateB(size);
  20:src/../h/tcb.hpp ****     }
  21:src/../h/tcb.hpp ****     void operator delete(void* address) {
  22:src/../h/tcb.hpp ****         MemoryAllocator::free(address);
  23:src/../h/tcb.hpp ****     }
  24:src/../h/tcb.hpp **** 
  25:src/../h/tcb.hpp ****     bool isFinished() const { return finished; }
  26:src/../h/tcb.hpp ****     bool isBlocked() const { return blocked; }
  27:src/../h/tcb.hpp ****     void setFinished(bool value) { finished = value;}
  44              		.loc 2 27 36 is_stmt 1
  45              		.loc 2 27 45 is_stmt 0
  46 0038 13071000 		li	a4,1
  47 003c 2384E702 		sb	a4,40(a5)
  48              	.LVL3:
  49              	.LBE13:
  50              	.LBE12:
  35:src/tcb.cpp   ****     thread_dispatch();
  51              		.loc 1 35 5 is_stmt 1
GAS LISTING /tmp/ccHV6P9G.s 			page 3


  52              		.loc 1 35 20 is_stmt 0
  53 0040 97000000 		call	_Z15thread_dispatchv@plt
  53      E7800000 
  54              	.LVL4:
  36:src/tcb.cpp   **** }...
  55              		.loc 1 36 1
  56 0048 83308101 		ld	ra,24(sp)
  57              		.cfi_restore 1
  58 004c 03340101 		ld	s0,16(sp)
  59              		.cfi_restore 8
  60              		.cfi_def_cfa 2, 32
  61 0050 83348100 		ld	s1,8(sp)
  62              		.cfi_restore 9
  63 0054 13010102 		addi	sp,sp,32
  64              		.cfi_def_cfa_offset 0
  65 0058 67800000 		jr	ra
  66              		.cfi_endproc
  67              	.LFE49:
  69              		.align	2
  70              		.globl	_ZN3CCB15createCoroutineEPFvPvES0_
  72              	_ZN3CCB15createCoroutineEPFvPvES0_:
  73              	.LFB46:
  10:src/tcb.cpp   **** {
  74              		.loc 1 10 1 is_stmt 1
  75              		.cfi_startproc
  76              		.cfi_personality 0x9b,DW.ref.__gxx_personality_v0
  77              		.cfi_lsda 0x1b,.LLSDA46
  78              	.LVL5:
  79 005c 130101FD 		addi	sp,sp,-48
  80              		.cfi_def_cfa_offset 48
  81 0060 23341102 		sd	ra,40(sp)
  82 0064 23308102 		sd	s0,32(sp)
  83 0068 233C9100 		sd	s1,24(sp)
  84 006c 23382101 		sd	s2,16(sp)
  85 0070 23343101 		sd	s3,8(sp)
  86              		.cfi_offset 1, -8
  87              		.cfi_offset 8, -16
  88              		.cfi_offset 9, -24
  89              		.cfi_offset 18, -32
  90              		.cfi_offset 19, -40
  91 0074 13040103 		addi	s0,sp,48
  92              		.cfi_def_cfa 8, 0
  93 0078 13090500 		mv	s2,a0
  94 007c 93890500 		mv	s3,a1
  11:src/tcb.cpp   ****     return new CCB(body, args);
  95              		.loc 1 11 5
  96              	.LVL6:
  97              	.LBB21:
  98              	.LBB22:
  19:src/../h/tcb.hpp ****     }
  99              		.loc 2 19 9
  19:src/../h/tcb.hpp ****     }
 100              		.loc 2 19 42 is_stmt 0
 101 0080 13050003 		li	a0,48
 102              	.LVL7:
 103              	.LEHB0:
 104 0084 97000000 		call	_ZN15MemoryAllocator9allocateBEm@plt
GAS LISTING /tmp/ccHV6P9G.s 			page 4


 104      E7800000 
 105              	.LVL8:
 106              	.LEHE0:
 107 008c 93040500 		mv	s1,a0
 108              	.LVL9:
 109              	.LBE22:
 110              	.LBE21:
 111              	.LBB23:
 112              	.LBB24:
  28:src/../h/tcb.hpp ****     void setBlocked(bool value) { blocked = value; }
  29:src/../h/tcb.hpp ****     void setStarted(bool value) { started = value; }
  30:src/../h/tcb.hpp ****     bool getFinished() {return finished;}
  31:src/../h/tcb.hpp ****     using Body = void (*)(void*);
  32:src/../h/tcb.hpp ****     static CCB *createCoroutine(Body body, void* args);
  33:src/../h/tcb.hpp ****     static void yield();
  34:src/../h/tcb.hpp ****     static void dispatch();
  35:src/../h/tcb.hpp ****     static void threadWrapper();
  36:src/../h/tcb.hpp **** 
  37:src/../h/tcb.hpp ****     static CCB *running;
  38:src/../h/tcb.hpp **** 
  39:src/../h/tcb.hpp **** private:
  40:src/../h/tcb.hpp ****     explicit CCB(Body body, void* arg) :
  41:src/../h/tcb.hpp ****             body(body),
  42:src/../h/tcb.hpp ****             stack(body != nullptr ? (uint64*) MemoryAllocator::allocateB(sizeof(uint64) * STACK_SIZ
  43:src/../h/tcb.hpp ****             args(arg),
  44:src/../h/tcb.hpp ****             context({(uint64) &threadWrapper,
  45:src/../h/tcb.hpp ****                      stack != nullptr ? (uint64) &stack[STACK_SIZE] : 0
  46:src/../h/tcb.hpp ****                     }),
  47:src/../h/tcb.hpp ****             finished(false),
  48:src/../h/tcb.hpp ****             blocked(false),
  49:src/../h/tcb.hpp ****             started(false)
 113              		.loc 2 49 26
 114 0090 23302501 		sd	s2,0(a0)
  42:src/../h/tcb.hpp ****             args(arg),
 115              		.loc 2 42 35
 116 0094 630A0900 		beqz	s2,.L7
  42:src/../h/tcb.hpp ****             args(arg),
 117              		.loc 2 42 73
 118 0098 37250000 		li	a0,8192
 119              	.LEHB1:
 120 009c 97000000 		call	_ZN15MemoryAllocator9allocateBEm@plt
 120      E7800000 
 121              	.LVL10:
 122              	.LEHE1:
 123 00a4 6F008000 		j	.L4
 124              	.L7:
  42:src/../h/tcb.hpp ****             args(arg),
 125              		.loc 2 42 35
 126 00a8 13050000 		li	a0,0
 127              	.L4:
 128              		.loc 2 49 26
 129 00ac 23B4A400 		sd	a0,8(s1)
 130 00b0 23B83401 		sd	s3,16(s1)
 131 00b4 97070000 		lla	a5,_ZN3CCB13threadWrapperEv
 131      93870700 
 132 00bc 23BCF400 		sd	a5,24(s1)
  45:src/../h/tcb.hpp ****                     }),
GAS LISTING /tmp/ccHV6P9G.s 			page 5


 133              		.loc 2 45 39
 134 00c0 630E0502 		beqz	a0,.L8
  45:src/../h/tcb.hpp ****                     }),
 135              		.loc 2 45 50
 136 00c4 B7270000 		li	a5,8192
 137 00c8 3305F500 		add	a0,a0,a5
 138              	.L5:
 139              		.loc 2 49 26
 140 00cc 23B0A402 		sd	a0,32(s1)
 141 00d0 23840402 		sb	zero,40(s1)
 142 00d4 A3840402 		sb	zero,41(s1)
 143 00d8 23850402 		sb	zero,42(s1)
 144              	.LVL11:
 145              	.LBE24:
 146              	.LBE23:
  12:src/tcb.cpp   **** }
 147              		.loc 1 12 1
 148 00dc 13850400 		mv	a0,s1
 149 00e0 83308102 		ld	ra,40(sp)
 150              		.cfi_remember_state
 151              		.cfi_restore 1
 152 00e4 03340102 		ld	s0,32(sp)
 153              		.cfi_restore 8
 154              		.cfi_def_cfa 2, 48
 155 00e8 83348101 		ld	s1,24(sp)
 156              		.cfi_restore 9
 157 00ec 03390101 		ld	s2,16(sp)
 158              		.cfi_restore 18
 159              	.LVL12:
 160 00f0 83398100 		ld	s3,8(sp)
 161              		.cfi_restore 19
 162              	.LVL13:
 163 00f4 13010103 		addi	sp,sp,48
 164              		.cfi_def_cfa_offset 0
 165 00f8 67800000 		jr	ra
 166              	.LVL14:
 167              	.L8:
 168              		.cfi_restore_state
 169              	.LBB26:
 170              	.LBB25:
  45:src/../h/tcb.hpp ****                     }),
 171              		.loc 2 45 39
 172 00fc 13050000 		li	a0,0
 173 0100 6FF0DFFC 		j	.L5
 174              	.L9:
 175 0104 13090500 		mv	s2,a0
 176              	.LVL15:
 177              	.LBE25:
 178              	.LBE26:
 179              	.LBB27:
 180              	.LBB28:
  22:src/../h/tcb.hpp ****     }
 181              		.loc 2 22 9 is_stmt 1
  22:src/../h/tcb.hpp ****     }
 182              		.loc 2 22 30 is_stmt 0
 183 0108 13850400 		mv	a0,s1
 184 010c 97000000 		call	_ZN15MemoryAllocator4freeEPv@plt
GAS LISTING /tmp/ccHV6P9G.s 			page 6


 184      E7800000 
 185              	.LVL16:
 186 0114 13050900 		mv	a0,s2
 187              	.LEHB2:
 188 0118 97000000 		call	_Unwind_Resume@plt
 188      E7800000 
 189              	.LVL17:
 190              	.LEHE2:
 191              	.LBE28:
 192              	.LBE27:
 193              		.cfi_endproc
 194              	.LFE46:
 195              		.globl	__gxx_personality_v0
 196              		.section	.gcc_except_table,"a",@progbits
 197              	.LLSDA46:
 198 0000 FF       		.byte	0xff
 199 0001 FF       		.byte	0xff
 200 0002 03       		.byte	0x3
 201 0003 27       		.byte	0x27
 202 0004 00000000 		.4byte	.LEHB0-.LFB46
 203 0008 00000000 		.4byte	.LEHE0-.LEHB0
 204 000c 00000000 		.4byte	0
 205 0010 00       		.byte	0
 206 0011 00000000 		.4byte	.LEHB1-.LFB46
 207 0015 00000000 		.4byte	.LEHE1-.LEHB1
 208 0019 00000000 		.4byte	.L9-.LFB46
 209 001d 00       		.byte	0
 210 001e 00000000 		.4byte	.LEHB2-.LFB46
 211 0022 00000000 		.4byte	.LEHE2-.LEHB2
 212 0026 00000000 		.4byte	0
 213 002a 00       		.byte	0
 214              		.text
 216              		.align	2
 217              		.globl	_ZN3CCB8dispatchEv
 219              	_ZN3CCB8dispatchEv:
 220              	.LFB48:
  24:src/tcb.cpp   **** {
 221              		.loc 1 24 1 is_stmt 1
 222              		.cfi_startproc
 223 0120 130101FE 		addi	sp,sp,-32
 224              		.cfi_def_cfa_offset 32
 225 0124 233C1100 		sd	ra,24(sp)
 226 0128 23388100 		sd	s0,16(sp)
 227 012c 23349100 		sd	s1,8(sp)
 228              		.cfi_offset 1, -8
 229              		.cfi_offset 8, -16
 230              		.cfi_offset 9, -24
 231 0130 13040102 		addi	s0,sp,32
 232              		.cfi_def_cfa 8, 0
  25:src/tcb.cpp   ****     CCB *old = running;
 233              		.loc 1 25 5
  25:src/tcb.cpp   ****     CCB *old = running;
 234              		.loc 1 25 10 is_stmt 0
 235 0134 97040000 		ld	s1,.LANCHOR0
 235      83B40400 
 236              	.LVL18:
  26:src/tcb.cpp   ****     if (!old->isFinished() && !old->isBlocked()) { Scheduler::put(old); }
GAS LISTING /tmp/ccHV6P9G.s 			page 7


 237              		.loc 1 26 5 is_stmt 1
 238              	.LBB29:
 239              	.LBB30:
  25:src/../h/tcb.hpp ****     bool isBlocked() const { return blocked; }
 240              		.loc 2 25 31
  25:src/../h/tcb.hpp ****     bool isBlocked() const { return blocked; }
 241              		.loc 2 25 38 is_stmt 0
 242 013c 83C78402 		lbu	a5,40(s1)
 243              	.LVL19:
 244              	.LBE30:
 245              	.LBE29:
  26:src/tcb.cpp   ****     if (!old->isFinished() && !old->isBlocked()) { Scheduler::put(old); }
 246              		.loc 1 26 28
 247 0140 63960700 		bnez	a5,.L13
 248              	.LVL20:
 249              	.LBB31:
 250              	.LBB32:
  26:src/../h/tcb.hpp ****     void setFinished(bool value) { finished = value;}
 251              		.loc 2 26 30 is_stmt 1
  26:src/../h/tcb.hpp ****     void setFinished(bool value) { finished = value;}
 252              		.loc 2 26 37 is_stmt 0
 253 0144 83C79402 		lbu	a5,41(s1)
 254              	.LVL21:
 255              	.LBE32:
 256              	.LBE31:
  26:src/tcb.cpp   ****     if (!old->isFinished() && !old->isBlocked()) { Scheduler::put(old); }
 257              		.loc 1 26 28
 258 0148 638C0702 		beqz	a5,.L15
 259              	.L13:
  27:src/tcb.cpp   ****     running = Scheduler::get();
 260              		.loc 1 27 5 is_stmt 1
  27:src/tcb.cpp   ****     running = Scheduler::get();
 261              		.loc 1 27 29 is_stmt 0
 262 014c 97000000 		call	_ZN9Scheduler3getEv@plt
 262      E7800000 
 263              	.LVL22:
  27:src/tcb.cpp   ****     running = Scheduler::get();
 264              		.loc 1 27 13
 265 0154 97070000 		sd	a0,.LANCHOR0,a5
 265      23B0A700 
  28:src/tcb.cpp   ****     CCB::contextSwitch(&old->context, &running->context);
 266              		.loc 1 28 5 is_stmt 1
  28:src/tcb.cpp   ****     CCB::contextSwitch(&old->context, &running->context);
 267              		.loc 1 28 23 is_stmt 0
 268 015c 93058501 		addi	a1,a0,24
 269 0160 13858401 		addi	a0,s1,24
 270 0164 97000000 		call	_ZN3CCB13contextSwitchEPNS_7ContextES1_@plt
 270      E7800000 
 271              	.LVL23:
  29:src/tcb.cpp   **** }
 272              		.loc 1 29 1
 273 016c 83308101 		ld	ra,24(sp)
 274              		.cfi_remember_state
 275              		.cfi_restore 1
 276 0170 03340101 		ld	s0,16(sp)
 277              		.cfi_restore 8
 278              		.cfi_def_cfa 2, 32
GAS LISTING /tmp/ccHV6P9G.s 			page 8


 279 0174 83348100 		ld	s1,8(sp)
 280              		.cfi_restore 9
 281              	.LVL24:
 282 0178 13010102 		addi	sp,sp,32
 283              		.cfi_def_cfa_offset 0
 284 017c 67800000 		jr	ra
 285              	.LVL25:
 286              	.L15:
 287              		.cfi_restore_state
  26:src/tcb.cpp   ****     if (!old->isFinished() && !old->isBlocked()) { Scheduler::put(old); }
 288              		.loc 1 26 52 is_stmt 1
  26:src/tcb.cpp   ****     if (!old->isFinished() && !old->isBlocked()) { Scheduler::put(old); }
 289              		.loc 1 26 66 is_stmt 0
 290 0180 13850400 		mv	a0,s1
 291 0184 97000000 		call	_ZN9Scheduler3putEP3CCB@plt
 291      E7800000 
 292              	.LVL26:
 293 018c 6FF01FFC 		j	.L13
 294              		.cfi_endproc
 295              	.LFE48:
 297              		.align	2
 298              		.globl	_ZN3CCB5yieldEv
 300              	_ZN3CCB5yieldEv:
 301              	.LFB47:
  15:src/tcb.cpp   **** {
 302              		.loc 1 15 1 is_stmt 1
 303              		.cfi_startproc
 304 0190 130101FF 		addi	sp,sp,-16
 305              		.cfi_def_cfa_offset 16
 306 0194 23341100 		sd	ra,8(sp)
 307 0198 23308100 		sd	s0,0(sp)
 308              		.cfi_offset 1, -8
 309              		.cfi_offset 8, -16
 310 019c 13040101 		addi	s0,sp,16
 311              		.cfi_def_cfa 8, 0
  16:src/tcb.cpp   ****     Riscv::pushRegisters();
 312              		.loc 1 16 5
  16:src/tcb.cpp   ****     Riscv::pushRegisters();
 313              		.loc 1 16 25 is_stmt 0
 314 01a0 97000000 		call	_ZN5Riscv13pushRegistersEv@plt
 314      E7800000 
 315              	.LVL27:
  18:src/tcb.cpp   ****     CCB::dispatch();
 316              		.loc 1 18 5 is_stmt 1
  18:src/tcb.cpp   ****     CCB::dispatch();
 317              		.loc 1 18 18 is_stmt 0
 318 01a8 97000000 		call	_ZN3CCB8dispatchEv
 318      E7800000 
 319              	.LVL28:
  20:src/tcb.cpp   ****     Riscv::popRegisters();
 320              		.loc 1 20 5 is_stmt 1
  20:src/tcb.cpp   ****     Riscv::popRegisters();
 321              		.loc 1 20 24 is_stmt 0
 322 01b0 97000000 		call	_ZN5Riscv12popRegistersEv@plt
 322      E7800000 
 323              	.LVL29:
  21:src/tcb.cpp   **** }
GAS LISTING /tmp/ccHV6P9G.s 			page 9


 324              		.loc 1 21 1
 325 01b8 83308100 		ld	ra,8(sp)
 326              		.cfi_restore 1
 327 01bc 03340100 		ld	s0,0(sp)
 328              		.cfi_restore 8
 329              		.cfi_def_cfa 2, 16
 330 01c0 13010101 		addi	sp,sp,16
 331              		.cfi_def_cfa_offset 0
 332 01c4 67800000 		jr	ra
 333              		.cfi_endproc
 334              	.LFE47:
 336              		.globl	_ZN3CCB7runningE
 337              		.bss
 338              		.align	3
 339              		.set	.LANCHOR0,. + 0
 342              	_ZN3CCB7runningE:
 343 0000 00000000 		.zero	8
 343      00000000 
 344              		.text
 345              	.Letext0:
 346              		.file 3 "src/../h/../lib/hw.h"
 347              		.file 4 "src/../h/MemoryAllocator.hpp"
 348              		.file 5 "src/../h/Scheduler.hpp"
 349              		.file 6 "src/../h/Riscv.hpp"
 350              		.file 7 "src/../h/syscall_c.h"
 2941              		.align	3
 2944              	DW.ref.__gxx_personality_v0:
 2945 0000 00000000 		.dword	__gxx_personality_v0
 2945      00000000 
 2946              		.ident	"GCC: (Ubuntu 9.4.0-1ubuntu1~20.04) 9.4.0"
 2947              		.section	.note.GNU-stack,"",@progbits
GAS LISTING /tmp/ccHV6P9G.s 			page 10


DEFINED SYMBOLS
                            *ABS*:0000000000000000 tcb.cpp
     /tmp/ccHV6P9G.s:9      .text:0000000000000000 _ZN3CCB13threadWrapperEv
     /tmp/ccHV6P9G.s:13     .text:0000000000000000 .L0 
     /tmp/ccHV6P9G.s:14     .text:0000000000000000 .L0 
     /tmp/ccHV6P9G.s:15     .text:0000000000000004 .L0 
     /tmp/ccHV6P9G.s:19     .text:0000000000000010 .L0 
     /tmp/ccHV6P9G.s:20     .text:0000000000000010 .L0 
     /tmp/ccHV6P9G.s:21     .text:0000000000000010 .L0 
     /tmp/ccHV6P9G.s:23     .text:0000000000000014 .L0 
     /tmp/ccHV6P9G.s:25     .text:0000000000000014 .L0 
     /tmp/ccHV6P9G.s:26     .text:0000000000000014 .L0 
     /tmp/ccHV6P9G.s:29     .text:000000000000001c .L0 
     /tmp/ccHV6P9G.s:30     .text:000000000000001c .L0 
     /tmp/ccHV6P9G.s:34     .text:000000000000002c .L0 
     /tmp/ccHV6P9G.s:38     .text:0000000000000034 .L0 
     /tmp/ccHV6P9G.s:39     .text:0000000000000034 .L0 
     /tmp/ccHV6P9G.s:45     .text:0000000000000038 .L0 
     /tmp/ccHV6P9G.s:46     .text:0000000000000038 .L0 
     /tmp/ccHV6P9G.s:52     .text:0000000000000040 .L0 
     /tmp/ccHV6P9G.s:53     .text:0000000000000040 .L0 
     /tmp/ccHV6P9G.s:56     .text:0000000000000048 .L0 
     /tmp/ccHV6P9G.s:57     .text:000000000000004c .L0 
     /tmp/ccHV6P9G.s:59     .text:0000000000000050 .L0 
     /tmp/ccHV6P9G.s:60     .text:0000000000000050 .L0 
     /tmp/ccHV6P9G.s:62     .text:0000000000000054 .L0 
     /tmp/ccHV6P9G.s:64     .text:0000000000000058 .L0 
     /tmp/ccHV6P9G.s:66     .text:000000000000005c .L0 
     /tmp/ccHV6P9G.s:72     .text:000000000000005c _ZN3CCB15createCoroutineEPFvPvES0_
     /tmp/ccHV6P9G.s:75     .text:000000000000005c .L0 
     /tmp/ccHV6P9G.s:2944   .data.rel.local.DW.ref.__gxx_personality_v0:0000000000000000 DW.ref.__gxx_personality_v0
     /tmp/ccHV6P9G.s:79     .text:000000000000005c .L0 
     /tmp/ccHV6P9G.s:80     .text:0000000000000060 .L0 
     /tmp/ccHV6P9G.s:86     .text:0000000000000074 .L0 
     /tmp/ccHV6P9G.s:87     .text:0000000000000074 .L0 
     /tmp/ccHV6P9G.s:88     .text:0000000000000074 .L0 
     /tmp/ccHV6P9G.s:89     .text:0000000000000074 .L0 
     /tmp/ccHV6P9G.s:90     .text:0000000000000074 .L0 
     /tmp/ccHV6P9G.s:92     .text:0000000000000078 .L0 
     /tmp/ccHV6P9G.s:99     .text:0000000000000080 .L0 
     /tmp/ccHV6P9G.s:100    .text:0000000000000080 .L0 
     /tmp/ccHV6P9G.s:101    .text:0000000000000080 .L0 
     /tmp/ccHV6P9G.s:114    .text:0000000000000090 .L0 
     /tmp/ccHV6P9G.s:116    .text:0000000000000094 .L0 
     /tmp/ccHV6P9G.s:118    .text:0000000000000098 .L0 
     /tmp/ccHV6P9G.s:126    .text:00000000000000a8 .L0 
     /tmp/ccHV6P9G.s:129    .text:00000000000000ac .L0 
     /tmp/ccHV6P9G.s:134    .text:00000000000000c0 .L0 
     /tmp/ccHV6P9G.s:136    .text:00000000000000c4 .L0 
     /tmp/ccHV6P9G.s:140    .text:00000000000000cc .L0 
     /tmp/ccHV6P9G.s:148    .text:00000000000000dc .L0 
     /tmp/ccHV6P9G.s:150    .text:00000000000000e4 .L0 
     /tmp/ccHV6P9G.s:151    .text:00000000000000e4 .L0 
     /tmp/ccHV6P9G.s:153    .text:00000000000000e8 .L0 
     /tmp/ccHV6P9G.s:154    .text:00000000000000e8 .L0 
     /tmp/ccHV6P9G.s:156    .text:00000000000000ec .L0 
     /tmp/ccHV6P9G.s:158    .text:00000000000000f0 .L0 
GAS LISTING /tmp/ccHV6P9G.s 			page 11


     /tmp/ccHV6P9G.s:161    .text:00000000000000f4 .L0 
     /tmp/ccHV6P9G.s:164    .text:00000000000000f8 .L0 
     /tmp/ccHV6P9G.s:168    .text:00000000000000fc .L0 
     /tmp/ccHV6P9G.s:172    .text:00000000000000fc .L0 
     /tmp/ccHV6P9G.s:182    .text:0000000000000108 .L0 
     /tmp/ccHV6P9G.s:183    .text:0000000000000108 .L0 
     /tmp/ccHV6P9G.s:193    .text:0000000000000120 .L0 
     /tmp/ccHV6P9G.s:219    .text:0000000000000120 _ZN3CCB8dispatchEv
     /tmp/ccHV6P9G.s:222    .text:0000000000000120 .L0 
     /tmp/ccHV6P9G.s:223    .text:0000000000000120 .L0 
     /tmp/ccHV6P9G.s:224    .text:0000000000000124 .L0 
     /tmp/ccHV6P9G.s:228    .text:0000000000000130 .L0 
     /tmp/ccHV6P9G.s:229    .text:0000000000000130 .L0 
     /tmp/ccHV6P9G.s:230    .text:0000000000000130 .L0 
     /tmp/ccHV6P9G.s:232    .text:0000000000000134 .L0 
     /tmp/ccHV6P9G.s:234    .text:0000000000000134 .L0 
     /tmp/ccHV6P9G.s:235    .text:0000000000000134 .L0 
     /tmp/ccHV6P9G.s:240    .text:000000000000013c .L0 
     /tmp/ccHV6P9G.s:241    .text:000000000000013c .L0 
     /tmp/ccHV6P9G.s:242    .text:000000000000013c .L0 
     /tmp/ccHV6P9G.s:247    .text:0000000000000140 .L0 
     /tmp/ccHV6P9G.s:252    .text:0000000000000144 .L0 
     /tmp/ccHV6P9G.s:253    .text:0000000000000144 .L0 
     /tmp/ccHV6P9G.s:258    .text:0000000000000148 .L0 
     /tmp/ccHV6P9G.s:261    .text:000000000000014c .L0 
     /tmp/ccHV6P9G.s:262    .text:000000000000014c .L0 
     /tmp/ccHV6P9G.s:265    .text:0000000000000154 .L0 
     /tmp/ccHV6P9G.s:267    .text:000000000000015c .L0 
     /tmp/ccHV6P9G.s:268    .text:000000000000015c .L0 
     /tmp/ccHV6P9G.s:273    .text:000000000000016c .L0 
     /tmp/ccHV6P9G.s:274    .text:0000000000000170 .L0 
     /tmp/ccHV6P9G.s:275    .text:0000000000000170 .L0 
     /tmp/ccHV6P9G.s:277    .text:0000000000000174 .L0 
     /tmp/ccHV6P9G.s:278    .text:0000000000000174 .L0 
     /tmp/ccHV6P9G.s:280    .text:0000000000000178 .L0 
     /tmp/ccHV6P9G.s:283    .text:000000000000017c .L0 
     /tmp/ccHV6P9G.s:287    .text:0000000000000180 .L0 
     /tmp/ccHV6P9G.s:289    .text:0000000000000180 .L0 
     /tmp/ccHV6P9G.s:290    .text:0000000000000180 .L0 
     /tmp/ccHV6P9G.s:294    .text:0000000000000190 .L0 
     /tmp/ccHV6P9G.s:300    .text:0000000000000190 _ZN3CCB5yieldEv
     /tmp/ccHV6P9G.s:303    .text:0000000000000190 .L0 
     /tmp/ccHV6P9G.s:304    .text:0000000000000190 .L0 
     /tmp/ccHV6P9G.s:305    .text:0000000000000194 .L0 
     /tmp/ccHV6P9G.s:308    .text:000000000000019c .L0 
     /tmp/ccHV6P9G.s:309    .text:000000000000019c .L0 
     /tmp/ccHV6P9G.s:311    .text:00000000000001a0 .L0 
     /tmp/ccHV6P9G.s:313    .text:00000000000001a0 .L0 
     /tmp/ccHV6P9G.s:314    .text:00000000000001a0 .L0 
     /tmp/ccHV6P9G.s:317    .text:00000000000001a8 .L0 
     /tmp/ccHV6P9G.s:318    .text:00000000000001a8 .L0 
     /tmp/ccHV6P9G.s:321    .text:00000000000001b0 .L0 
     /tmp/ccHV6P9G.s:322    .text:00000000000001b0 .L0 
     /tmp/ccHV6P9G.s:325    .text:00000000000001b8 .L0 
     /tmp/ccHV6P9G.s:326    .text:00000000000001bc .L0 
     /tmp/ccHV6P9G.s:328    .text:00000000000001c0 .L0 
     /tmp/ccHV6P9G.s:329    .text:00000000000001c0 .L0 
GAS LISTING /tmp/ccHV6P9G.s 			page 12


     /tmp/ccHV6P9G.s:331    .text:00000000000001c4 .L0 
     /tmp/ccHV6P9G.s:333    .text:00000000000001c8 .L0 
     /tmp/ccHV6P9G.s:342    .bss:0000000000000000 _ZN3CCB7runningE
     /tmp/ccHV6P9G.s:339    .bss:0000000000000000 .LANCHOR0
     /tmp/ccHV6P9G.s:351    .text:00000000000001c8 .L0 
     /tmp/ccHV6P9G.s:30     .text:000000000000001c .L0 
     /tmp/ccHV6P9G.s:131    .text:00000000000000b4 .L0 
     /tmp/ccHV6P9G.s:235    .text:0000000000000134 .L0 
     /tmp/ccHV6P9G.s:265    .text:0000000000000154 .L0 
     /tmp/ccHV6P9G.s:124    .text:00000000000000a8 .L7
     /tmp/ccHV6P9G.s:127    .text:00000000000000ac .L4
     /tmp/ccHV6P9G.s:167    .text:00000000000000fc .L8
     /tmp/ccHV6P9G.s:138    .text:00000000000000cc .L5
     /tmp/ccHV6P9G.s:259    .text:000000000000014c .L13
     /tmp/ccHV6P9G.s:286    .text:0000000000000180 .L15
     /tmp/ccHV6P9G.s:103    .text:0000000000000084 .LEHB0
     /tmp/ccHV6P9G.s:73     .text:000000000000005c .LFB46
     /tmp/ccHV6P9G.s:106    .text:000000000000008c .LEHE0
     /tmp/ccHV6P9G.s:119    .text:000000000000009c .LEHB1
     /tmp/ccHV6P9G.s:122    .text:00000000000000a4 .LEHE1
     /tmp/ccHV6P9G.s:174    .text:0000000000000104 .L9
     /tmp/ccHV6P9G.s:187    .text:0000000000000118 .LEHB2
     /tmp/ccHV6P9G.s:190    .text:0000000000000120 .LEHE2
     /tmp/ccHV6P9G.s:1520   .debug_abbrev:0000000000000000 .Ldebug_abbrev0
     /tmp/ccHV6P9G.s:2890   .debug_str:00000000000006f1 .LASF124
     /tmp/ccHV6P9G.s:2794   .debug_str:00000000000003ee .LASF125
     /tmp/ccHV6P9G.s:2824   .debug_str:00000000000004b9 .LASF126
     /tmp/ccHV6P9G.s:5      .text:0000000000000000 .Ltext0
     /tmp/ccHV6P9G.s:345    .text:00000000000001c8 .Letext0
     /tmp/ccHV6P9G.s:2656   .debug_line:0000000000000000 .Ldebug_line0
     /tmp/ccHV6P9G.s:2814   .debug_str:0000000000000484 .LASF0
     /tmp/ccHV6P9G.s:2834   .debug_str:000000000000051a .LASF1
     /tmp/ccHV6P9G.s:2796   .debug_str:00000000000003fa .LASF2
     /tmp/ccHV6P9G.s:2766   .debug_str:0000000000000311 .LASF4
     /tmp/ccHV6P9G.s:2872   .debug_str:000000000000064a .LASF3
     /tmp/ccHV6P9G.s:2682   .debug_str:0000000000000086 .LASF5
     /tmp/ccHV6P9G.s:2836   .debug_str:000000000000052d .LASF6
     /tmp/ccHV6P9G.s:2812   .debug_str:0000000000000471 .LASF7
     /tmp/ccHV6P9G.s:2908   .debug_str:0000000000000843 .LASF8
     /tmp/ccHV6P9G.s:2750   .debug_str:0000000000000292 .LASF9
     /tmp/ccHV6P9G.s:2848   .debug_str:0000000000000582 .LASF10
     /tmp/ccHV6P9G.s:2896   .debug_str:00000000000007d4 .LASF11
     /tmp/ccHV6P9G.s:2684   .debug_str:000000000000008d .LASF12
     /tmp/ccHV6P9G.s:2664   .debug_str:000000000000002a .LASF13
     /tmp/ccHV6P9G.s:2696   .debug_str:00000000000000f0 .LASF14
     /tmp/ccHV6P9G.s:2864   .debug_str:0000000000000601 .LASF15
     /tmp/ccHV6P9G.s:2712   .debug_str:0000000000000159 .LASF16
     /tmp/ccHV6P9G.s:2686   .debug_str:000000000000009d .LASF43
     /tmp/ccHV6P9G.s:2884   .debug_str:00000000000006b7 .LASF17
     /tmp/ccHV6P9G.s:2934   .debug_str:0000000000000914 .LASF18
     /tmp/ccHV6P9G.s:2922   .debug_str:00000000000008b2 .LASF19
     /tmp/ccHV6P9G.s:2808   .debug_str:0000000000000456 .LASF22
     /tmp/ccHV6P9G.s:2846   .debug_str:0000000000000578 .LASF20
     /tmp/ccHV6P9G.s:2916   .debug_str:000000000000088f .LASF21
     /tmp/ccHV6P9G.s:2724   .debug_str:00000000000001c6 .LASF24
     /tmp/ccHV6P9G.s:2828   .debug_str:0000000000000501 .LASF23
     /tmp/ccHV6P9G.s:2718   .debug_str:000000000000018d .LASF25
GAS LISTING /tmp/ccHV6P9G.s 			page 13


     /tmp/ccHV6P9G.s:2716   .debug_str:0000000000000183 .LASF26
     /tmp/ccHV6P9G.s:2930   .debug_str:00000000000008e7 .LASF27
     /tmp/ccHV6P9G.s:2736   .debug_str:0000000000000237 .LASF28
     /tmp/ccHV6P9G.s:2856   .debug_str:00000000000005af .LASF29
     /tmp/ccHV6P9G.s:2732   .debug_str:0000000000000218 .LASF33
     /tmp/ccHV6P9G.s:2902   .debug_str:00000000000007fb .LASF35
     /tmp/ccHV6P9G.s:2738   .debug_str:000000000000023c .LASF30
     /tmp/ccHV6P9G.s:2844   .debug_str:000000000000056e .LASF31
     /tmp/ccHV6P9G.s:2914   .debug_str:000000000000087b .LASF32
     /tmp/ccHV6P9G.s:2920   .debug_str:00000000000008a5 .LASF37
     /tmp/ccHV6P9G.s:2894   .debug_str:00000000000007c2 .LASF39
     /tmp/ccHV6P9G.s:2878   .debug_str:0000000000000676 .LASF34
     /tmp/ccHV6P9G.s:2820   .debug_str:00000000000004a1 .LASF36
     /tmp/ccHV6P9G.s:2748   .debug_str:0000000000000282 .LASF38
     /tmp/ccHV6P9G.s:2762   .debug_str:00000000000002f7 .LASF40
     /tmp/ccHV6P9G.s:2882   .debug_str:00000000000006a4 .LASF41
     /tmp/ccHV6P9G.s:2858   .debug_str:00000000000005cc .LASF42
     /tmp/ccHV6P9G.s:2760   .debug_str:00000000000002e3 .LASF127
     /tmp/ccHV6P9G.s:2826   .debug_str:00000000000004e9 .LASF128
     /tmp/ccHV6P9G.s:2670   .debug_str:000000000000004d .LASF129
     /tmp/ccHV6P9G.s:2720   .debug_str:00000000000001ad .LASF44
     /tmp/ccHV6P9G.s:2900   .debug_str:00000000000007f6 .LASF45
     /tmp/ccHV6P9G.s:2932   .debug_str:0000000000000908 .LASF46
     /tmp/ccHV6P9G.s:2674   .debug_str:000000000000005d .LASF47
     /tmp/ccHV6P9G.s:2892   .debug_str:00000000000007b5 .LASF48
     /tmp/ccHV6P9G.s:2838   .debug_str:0000000000000540 .LASF49
     /tmp/ccHV6P9G.s:2744   .debug_str:0000000000000263 .LASF51
     /tmp/ccHV6P9G.s:2668   .debug_str:0000000000000043 .LASF50
     /tmp/ccHV6P9G.s:2870   .debug_str:0000000000000635 .LASF52
     /tmp/ccHV6P9G.s:2798   .debug_str:0000000000000408 .LASF53
     /tmp/ccHV6P9G.s:2862   .debug_str:00000000000005ea .LASF54
     /tmp/ccHV6P9G.s:2768   .debug_str:0000000000000318 .LASF55
     /tmp/ccHV6P9G.s:2788   .debug_str:00000000000003aa .LASF56
     /tmp/ccHV6P9G.s:2704   .debug_str:0000000000000118 .LASF57
     /tmp/ccHV6P9G.s:2782   .debug_str:000000000000037b .LASF58
     /tmp/ccHV6P9G.s:2840   .debug_str:000000000000054b .LASF59
     /tmp/ccHV6P9G.s:2842   .debug_str:0000000000000557 .LASF60
     /tmp/ccHV6P9G.s:2912   .debug_str:000000000000086b .LASF61
     /tmp/ccHV6P9G.s:2888   .debug_str:00000000000006ce .LASF62
     /tmp/ccHV6P9G.s:2854   .debug_str:00000000000005aa .LASF130
     /tmp/ccHV6P9G.s:2866   .debug_str:0000000000000617 .LASF63
     /tmp/ccHV6P9G.s:2692   .debug_str:00000000000000d6 .LASF65
     /tmp/ccHV6P9G.s:2818   .debug_str:0000000000000498 .LASF64
     /tmp/ccHV6P9G.s:2874   .debug_str:000000000000065c .LASF66
     /tmp/ccHV6P9G.s:2786   .debug_str:000000000000039c .LASF67
     /tmp/ccHV6P9G.s:2688   .debug_str:00000000000000a9 .LASF68
     /tmp/ccHV6P9G.s:2830   .debug_str:000000000000050a .LASF131
     /tmp/ccHV6P9G.s:2800   .debug_str:0000000000000414 .LASF132
     /tmp/ccHV6P9G.s:2772   .debug_str:000000000000032c .LASF69
     /tmp/ccHV6P9G.s:2700   .debug_str:0000000000000102 .LASF70
     /tmp/ccHV6P9G.s:2822   .debug_str:00000000000004b4 .LASF71
     /tmp/ccHV6P9G.s:2776   .debug_str:000000000000033c .LASF72
     /tmp/ccHV6P9G.s:2770   .debug_str:0000000000000323 .LASF73
     /tmp/ccHV6P9G.s:2658   .debug_str:0000000000000000 .LASF74
     /tmp/ccHV6P9G.s:2832   .debug_str:0000000000000512 .LASF75
     /tmp/ccHV6P9G.s:2706   .debug_str:0000000000000123 .LASF76
     /tmp/ccHV6P9G.s:2780   .debug_str:0000000000000353 .LASF77
GAS LISTING /tmp/ccHV6P9G.s 			page 14


     /tmp/ccHV6P9G.s:2784   .debug_str:0000000000000391 .LASF133
     /tmp/ccHV6P9G.s:2698   .debug_str:00000000000000fc .LASF78
     /tmp/ccHV6P9G.s:2758   .debug_str:00000000000002d2 .LASF79
     /tmp/ccHV6P9G.s:2880   .debug_str:0000000000000686 .LASF80
     /tmp/ccHV6P9G.s:2722   .debug_str:00000000000001b5 .LASF81
     /tmp/ccHV6P9G.s:2806   .debug_str:0000000000000438 .LASF82
     /tmp/ccHV6P9G.s:2860   .debug_str:00000000000005df .LASF83
     /tmp/ccHV6P9G.s:2928   .debug_str:00000000000008cf .LASF84
     /tmp/ccHV6P9G.s:2678   .debug_str:0000000000000070 .LASF85
     /tmp/ccHV6P9G.s:2730   .debug_str:00000000000001fd .LASF86
     /tmp/ccHV6P9G.s:2740   .debug_str:0000000000000241 .LASF87
     /tmp/ccHV6P9G.s:2662   .debug_str:0000000000000010 .LASF88
     /tmp/ccHV6P9G.s:2666   .debug_str:000000000000003a .LASF89
     /tmp/ccHV6P9G.s:2734   .debug_str:0000000000000222 .LASF93
     /tmp/ccHV6P9G.s:2728   .debug_str:00000000000001f4 .LASF90
     /tmp/ccHV6P9G.s:2726   .debug_str:00000000000001df .LASF91
     /tmp/ccHV6P9G.s:2876   .debug_str:000000000000066f .LASF92
     /tmp/ccHV6P9G.s:2852   .debug_str:0000000000000597 .LASF94
     /tmp/ccHV6P9G.s:2904   .debug_str:0000000000000829 .LASF95
     /tmp/ccHV6P9G.s:2906   .debug_str:0000000000000830 .LASF96
     /tmp/ccHV6P9G.s:2746   .debug_str:000000000000027a .LASF97
     /tmp/ccHV6P9G.s:2714   .debug_str:000000000000016f .LASF98
     /tmp/ccHV6P9G.s:2660   .debug_str:0000000000000008 .LASF99
     /tmp/ccHV6P9G.s:2754   .debug_str:00000000000002b6 .LASF100
     /tmp/ccHV6P9G.s:2680   .debug_str:000000000000007e .LASF101
     /tmp/ccHV6P9G.s:2690   .debug_str:00000000000000c2 .LASF102
     /tmp/ccHV6P9G.s:2756   .debug_str:00000000000002ca .LASF103
     /tmp/ccHV6P9G.s:2710   .debug_str:0000000000000145 .LASF104
     /tmp/ccHV6P9G.s:2816   .debug_str:0000000000000491 .LASF105
     /tmp/ccHV6P9G.s:2924   .debug_str:00000000000008b7 .LASF106
     /tmp/ccHV6P9G.s:2676   .debug_str:0000000000000069 .LASF107
     /tmp/ccHV6P9G.s:2898   .debug_str:00000000000007e3 .LASF108
     /tmp/ccHV6P9G.s:2804   .debug_str:0000000000000432 .LASF109
     /tmp/ccHV6P9G.s:2886   .debug_str:00000000000006bc .LASF110
     /tmp/ccHV6P9G.s:2672   .debug_str:0000000000000057 .LASF111
     /tmp/ccHV6P9G.s:2936   .debug_str:0000000000000919 .LASF112
     /tmp/ccHV6P9G.s:2810   .debug_str:0000000000000466 .LASF113
     /tmp/ccHV6P9G.s:2868   .debug_str:000000000000061d .LASF114
     /tmp/ccHV6P9G.s:2774   .debug_str:0000000000000331 .LASF115
     /tmp/ccHV6P9G.s:2790   .debug_str:00000000000003c0 .LASF116
     /tmp/ccHV6P9G.s:2694   .debug_str:00000000000000e6 .LASF117
     /tmp/ccHV6P9G.s:2792   .debug_str:00000000000003d8 .LASF118
     /tmp/ccHV6P9G.s:2802   .debug_str:0000000000000428 .LASF119
     /tmp/ccHV6P9G.s:2752   .debug_str:00000000000002a0 .LASF120
     /tmp/ccHV6P9G.s:2918   .debug_str:0000000000000894 .LASF134
     /tmp/ccHV6P9G.s:10     .text:0000000000000000 .LFB49
     /tmp/ccHV6P9G.s:67     .text:000000000000005c .LFE49
     /tmp/ccHV6P9G.s:41     .text:0000000000000038 .LBB12
     /tmp/ccHV6P9G.s:50     .text:0000000000000040 .LBE12
     /tmp/ccHV6P9G.s:2490   .debug_loc:0000000000000000 .LLST0
     /tmp/ccHV6P9G.s:2498   .debug_loc:0000000000000024 .LLST1
     /tmp/ccHV6P9G.s:27     .text:000000000000001c .LVL0
     /tmp/ccHV6P9G.s:54     .text:0000000000000048 .LVL4
     /tmp/ccHV6P9G.s:220    .text:0000000000000120 .LFB48
     /tmp/ccHV6P9G.s:295    .text:0000000000000190 .LFE48
     /tmp/ccHV6P9G.s:2505   .debug_loc:0000000000000047 .LLST9
     /tmp/ccHV6P9G.s:238    .text:000000000000013c .LBB29
GAS LISTING /tmp/ccHV6P9G.s 			page 15


     /tmp/ccHV6P9G.s:245    .text:0000000000000140 .LBE29
     /tmp/ccHV6P9G.s:2516   .debug_loc:000000000000007d .LLST10
     /tmp/ccHV6P9G.s:249    .text:0000000000000144 .LBB31
     /tmp/ccHV6P9G.s:256    .text:0000000000000148 .LBE31
     /tmp/ccHV6P9G.s:2523   .debug_loc:00000000000000a0 .LLST11
     /tmp/ccHV6P9G.s:263    .text:0000000000000154 .LVL22
     /tmp/ccHV6P9G.s:271    .text:000000000000016c .LVL23
     /tmp/ccHV6P9G.s:292    .text:000000000000018c .LVL26
     /tmp/ccHV6P9G.s:301    .text:0000000000000190 .LFB47
     /tmp/ccHV6P9G.s:334    .text:00000000000001c8 .LFE47
     /tmp/ccHV6P9G.s:315    .text:00000000000001a8 .LVL27
     /tmp/ccHV6P9G.s:319    .text:00000000000001b0 .LVL28
     /tmp/ccHV6P9G.s:323    .text:00000000000001b8 .LVL29
     /tmp/ccHV6P9G.s:194    .text:0000000000000120 .LFE46
     /tmp/ccHV6P9G.s:2530   .debug_loc:00000000000000c3 .LLST2
     /tmp/ccHV6P9G.s:2559   .debug_loc:0000000000000138 .LLST3
     /tmp/ccHV6P9G.s:97     .text:0000000000000080 .LBB21
     /tmp/ccHV6P9G.s:110    .text:0000000000000090 .LBE21
     /tmp/ccHV6P9G.s:2579   .debug_loc:0000000000000195 .LLST4
     /tmp/ccHV6P9G.s:105    .text:000000000000008c .LVL8
     /tmp/ccHV6P9G.s:111    .text:0000000000000090 .LBB23
     /tmp/ccHV6P9G.s:2648   .debug_ranges:0000000000000000 .Ldebug_ranges0
     /tmp/ccHV6P9G.s:2588   .debug_loc:00000000000001ba .LLST5
     /tmp/ccHV6P9G.s:2599   .debug_loc:00000000000001f0 .LLST6
     /tmp/ccHV6P9G.s:2617   .debug_loc:000000000000023c .LLST7
     /tmp/ccHV6P9G.s:121    .text:00000000000000a4 .LVL10
     /tmp/ccHV6P9G.s:179    .text:0000000000000108 .LBB27
     /tmp/ccHV6P9G.s:192    .text:0000000000000120 .LBE27
     /tmp/ccHV6P9G.s:2628   .debug_loc:0000000000000272 .LLST8
     /tmp/ccHV6P9G.s:185    .text:0000000000000114 .LVL16
     /tmp/ccHV6P9G.s:189    .text:0000000000000120 .LVL17
     /tmp/ccHV6P9G.s:2926   .debug_str:00000000000008ca .LASF121
     /tmp/ccHV6P9G.s:2708   .debug_str:0000000000000131 .LASF135
     /tmp/ccHV6P9G.s:2850   .debug_str:0000000000000591 .LASF122
     /tmp/ccHV6P9G.s:2764   .debug_str:0000000000000309 .LASF123
     /tmp/ccHV6P9G.s:2742   .debug_str:000000000000024e .LASF136
     /tmp/ccHV6P9G.s:2702   .debug_str:0000000000000108 .LASF137
     /tmp/ccHV6P9G.s:2778   .debug_str:0000000000000344 .LASF138
     /tmp/ccHV6P9G.s:2910   .debug_str:0000000000000853 .LASF139
     /tmp/ccHV6P9G.s:40     .text:0000000000000038 .LVL2
     /tmp/ccHV6P9G.s:48     .text:0000000000000040 .LVL3
     /tmp/ccHV6P9G.s:236    .text:000000000000013c .LVL18
     /tmp/ccHV6P9G.s:281    .text:0000000000000178 .LVL24
     /tmp/ccHV6P9G.s:285    .text:0000000000000180 .LVL25
     /tmp/ccHV6P9G.s:243    .text:0000000000000140 .LVL19
     /tmp/ccHV6P9G.s:248    .text:0000000000000144 .LVL20
     /tmp/ccHV6P9G.s:254    .text:0000000000000148 .LVL21
     /tmp/ccHV6P9G.s:78     .text:000000000000005c .LVL5
     /tmp/ccHV6P9G.s:102    .text:0000000000000084 .LVL7
     /tmp/ccHV6P9G.s:159    .text:00000000000000f0 .LVL12
     /tmp/ccHV6P9G.s:166    .text:00000000000000fc .LVL14
     /tmp/ccHV6P9G.s:176    .text:0000000000000108 .LVL15
     /tmp/ccHV6P9G.s:162    .text:00000000000000f4 .LVL13
     /tmp/ccHV6P9G.s:96     .text:0000000000000080 .LVL6
     /tmp/ccHV6P9G.s:108    .text:0000000000000090 .LVL9
     /tmp/ccHV6P9G.s:144    .text:00000000000000dc .LVL11
     /tmp/ccHV6P9G.s:352    .debug_info:0000000000000000 .Ldebug_info0
GAS LISTING /tmp/ccHV6P9G.s 			page 16


     /tmp/ccHV6P9G.s:146    .text:00000000000000dc .LBE23
     /tmp/ccHV6P9G.s:169    .text:00000000000000fc .LBB26
     /tmp/ccHV6P9G.s:178    .text:0000000000000108 .LBE26
     /tmp/ccHV6P9G.s:197    .gcc_except_table:0000000000000000 .LLSDA46

UNDEFINED SYMBOLS
_ZN5Riscv10popSppSpieEv
_Z15thread_dispatchv
_ZN15MemoryAllocator9allocateBEm
_ZN15MemoryAllocator4freeEPv
_Unwind_Resume
__gxx_personality_v0
_ZN9Scheduler3getEv
_ZN3CCB13contextSwitchEPNS_7ContextES1_
_ZN9Scheduler3putEP3CCB
_ZN5Riscv13pushRegistersEv
_ZN5Riscv12popRegistersEv
