GAS LISTING /tmp/ccR9CiKG.s 			page 1


   1              		.file	"tcb.cpp"
   2              		.option pic
   3              		.option norelax
   4              		.text
   5              	.Ltext0:
   6              		.align	2
   7              		.globl	_ZN3CCB13threadWrapperEv
   9              	_ZN3CCB13threadWrapperEv:
  10              	.LFB43:
  11              		.file 1 "src/tcb.cpp"
   1:src/tcb.cpp   **** //
   2:src/tcb.cpp   **** // Created by os on 6/24/22.
   3:src/tcb.cpp   **** //
   4:src/tcb.cpp   **** #include "../h/tcb.hpp"
   5:src/tcb.cpp   **** #include "../h/Riscv.hpp"
   6:src/tcb.cpp   **** 
   7:src/tcb.cpp   **** CCB *CCB::running = nullptr;
   8:src/tcb.cpp   **** 
   9:src/tcb.cpp   **** CCB *CCB::createCoroutine(Body body, void* args)
  10:src/tcb.cpp   **** {
  11:src/tcb.cpp   ****     return new CCB(body, args);
  12:src/tcb.cpp   **** }
  13:src/tcb.cpp   **** 
  14:src/tcb.cpp   **** void CCB::yield()
  15:src/tcb.cpp   **** {
  16:src/tcb.cpp   ****     Riscv::pushRegisters();
  17:src/tcb.cpp   **** 
  18:src/tcb.cpp   ****     CCB::dispatch();
  19:src/tcb.cpp   **** 
  20:src/tcb.cpp   ****     Riscv::popRegisters();
  21:src/tcb.cpp   **** }
  22:src/tcb.cpp   **** 
  23:src/tcb.cpp   **** void CCB::dispatch()
  24:src/tcb.cpp   **** {
  25:src/tcb.cpp   ****     CCB *old = running;
  26:src/tcb.cpp   ****     if (!old->isFinished()) { Scheduler::put(old); }
  27:src/tcb.cpp   ****     running = Scheduler::get();
  28:src/tcb.cpp   **** 
  29:src/tcb.cpp   ****     CCB::contextSwitch(&old->context, &running->context);
  30:src/tcb.cpp   **** }
  31:src/tcb.cpp   **** 
  32:src/tcb.cpp   **** void CCB::threadWrapper() {
  12              		.loc 1 32 27
  13              		.cfi_startproc
  14 0000 130101FE 		addi	sp,sp,-32
  15              		.cfi_def_cfa_offset 32
  16 0004 233C1100 		sd	ra,24(sp)
  17 0008 23388100 		sd	s0,16(sp)
  18 000c 23349100 		sd	s1,8(sp)
  19              		.cfi_offset 1, -8
  20              		.cfi_offset 8, -16
  21              		.cfi_offset 9, -24
  22 0010 13040102 		addi	s0,sp,32
  23              		.cfi_def_cfa 8, 0
  33:src/tcb.cpp   ****     Riscv::popSppSpie();
  24              		.loc 1 33 5
  25              		.loc 1 33 22 is_stmt 0
GAS LISTING /tmp/ccR9CiKG.s 			page 2


  26 0014 97000000 		call	_ZN5Riscv10popSppSpieEv@plt
  26      E7800000 
  27              	.LVL0:
  34:src/tcb.cpp   ****     running->body(running->args);
  28              		.loc 1 34 5 is_stmt 1
  29              		.loc 1 34 14 is_stmt 0
  30 001c 97040000 		lla	s1,.LANCHOR0
  30      93840400 
  31 0024 83B70400 		ld	a5,0(s1)
  32 0028 03B70700 		ld	a4,0(a5)
  33              		.loc 1 34 18
  34 002c 03B50701 		ld	a0,16(a5)
  35 0030 E7000700 		jalr	a4
  36              	.LVL1:
  35:src/tcb.cpp   ****     running->setFinished(true);
  37              		.loc 1 35 5 is_stmt 1
  38              		.loc 1 35 25 is_stmt 0
  39 0034 83B70400 		ld	a5,0(s1)
  40              	.LVL2:
  41              	.LBB10:
  42              	.LBB11:
  43              		.file 2 "src/../h/tcb.hpp"
   1:src/../h/tcb.hpp **** //
   2:src/../h/tcb.hpp **** // Created by os on 6/24/22.
   3:src/../h/tcb.hpp **** //
   4:src/../h/tcb.hpp **** 
   5:src/../h/tcb.hpp **** #ifndef PROJECT_V33333333333_CCB_HPP
   6:src/../h/tcb.hpp **** #define PROJECT_V33333333333_CCB_HPP
   7:src/../h/tcb.hpp **** #include "../lib/hw.h"
   8:src/../h/tcb.hpp **** #include "Scheduler.hpp"
   9:src/../h/tcb.hpp **** #include "syscall_c.h"
  10:src/../h/tcb.hpp **** #include "MemoryAllocator.hpp"
  11:src/../h/tcb.hpp **** #include "Riscv.hpp"
  12:src/../h/tcb.hpp **** 
  13:src/../h/tcb.hpp **** // Coroutine Control Block
  14:src/../h/tcb.hpp **** class CCB
  15:src/../h/tcb.hpp **** {
  16:src/../h/tcb.hpp **** public:
  17:src/../h/tcb.hpp ****     ~CCB() { delete[] stack; }
  18:src/../h/tcb.hpp **** 
  19:src/../h/tcb.hpp ****     void* operator new(size_t size) {
  20:src/../h/tcb.hpp ****         return MemoryAllocator::allocateB(size);
  21:src/../h/tcb.hpp ****     }
  22:src/../h/tcb.hpp **** 
  23:src/../h/tcb.hpp ****     void operator delete(void* address) {
  24:src/../h/tcb.hpp ****         MemoryAllocator::free(address);
  25:src/../h/tcb.hpp ****     }
  26:src/../h/tcb.hpp **** 
  27:src/../h/tcb.hpp ****     bool isFinished() const { return finished; }
  28:src/../h/tcb.hpp **** 
  29:src/../h/tcb.hpp ****     void setFinished(bool value) { finished = value;}
  44              		.loc 2 29 36 is_stmt 1
  45              		.loc 2 29 45 is_stmt 0
  46 0038 13071000 		li	a4,1
  47 003c 2384E702 		sb	a4,40(a5)
  48              	.LVL3:
  49              	.LBE11:
GAS LISTING /tmp/ccR9CiKG.s 			page 3


  50              	.LBE10:
  36:src/tcb.cpp   ****     thread_dispatch();
  51              		.loc 1 36 5 is_stmt 1
  52              		.loc 1 36 20 is_stmt 0
  53 0040 97000000 		call	_Z15thread_dispatchv@plt
  53      E7800000 
  54              	.LVL4:
  37:src/tcb.cpp   **** }...
  55              		.loc 1 37 1
  56 0048 83308101 		ld	ra,24(sp)
  57              		.cfi_restore 1
  58 004c 03340101 		ld	s0,16(sp)
  59              		.cfi_restore 8
  60              		.cfi_def_cfa 2, 32
  61 0050 83348100 		ld	s1,8(sp)
  62              		.cfi_restore 9
  63 0054 13010102 		addi	sp,sp,32
  64              		.cfi_def_cfa_offset 0
  65 0058 67800000 		jr	ra
  66              		.cfi_endproc
  67              	.LFE43:
  69              		.align	2
  70              		.globl	_ZN3CCB15createCoroutineEPFvPvES0_
  72              	_ZN3CCB15createCoroutineEPFvPvES0_:
  73              	.LFB40:
  10:src/tcb.cpp   **** {
  74              		.loc 1 10 1 is_stmt 1
  75              		.cfi_startproc
  76              		.cfi_personality 0x9b,DW.ref.__gxx_personality_v0
  77              		.cfi_lsda 0x1b,.LLSDA40
  78              	.LVL5:
  79 005c 130101FD 		addi	sp,sp,-48
  80              		.cfi_def_cfa_offset 48
  81 0060 23341102 		sd	ra,40(sp)
  82 0064 23308102 		sd	s0,32(sp)
  83 0068 233C9100 		sd	s1,24(sp)
  84 006c 23382101 		sd	s2,16(sp)
  85 0070 23343101 		sd	s3,8(sp)
  86              		.cfi_offset 1, -8
  87              		.cfi_offset 8, -16
  88              		.cfi_offset 9, -24
  89              		.cfi_offset 18, -32
  90              		.cfi_offset 19, -40
  91 0074 13040103 		addi	s0,sp,48
  92              		.cfi_def_cfa 8, 0
  93 0078 13090500 		mv	s2,a0
  94 007c 93890500 		mv	s3,a1
  11:src/tcb.cpp   ****     return new CCB(body, args);
  95              		.loc 1 11 5
  96              	.LVL6:
  97              	.LBB19:
  98              	.LBB20:
  20:src/../h/tcb.hpp ****     }
  99              		.loc 2 20 9
  20:src/../h/tcb.hpp ****     }
 100              		.loc 2 20 42 is_stmt 0
 101 0080 13050003 		li	a0,48
GAS LISTING /tmp/ccR9CiKG.s 			page 4


 102              	.LVL7:
 103              	.LEHB0:
 104 0084 97000000 		call	_ZN15MemoryAllocator9allocateBEm@plt
 104      E7800000 
 105              	.LVL8:
 106              	.LEHE0:
 107 008c 93040500 		mv	s1,a0
 108              	.LVL9:
 109              	.LBE20:
 110              	.LBE19:
 111              	.LBB21:
 112              	.LBB22:
  30:src/../h/tcb.hpp **** 
  31:src/../h/tcb.hpp ****     using Body = void (*)(void*);
  32:src/../h/tcb.hpp **** 
  33:src/../h/tcb.hpp ****     static CCB *createCoroutine(Body body, void* args);
  34:src/../h/tcb.hpp **** 
  35:src/../h/tcb.hpp ****     static void yield();
  36:src/../h/tcb.hpp **** 
  37:src/../h/tcb.hpp ****     static CCB *running;
  38:src/../h/tcb.hpp **** 
  39:src/../h/tcb.hpp ****     static void dispatch();
  40:src/../h/tcb.hpp **** 
  41:src/../h/tcb.hpp ****     static void threadWrapper();
  42:src/../h/tcb.hpp **** 
  43:src/../h/tcb.hpp **** private:
  44:src/../h/tcb.hpp ****     explicit CCB(Body body, void* arg) :
  45:src/../h/tcb.hpp ****             body(body),
  46:src/../h/tcb.hpp ****             stack(body != nullptr ? (uint64*) MemoryAllocator::allocateB(sizeof(uint64) * STACK_SIZ
  47:src/../h/tcb.hpp ****             args(arg),
  48:src/../h/tcb.hpp ****             context({(uint64) &threadWrapper,
  49:src/../h/tcb.hpp ****                      stack != nullptr ? (uint64) &stack[STACK_SIZE] : 0
  50:src/../h/tcb.hpp ****                     }),
  51:src/../h/tcb.hpp ****             finished(false)
 113              		.loc 2 51 27
 114 0090 23302501 		sd	s2,0(a0)
  46:src/../h/tcb.hpp ****             args(arg),
 115              		.loc 2 46 35
 116 0094 630A0900 		beqz	s2,.L8
  46:src/../h/tcb.hpp ****             args(arg),
 117              		.loc 2 46 73
 118 0098 37250000 		li	a0,8192
 119              	.LEHB1:
 120 009c 97000000 		call	_ZN15MemoryAllocator9allocateBEm@plt
 120      E7800000 
 121              	.LVL10:
 122 00a4 6F008000 		j	.L4
 123              	.L8:
  46:src/../h/tcb.hpp ****             args(arg),
 124              		.loc 2 46 35
 125 00a8 13050000 		li	a0,0
 126              	.L4:
 127              		.loc 2 51 27
 128 00ac 23B4A400 		sd	a0,8(s1)
 129 00b0 23B83401 		sd	s3,16(s1)
 130 00b4 97070000 		lla	a5,_ZN3CCB13threadWrapperEv
 130      93870700 
GAS LISTING /tmp/ccR9CiKG.s 			page 5


 131 00bc 23BCF400 		sd	a5,24(s1)
  49:src/../h/tcb.hpp ****                     }),
 132              		.loc 2 49 39
 133 00c0 63040502 		beqz	a0,.L9
  49:src/../h/tcb.hpp ****                     }),
 134              		.loc 2 49 50
 135 00c4 B7270000 		li	a5,8192
 136 00c8 B307F500 		add	a5,a0,a5
 137              	.L5:
 138              		.loc 2 51 27
 139 00cc 23B0F402 		sd	a5,32(s1)
 140 00d0 23840402 		sb	zero,40(s1)
  52:src/../h/tcb.hpp ****     {
  53:src/../h/tcb.hpp ****         if (body != nullptr) { Scheduler::put(this); }
 141              		.loc 2 53 9 is_stmt 1
 142 00d4 630C0902 		beqz	s2,.L3
 143              		.loc 2 53 32
 144              		.loc 2 53 46 is_stmt 0
 145 00d8 13850400 		mv	a0,s1
 146 00dc 97000000 		call	_ZN9Scheduler3putEP3CCB@plt
 146      E7800000 
 147              	.LVL11:
 148              	.LEHE1:
 149 00e4 6F008002 		j	.L3
 150              	.L9:
  49:src/../h/tcb.hpp ****                     }),
 151              		.loc 2 49 39
 152 00e8 93070000 		li	a5,0
 153 00ec 6FF01FFE 		j	.L5
 154              	.L10:
 155 00f0 13090500 		mv	s2,a0
 156              	.LVL12:
 157              	.LBE22:
 158              	.LBE21:
 159              	.LBB23:
 160              	.LBB24:
  24:src/../h/tcb.hpp ****     }
 161              		.loc 2 24 9 is_stmt 1
  24:src/../h/tcb.hpp ****     }
 162              		.loc 2 24 30 is_stmt 0
 163 00f4 13850400 		mv	a0,s1
 164 00f8 97000000 		call	_ZN15MemoryAllocator4freeEPv@plt
 164      E7800000 
 165              	.LVL13:
 166 0100 13050900 		mv	a0,s2
 167              	.LEHB2:
 168 0104 97000000 		call	_Unwind_Resume@plt
 168      E7800000 
 169              	.LVL14:
 170              	.LEHE2:
 171              	.L3:
 172              	.LBE24:
 173              	.LBE23:
  12:src/tcb.cpp   **** }
 174              		.loc 1 12 1
 175 010c 13850400 		mv	a0,s1
 176 0110 83308102 		ld	ra,40(sp)
GAS LISTING /tmp/ccR9CiKG.s 			page 6


 177              		.cfi_restore 1
 178 0114 03340102 		ld	s0,32(sp)
 179              		.cfi_restore 8
 180              		.cfi_def_cfa 2, 48
 181 0118 83348101 		ld	s1,24(sp)
 182              		.cfi_restore 9
 183              	.LVL15:
 184 011c 03390101 		ld	s2,16(sp)
 185              		.cfi_restore 18
 186              	.LVL16:
 187 0120 83398100 		ld	s3,8(sp)
 188              		.cfi_restore 19
 189              	.LVL17:
 190 0124 13010103 		addi	sp,sp,48
 191              		.cfi_def_cfa_offset 0
 192 0128 67800000 		jr	ra
 193              		.cfi_endproc
 194              	.LFE40:
 195              		.globl	__gxx_personality_v0
 196              		.section	.gcc_except_table,"a",@progbits
 197              	.LLSDA40:
 198 0000 FF       		.byte	0xff
 199 0001 FF       		.byte	0xff
 200 0002 03       		.byte	0x3
 201 0003 27       		.byte	0x27
 202 0004 00000000 		.4byte	.LEHB0-.LFB40
 203 0008 00000000 		.4byte	.LEHE0-.LEHB0
 204 000c 00000000 		.4byte	0
 205 0010 00       		.byte	0
 206 0011 00000000 		.4byte	.LEHB1-.LFB40
 207 0015 00000000 		.4byte	.LEHE1-.LEHB1
 208 0019 00000000 		.4byte	.L10-.LFB40
 209 001d 00       		.byte	0
 210 001e 00000000 		.4byte	.LEHB2-.LFB40
 211 0022 00000000 		.4byte	.LEHE2-.LEHB2
 212 0026 00000000 		.4byte	0
 213 002a 00       		.byte	0
 214              		.text
 216              		.align	2
 217              		.globl	_ZN3CCB8dispatchEv
 219              	_ZN3CCB8dispatchEv:
 220              	.LFB42:
  24:src/tcb.cpp   **** {
 221              		.loc 1 24 1 is_stmt 1
 222              		.cfi_startproc
 223 012c 130101FE 		addi	sp,sp,-32
 224              		.cfi_def_cfa_offset 32
 225 0130 233C1100 		sd	ra,24(sp)
 226 0134 23388100 		sd	s0,16(sp)
 227 0138 23349100 		sd	s1,8(sp)
 228              		.cfi_offset 1, -8
 229              		.cfi_offset 8, -16
 230              		.cfi_offset 9, -24
 231 013c 13040102 		addi	s0,sp,32
 232              		.cfi_def_cfa 8, 0
  25:src/tcb.cpp   ****     CCB *old = running;
 233              		.loc 1 25 5
GAS LISTING /tmp/ccR9CiKG.s 			page 7


  25:src/tcb.cpp   ****     CCB *old = running;
 234              		.loc 1 25 10 is_stmt 0
 235 0140 97040000 		ld	s1,.LANCHOR0
 235      83B40400 
 236              	.LVL18:
  26:src/tcb.cpp   ****     if (!old->isFinished()) { Scheduler::put(old); }
 237              		.loc 1 26 5 is_stmt 1
 238              	.LBB25:
 239              	.LBB26:
  27:src/../h/tcb.hpp **** 
 240              		.loc 2 27 31
  27:src/../h/tcb.hpp **** 
 241              		.loc 2 27 38 is_stmt 0
 242 0148 83C78402 		lbu	a5,40(s1)
 243              	.LVL19:
 244              	.LBE26:
 245              	.LBE25:
  26:src/tcb.cpp   ****     if (!old->isFinished()) { Scheduler::put(old); }
 246              		.loc 1 26 5
 247 014c 638C0702 		beqz	a5,.L15
 248              	.L13:
  27:src/tcb.cpp   ****     running = Scheduler::get();
 249              		.loc 1 27 5 is_stmt 1
  27:src/tcb.cpp   ****     running = Scheduler::get();
 250              		.loc 1 27 29 is_stmt 0
 251 0150 97000000 		call	_ZN9Scheduler3getEv@plt
 251      E7800000 
 252              	.LVL20:
  27:src/tcb.cpp   ****     running = Scheduler::get();
 253              		.loc 1 27 13
 254 0158 97070000 		sd	a0,.LANCHOR0,a5
 254      23B0A700 
  29:src/tcb.cpp   ****     CCB::contextSwitch(&old->context, &running->context);
 255              		.loc 1 29 5 is_stmt 1
  29:src/tcb.cpp   ****     CCB::contextSwitch(&old->context, &running->context);
 256              		.loc 1 29 23 is_stmt 0
 257 0160 93058501 		addi	a1,a0,24
 258 0164 13858401 		addi	a0,s1,24
 259 0168 97000000 		call	_ZN3CCB13contextSwitchEPNS_7ContextES1_@plt
 259      E7800000 
 260              	.LVL21:
  30:src/tcb.cpp   **** }
 261              		.loc 1 30 1
 262 0170 83308101 		ld	ra,24(sp)
 263              		.cfi_remember_state
 264              		.cfi_restore 1
 265 0174 03340101 		ld	s0,16(sp)
 266              		.cfi_restore 8
 267              		.cfi_def_cfa 2, 32
 268 0178 83348100 		ld	s1,8(sp)
 269              		.cfi_restore 9
 270              	.LVL22:
 271 017c 13010102 		addi	sp,sp,32
 272              		.cfi_def_cfa_offset 0
 273 0180 67800000 		jr	ra
 274              	.LVL23:
 275              	.L15:
GAS LISTING /tmp/ccR9CiKG.s 			page 8


 276              		.cfi_restore_state
  26:src/tcb.cpp   ****     if (!old->isFinished()) { Scheduler::put(old); }
 277              		.loc 1 26 31 is_stmt 1 discriminator 1
  26:src/tcb.cpp   ****     if (!old->isFinished()) { Scheduler::put(old); }
 278              		.loc 1 26 45 is_stmt 0 discriminator 1
 279 0184 13850400 		mv	a0,s1
 280 0188 97000000 		call	_ZN9Scheduler3putEP3CCB@plt
 280      E7800000 
 281              	.LVL24:
 282 0190 6FF01FFC 		j	.L13
 283              		.cfi_endproc
 284              	.LFE42:
 286              		.align	2
 287              		.globl	_ZN3CCB5yieldEv
 289              	_ZN3CCB5yieldEv:
 290              	.LFB41:
  15:src/tcb.cpp   **** {
 291              		.loc 1 15 1 is_stmt 1
 292              		.cfi_startproc
 293 0194 130101FF 		addi	sp,sp,-16
 294              		.cfi_def_cfa_offset 16
 295 0198 23341100 		sd	ra,8(sp)
 296 019c 23308100 		sd	s0,0(sp)
 297              		.cfi_offset 1, -8
 298              		.cfi_offset 8, -16
 299 01a0 13040101 		addi	s0,sp,16
 300              		.cfi_def_cfa 8, 0
  16:src/tcb.cpp   ****     Riscv::pushRegisters();
 301              		.loc 1 16 5
  16:src/tcb.cpp   ****     Riscv::pushRegisters();
 302              		.loc 1 16 25 is_stmt 0
 303 01a4 97000000 		call	_ZN5Riscv13pushRegistersEv@plt
 303      E7800000 
 304              	.LVL25:
  18:src/tcb.cpp   ****     CCB::dispatch();
 305              		.loc 1 18 5 is_stmt 1
  18:src/tcb.cpp   ****     CCB::dispatch();
 306              		.loc 1 18 18 is_stmt 0
 307 01ac 97000000 		call	_ZN3CCB8dispatchEv
 307      E7800000 
 308              	.LVL26:
  20:src/tcb.cpp   ****     Riscv::popRegisters();
 309              		.loc 1 20 5 is_stmt 1
  20:src/tcb.cpp   ****     Riscv::popRegisters();
 310              		.loc 1 20 24 is_stmt 0
 311 01b4 97000000 		call	_ZN5Riscv12popRegistersEv@plt
 311      E7800000 
 312              	.LVL27:
  21:src/tcb.cpp   **** }
 313              		.loc 1 21 1
 314 01bc 83308100 		ld	ra,8(sp)
 315              		.cfi_restore 1
 316 01c0 03340100 		ld	s0,0(sp)
 317              		.cfi_restore 8
 318              		.cfi_def_cfa 2, 16
 319 01c4 13010101 		addi	sp,sp,16
 320              		.cfi_def_cfa_offset 0
GAS LISTING /tmp/ccR9CiKG.s 			page 9


 321 01c8 67800000 		jr	ra
 322              		.cfi_endproc
 323              	.LFE41:
 325              		.globl	_ZN3CCB7runningE
 326              		.bss
 327              		.align	3
 328              		.set	.LANCHOR0,. + 0
 331              	_ZN3CCB7runningE:
 332 0000 00000000 		.zero	8
 332      00000000 
 333              		.text
 334              	.Letext0:
 335              		.file 3 "src/../h/../lib/hw.h"
 336              		.file 4 "src/../h/MemoryAllocator.hpp"
 337              		.file 5 "src/../h/Scheduler.hpp"
 338              		.file 6 "src/../h/Riscv.hpp"
 339              		.file 7 "src/../h/syscall_c.h"
 2754              		.align	3
 2757              	DW.ref.__gxx_personality_v0:
 2758 0000 00000000 		.dword	__gxx_personality_v0
 2758      00000000 
 2759              		.ident	"GCC: (Ubuntu 9.4.0-1ubuntu1~20.04) 9.4.0"
 2760              		.section	.note.GNU-stack,"",@progbits
GAS LISTING /tmp/ccR9CiKG.s 			page 10


DEFINED SYMBOLS
                            *ABS*:0000000000000000 tcb.cpp
     /tmp/ccR9CiKG.s:9      .text:0000000000000000 _ZN3CCB13threadWrapperEv
     /tmp/ccR9CiKG.s:13     .text:0000000000000000 .L0 
     /tmp/ccR9CiKG.s:14     .text:0000000000000000 .L0 
     /tmp/ccR9CiKG.s:15     .text:0000000000000004 .L0 
     /tmp/ccR9CiKG.s:19     .text:0000000000000010 .L0 
     /tmp/ccR9CiKG.s:20     .text:0000000000000010 .L0 
     /tmp/ccR9CiKG.s:21     .text:0000000000000010 .L0 
     /tmp/ccR9CiKG.s:23     .text:0000000000000014 .L0 
     /tmp/ccR9CiKG.s:25     .text:0000000000000014 .L0 
     /tmp/ccR9CiKG.s:26     .text:0000000000000014 .L0 
     /tmp/ccR9CiKG.s:29     .text:000000000000001c .L0 
     /tmp/ccR9CiKG.s:30     .text:000000000000001c .L0 
     /tmp/ccR9CiKG.s:34     .text:000000000000002c .L0 
     /tmp/ccR9CiKG.s:38     .text:0000000000000034 .L0 
     /tmp/ccR9CiKG.s:39     .text:0000000000000034 .L0 
     /tmp/ccR9CiKG.s:45     .text:0000000000000038 .L0 
     /tmp/ccR9CiKG.s:46     .text:0000000000000038 .L0 
     /tmp/ccR9CiKG.s:52     .text:0000000000000040 .L0 
     /tmp/ccR9CiKG.s:53     .text:0000000000000040 .L0 
     /tmp/ccR9CiKG.s:56     .text:0000000000000048 .L0 
     /tmp/ccR9CiKG.s:57     .text:000000000000004c .L0 
     /tmp/ccR9CiKG.s:59     .text:0000000000000050 .L0 
     /tmp/ccR9CiKG.s:60     .text:0000000000000050 .L0 
     /tmp/ccR9CiKG.s:62     .text:0000000000000054 .L0 
     /tmp/ccR9CiKG.s:64     .text:0000000000000058 .L0 
     /tmp/ccR9CiKG.s:66     .text:000000000000005c .L0 
     /tmp/ccR9CiKG.s:72     .text:000000000000005c _ZN3CCB15createCoroutineEPFvPvES0_
     /tmp/ccR9CiKG.s:75     .text:000000000000005c .L0 
     /tmp/ccR9CiKG.s:2757   .data.rel.local.DW.ref.__gxx_personality_v0:0000000000000000 DW.ref.__gxx_personality_v0
     /tmp/ccR9CiKG.s:79     .text:000000000000005c .L0 
     /tmp/ccR9CiKG.s:80     .text:0000000000000060 .L0 
     /tmp/ccR9CiKG.s:86     .text:0000000000000074 .L0 
     /tmp/ccR9CiKG.s:87     .text:0000000000000074 .L0 
     /tmp/ccR9CiKG.s:88     .text:0000000000000074 .L0 
     /tmp/ccR9CiKG.s:89     .text:0000000000000074 .L0 
     /tmp/ccR9CiKG.s:90     .text:0000000000000074 .L0 
     /tmp/ccR9CiKG.s:92     .text:0000000000000078 .L0 
     /tmp/ccR9CiKG.s:99     .text:0000000000000080 .L0 
     /tmp/ccR9CiKG.s:100    .text:0000000000000080 .L0 
     /tmp/ccR9CiKG.s:101    .text:0000000000000080 .L0 
     /tmp/ccR9CiKG.s:114    .text:0000000000000090 .L0 
     /tmp/ccR9CiKG.s:116    .text:0000000000000094 .L0 
     /tmp/ccR9CiKG.s:118    .text:0000000000000098 .L0 
     /tmp/ccR9CiKG.s:125    .text:00000000000000a8 .L0 
     /tmp/ccR9CiKG.s:128    .text:00000000000000ac .L0 
     /tmp/ccR9CiKG.s:133    .text:00000000000000c0 .L0 
     /tmp/ccR9CiKG.s:135    .text:00000000000000c4 .L0 
     /tmp/ccR9CiKG.s:139    .text:00000000000000cc .L0 
     /tmp/ccR9CiKG.s:142    .text:00000000000000d4 .L0 
     /tmp/ccR9CiKG.s:144    .text:00000000000000d8 .L0 
     /tmp/ccR9CiKG.s:145    .text:00000000000000d8 .L0 
     /tmp/ccR9CiKG.s:152    .text:00000000000000e8 .L0 
     /tmp/ccR9CiKG.s:162    .text:00000000000000f4 .L0 
     /tmp/ccR9CiKG.s:163    .text:00000000000000f4 .L0 
     /tmp/ccR9CiKG.s:175    .text:000000000000010c .L0 
GAS LISTING /tmp/ccR9CiKG.s 			page 11


     /tmp/ccR9CiKG.s:177    .text:0000000000000114 .L0 
     /tmp/ccR9CiKG.s:179    .text:0000000000000118 .L0 
     /tmp/ccR9CiKG.s:180    .text:0000000000000118 .L0 
     /tmp/ccR9CiKG.s:182    .text:000000000000011c .L0 
     /tmp/ccR9CiKG.s:185    .text:0000000000000120 .L0 
     /tmp/ccR9CiKG.s:188    .text:0000000000000124 .L0 
     /tmp/ccR9CiKG.s:191    .text:0000000000000128 .L0 
     /tmp/ccR9CiKG.s:193    .text:000000000000012c .L0 
     /tmp/ccR9CiKG.s:219    .text:000000000000012c _ZN3CCB8dispatchEv
     /tmp/ccR9CiKG.s:222    .text:000000000000012c .L0 
     /tmp/ccR9CiKG.s:223    .text:000000000000012c .L0 
     /tmp/ccR9CiKG.s:224    .text:0000000000000130 .L0 
     /tmp/ccR9CiKG.s:228    .text:000000000000013c .L0 
     /tmp/ccR9CiKG.s:229    .text:000000000000013c .L0 
     /tmp/ccR9CiKG.s:230    .text:000000000000013c .L0 
     /tmp/ccR9CiKG.s:232    .text:0000000000000140 .L0 
     /tmp/ccR9CiKG.s:234    .text:0000000000000140 .L0 
     /tmp/ccR9CiKG.s:235    .text:0000000000000140 .L0 
     /tmp/ccR9CiKG.s:240    .text:0000000000000148 .L0 
     /tmp/ccR9CiKG.s:241    .text:0000000000000148 .L0 
     /tmp/ccR9CiKG.s:242    .text:0000000000000148 .L0 
     /tmp/ccR9CiKG.s:247    .text:000000000000014c .L0 
     /tmp/ccR9CiKG.s:250    .text:0000000000000150 .L0 
     /tmp/ccR9CiKG.s:251    .text:0000000000000150 .L0 
     /tmp/ccR9CiKG.s:254    .text:0000000000000158 .L0 
     /tmp/ccR9CiKG.s:256    .text:0000000000000160 .L0 
     /tmp/ccR9CiKG.s:257    .text:0000000000000160 .L0 
     /tmp/ccR9CiKG.s:262    .text:0000000000000170 .L0 
     /tmp/ccR9CiKG.s:263    .text:0000000000000174 .L0 
     /tmp/ccR9CiKG.s:264    .text:0000000000000174 .L0 
     /tmp/ccR9CiKG.s:266    .text:0000000000000178 .L0 
     /tmp/ccR9CiKG.s:267    .text:0000000000000178 .L0 
     /tmp/ccR9CiKG.s:269    .text:000000000000017c .L0 
     /tmp/ccR9CiKG.s:272    .text:0000000000000180 .L0 
     /tmp/ccR9CiKG.s:276    .text:0000000000000184 .L0 
     /tmp/ccR9CiKG.s:278    .text:0000000000000184 .L0 
     /tmp/ccR9CiKG.s:279    .text:0000000000000184 .L0 
     /tmp/ccR9CiKG.s:283    .text:0000000000000194 .L0 
     /tmp/ccR9CiKG.s:289    .text:0000000000000194 _ZN3CCB5yieldEv
     /tmp/ccR9CiKG.s:292    .text:0000000000000194 .L0 
     /tmp/ccR9CiKG.s:293    .text:0000000000000194 .L0 
     /tmp/ccR9CiKG.s:294    .text:0000000000000198 .L0 
     /tmp/ccR9CiKG.s:297    .text:00000000000001a0 .L0 
     /tmp/ccR9CiKG.s:298    .text:00000000000001a0 .L0 
     /tmp/ccR9CiKG.s:300    .text:00000000000001a4 .L0 
     /tmp/ccR9CiKG.s:302    .text:00000000000001a4 .L0 
     /tmp/ccR9CiKG.s:303    .text:00000000000001a4 .L0 
     /tmp/ccR9CiKG.s:306    .text:00000000000001ac .L0 
     /tmp/ccR9CiKG.s:307    .text:00000000000001ac .L0 
     /tmp/ccR9CiKG.s:310    .text:00000000000001b4 .L0 
     /tmp/ccR9CiKG.s:311    .text:00000000000001b4 .L0 
     /tmp/ccR9CiKG.s:314    .text:00000000000001bc .L0 
     /tmp/ccR9CiKG.s:315    .text:00000000000001c0 .L0 
     /tmp/ccR9CiKG.s:317    .text:00000000000001c4 .L0 
     /tmp/ccR9CiKG.s:318    .text:00000000000001c4 .L0 
     /tmp/ccR9CiKG.s:320    .text:00000000000001c8 .L0 
     /tmp/ccR9CiKG.s:322    .text:00000000000001cc .L0 
GAS LISTING /tmp/ccR9CiKG.s 			page 12


     /tmp/ccR9CiKG.s:331    .bss:0000000000000000 _ZN3CCB7runningE
     /tmp/ccR9CiKG.s:328    .bss:0000000000000000 .LANCHOR0
     /tmp/ccR9CiKG.s:340    .text:00000000000001cc .L0 
     /tmp/ccR9CiKG.s:30     .text:000000000000001c .L0 
     /tmp/ccR9CiKG.s:130    .text:00000000000000b4 .L0 
     /tmp/ccR9CiKG.s:235    .text:0000000000000140 .L0 
     /tmp/ccR9CiKG.s:254    .text:0000000000000158 .L0 
     /tmp/ccR9CiKG.s:123    .text:00000000000000a8 .L8
     /tmp/ccR9CiKG.s:126    .text:00000000000000ac .L4
     /tmp/ccR9CiKG.s:150    .text:00000000000000e8 .L9
     /tmp/ccR9CiKG.s:171    .text:000000000000010c .L3
     /tmp/ccR9CiKG.s:137    .text:00000000000000cc .L5
     /tmp/ccR9CiKG.s:275    .text:0000000000000184 .L15
     /tmp/ccR9CiKG.s:248    .text:0000000000000150 .L13
     /tmp/ccR9CiKG.s:103    .text:0000000000000084 .LEHB0
     /tmp/ccR9CiKG.s:73     .text:000000000000005c .LFB40
     /tmp/ccR9CiKG.s:106    .text:000000000000008c .LEHE0
     /tmp/ccR9CiKG.s:119    .text:000000000000009c .LEHB1
     /tmp/ccR9CiKG.s:148    .text:00000000000000e4 .LEHE1
     /tmp/ccR9CiKG.s:154    .text:00000000000000f0 .L10
     /tmp/ccR9CiKG.s:167    .text:0000000000000104 .LEHB2
     /tmp/ccR9CiKG.s:170    .text:000000000000010c .LEHE2
     /tmp/ccR9CiKG.s:1402   .debug_abbrev:0000000000000000 .Ldebug_abbrev0
     /tmp/ccR9CiKG.s:2709   .debug_str:0000000000000672 .LASF109
     /tmp/ccR9CiKG.s:2619   .debug_str:0000000000000390 .LASF110
     /tmp/ccR9CiKG.s:2529   .debug_str:00000000000000cd .LASF111
     /tmp/ccR9CiKG.s:5      .text:0000000000000000 .Ltext0
     /tmp/ccR9CiKG.s:334    .text:00000000000001cc .Letext0
     /tmp/ccR9CiKG.s:2495   .debug_line:0000000000000000 .Ldebug_line0
     /tmp/ccR9CiKG.s:2639   .debug_str:0000000000000443 .LASF0
     /tmp/ccR9CiKG.s:2657   .debug_str:00000000000004b6 .LASF1
     /tmp/ccR9CiKG.s:2621   .debug_str:000000000000039c .LASF2
     /tmp/ccR9CiKG.s:2597   .debug_str:00000000000002ea .LASF4
     /tmp/ccR9CiKG.s:2691   .debug_str:00000000000005d8 .LASF3
     /tmp/ccR9CiKG.s:2517   .debug_str:0000000000000077 .LASF5
     /tmp/ccR9CiKG.s:2661   .debug_str:00000000000004f7 .LASF6
     /tmp/ccR9CiKG.s:2637   .debug_str:0000000000000430 .LASF7
     /tmp/ccR9CiKG.s:2723   .debug_str:0000000000000777 .LASF8
     /tmp/ccR9CiKG.s:2583   .debug_str:000000000000027d .LASF9
     /tmp/ccR9CiKG.s:2671   .debug_str:000000000000052e .LASF10
     /tmp/ccR9CiKG.s:2715   .debug_str:0000000000000755 .LASF11
     /tmp/ccR9CiKG.s:2519   .debug_str:000000000000007e .LASF12
     /tmp/ccR9CiKG.s:2501   .debug_str:0000000000000022 .LASF13
     /tmp/ccR9CiKG.s:2533   .debug_str:00000000000000f6 .LASF14
     /tmp/ccR9CiKG.s:2685   .debug_str:00000000000005a4 .LASF15
     /tmp/ccR9CiKG.s:2545   .debug_str:000000000000014e .LASF16
     /tmp/ccR9CiKG.s:2521   .debug_str:000000000000008e .LASF35
     /tmp/ccR9CiKG.s:2703   .debug_str:000000000000063f .LASF17
     /tmp/ccR9CiKG.s:2747   .debug_str:0000000000000843 .LASF18
     /tmp/ccR9CiKG.s:2737   .debug_str:0000000000000802 .LASF19
     /tmp/ccR9CiKG.s:2633   .debug_str:0000000000000415 .LASF20
     /tmp/ccR9CiKG.s:2669   .debug_str:0000000000000524 .LASF29
     /tmp/ccR9CiKG.s:2557   .debug_str:00000000000001bb .LASF22
     /tmp/ccR9CiKG.s:2665   .debug_str:0000000000000515 .LASF47
     /tmp/ccR9CiKG.s:2707   .debug_str:0000000000000656 .LASF49
     /tmp/ccR9CiKG.s:2653   .debug_str:00000000000004a7 .LASF21
     /tmp/ccR9CiKG.s:2551   .debug_str:0000000000000182 .LASF23
GAS LISTING /tmp/ccR9CiKG.s 			page 13


     /tmp/ccR9CiKG.s:2549   .debug_str:0000000000000178 .LASF24
     /tmp/ccR9CiKG.s:2731   .debug_str:00000000000007c3 .LASF25
     /tmp/ccR9CiKG.s:2569   .debug_str:000000000000022a .LASF26
     /tmp/ccR9CiKG.s:2679   .debug_str:0000000000000565 .LASF27
     /tmp/ccR9CiKG.s:2511   .debug_str:0000000000000057 .LASF31
     /tmp/ccR9CiKG.s:2659   .debug_str:00000000000004c9 .LASF33
     /tmp/ccR9CiKG.s:2667   .debug_str:000000000000051a .LASF28
     /tmp/ccR9CiKG.s:2729   .debug_str:00000000000007af .LASF30
     /tmp/ccR9CiKG.s:2735   .debug_str:00000000000007f5 .LASF39
     /tmp/ccR9CiKG.s:2713   .debug_str:0000000000000743 .LASF41
     /tmp/ccR9CiKG.s:2697   .debug_str:0000000000000604 .LASF32
     /tmp/ccR9CiKG.s:2645   .debug_str:0000000000000460 .LASF34
     /tmp/ccR9CiKG.s:2593   .debug_str:00000000000002ce .LASF112
     /tmp/ccR9CiKG.s:2651   .debug_str:000000000000048f .LASF113
     /tmp/ccR9CiKG.s:2505   .debug_str:000000000000003b .LASF114
     /tmp/ccR9CiKG.s:2553   .debug_str:00000000000001a2 .LASF36
     /tmp/ccR9CiKG.s:2717   .debug_str:0000000000000764 .LASF37
     /tmp/ccR9CiKG.s:2745   .debug_str:0000000000000837 .LASF38
     /tmp/ccR9CiKG.s:2509   .debug_str:000000000000004b .LASF40
     /tmp/ccR9CiKG.s:2711   .debug_str:0000000000000736 .LASF42
     /tmp/ccR9CiKG.s:2663   .debug_str:000000000000050a .LASF115
     /tmp/ccR9CiKG.s:2649   .debug_str:0000000000000478 .LASF116
     /tmp/ccR9CiKG.s:2623   .debug_str:00000000000003aa .LASF43
     /tmp/ccR9CiKG.s:2683   .debug_str:000000000000058d .LASF44
     /tmp/ccR9CiKG.s:2727   .debug_str:000000000000079f .LASF45
     /tmp/ccR9CiKG.s:2625   .debug_str:00000000000003b6 .LASF46
     /tmp/ccR9CiKG.s:2677   .debug_str:0000000000000560 .LASF117
     /tmp/ccR9CiKG.s:2687   .debug_str:00000000000005ba .LASF48
     /tmp/ccR9CiKG.s:2673   .debug_str:000000000000053d .LASF50
     /tmp/ccR9CiKG.s:2565   .debug_str:000000000000020d .LASF118
     /tmp/ccR9CiKG.s:2643   .debug_str:0000000000000457 .LASF51
     /tmp/ccR9CiKG.s:2693   .debug_str:00000000000005ea .LASF52
     /tmp/ccR9CiKG.s:2613   .debug_str:0000000000000354 .LASF53
     /tmp/ccR9CiKG.s:2523   .debug_str:000000000000009a .LASF54
     /tmp/ccR9CiKG.s:2627   .debug_str:00000000000003d9 .LASF119
     /tmp/ccR9CiKG.s:2601   .debug_str:00000000000002fa .LASF55
     /tmp/ccR9CiKG.s:2535   .debug_str:0000000000000102 .LASF56
     /tmp/ccR9CiKG.s:2647   .debug_str:0000000000000473 .LASF57
     /tmp/ccR9CiKG.s:2605   .debug_str:000000000000030a .LASF58
     /tmp/ccR9CiKG.s:2599   .debug_str:00000000000002f1 .LASF59
     /tmp/ccR9CiKG.s:2539   .debug_str:0000000000000118 .LASF60
     /tmp/ccR9CiKG.s:2609   .debug_str:0000000000000321 .LASF61
     /tmp/ccR9CiKG.s:2611   .debug_str:0000000000000349 .LASF120
     /tmp/ccR9CiKG.s:2655   .debug_str:00000000000004b0 .LASF62
     /tmp/ccR9CiKG.s:2591   .debug_str:00000000000002bd .LASF63
     /tmp/ccR9CiKG.s:2699   .debug_str:0000000000000614 .LASF64
     /tmp/ccR9CiKG.s:2555   .debug_str:00000000000001aa .LASF65
     /tmp/ccR9CiKG.s:2631   .debug_str:00000000000003f7 .LASF66
     /tmp/ccR9CiKG.s:2681   .debug_str:0000000000000582 .LASF67
     /tmp/ccR9CiKG.s:2743   .debug_str:000000000000081f .LASF68
     /tmp/ccR9CiKG.s:2513   .debug_str:0000000000000061 .LASF69
     /tmp/ccR9CiKG.s:2563   .debug_str:00000000000001f2 .LASF70
     /tmp/ccR9CiKG.s:2701   .debug_str:0000000000000632 .LASF71
     /tmp/ccR9CiKG.s:2499   .debug_str:0000000000000008 .LASF72
     /tmp/ccR9CiKG.s:2503   .debug_str:0000000000000032 .LASF73
     /tmp/ccR9CiKG.s:2567   .debug_str:0000000000000215 .LASF77
     /tmp/ccR9CiKG.s:2561   .debug_str:00000000000001e9 .LASF74
GAS LISTING /tmp/ccR9CiKG.s 			page 14


     /tmp/ccR9CiKG.s:2559   .debug_str:00000000000001d4 .LASF75
     /tmp/ccR9CiKG.s:2695   .debug_str:00000000000005fd .LASF76
     /tmp/ccR9CiKG.s:2675   .debug_str:000000000000054d .LASF78
     /tmp/ccR9CiKG.s:2719   .debug_str:0000000000000769 .LASF79
     /tmp/ccR9CiKG.s:2581   .debug_str:000000000000026a .LASF80
     /tmp/ccR9CiKG.s:2577   .debug_str:000000000000025c .LASF81
     /tmp/ccR9CiKG.s:2547   .debug_str:0000000000000164 .LASF82
     /tmp/ccR9CiKG.s:2497   .debug_str:0000000000000000 .LASF83
     /tmp/ccR9CiKG.s:2587   .debug_str:00000000000002a1 .LASF84
     /tmp/ccR9CiKG.s:2515   .debug_str:000000000000006f .LASF85
     /tmp/ccR9CiKG.s:2525   .debug_str:00000000000000b3 .LASF86
     /tmp/ccR9CiKG.s:2589   .debug_str:00000000000002b5 .LASF87
     /tmp/ccR9CiKG.s:2543   .debug_str:000000000000013a .LASF88
     /tmp/ccR9CiKG.s:2641   .debug_str:0000000000000450 .LASF89
     /tmp/ccR9CiKG.s:2739   .debug_str:0000000000000807 .LASF90
     /tmp/ccR9CiKG.s:2721   .debug_str:0000000000000770 .LASF91
     /tmp/ccR9CiKG.s:2575   .debug_str:0000000000000249 .LASF92
     /tmp/ccR9CiKG.s:2579   .debug_str:0000000000000264 .LASF93
     /tmp/ccR9CiKG.s:2705   .debug_str:0000000000000644 .LASF94
     /tmp/ccR9CiKG.s:2507   .debug_str:0000000000000045 .LASF95
     /tmp/ccR9CiKG.s:2749   .debug_str:0000000000000848 .LASF96
     /tmp/ccR9CiKG.s:2635   .debug_str:0000000000000425 .LASF97
     /tmp/ccR9CiKG.s:2689   .debug_str:00000000000005c0 .LASF98
     /tmp/ccR9CiKG.s:2603   .debug_str:00000000000002ff .LASF99
     /tmp/ccR9CiKG.s:2615   .debug_str:0000000000000362 .LASF100
     /tmp/ccR9CiKG.s:2531   .debug_str:00000000000000ec .LASF101
     /tmp/ccR9CiKG.s:2617   .debug_str:000000000000037a .LASF102
     /tmp/ccR9CiKG.s:2629   .debug_str:00000000000003ed .LASF103
     /tmp/ccR9CiKG.s:2585   .debug_str:000000000000028b .LASF104
     /tmp/ccR9CiKG.s:2571   .debug_str:000000000000022f .LASF105
     /tmp/ccR9CiKG.s:2733   .debug_str:00000000000007e4 .LASF121
     /tmp/ccR9CiKG.s:10     .text:0000000000000000 .LFB43
     /tmp/ccR9CiKG.s:67     .text:000000000000005c .LFE43
     /tmp/ccR9CiKG.s:41     .text:0000000000000038 .LBB10
     /tmp/ccR9CiKG.s:50     .text:0000000000000040 .LBE10
     /tmp/ccR9CiKG.s:2336   .debug_loc:0000000000000000 .LLST0
     /tmp/ccR9CiKG.s:2344   .debug_loc:0000000000000024 .LLST1
     /tmp/ccR9CiKG.s:27     .text:000000000000001c .LVL0
     /tmp/ccR9CiKG.s:54     .text:0000000000000048 .LVL4
     /tmp/ccR9CiKG.s:220    .text:000000000000012c .LFB42
     /tmp/ccR9CiKG.s:284    .text:0000000000000194 .LFE42
     /tmp/ccR9CiKG.s:2351   .debug_loc:0000000000000047 .LLST9
     /tmp/ccR9CiKG.s:238    .text:0000000000000148 .LBB25
     /tmp/ccR9CiKG.s:245    .text:000000000000014c .LBE25
     /tmp/ccR9CiKG.s:2362   .debug_loc:000000000000007d .LLST10
     /tmp/ccR9CiKG.s:252    .text:0000000000000158 .LVL20
     /tmp/ccR9CiKG.s:260    .text:0000000000000170 .LVL21
     /tmp/ccR9CiKG.s:281    .text:0000000000000190 .LVL24
     /tmp/ccR9CiKG.s:290    .text:0000000000000194 .LFB41
     /tmp/ccR9CiKG.s:323    .text:00000000000001cc .LFE41
     /tmp/ccR9CiKG.s:304    .text:00000000000001ac .LVL25
     /tmp/ccR9CiKG.s:308    .text:00000000000001b4 .LVL26
     /tmp/ccR9CiKG.s:312    .text:00000000000001bc .LVL27
     /tmp/ccR9CiKG.s:194    .text:000000000000012c .LFE40
     /tmp/ccR9CiKG.s:2369   .debug_loc:00000000000000a0 .LLST2
     /tmp/ccR9CiKG.s:2398   .debug_loc:0000000000000115 .LLST3
     /tmp/ccR9CiKG.s:97     .text:0000000000000080 .LBB19
GAS LISTING /tmp/ccR9CiKG.s 			page 15


     /tmp/ccR9CiKG.s:110    .text:0000000000000090 .LBE19
     /tmp/ccR9CiKG.s:2416   .debug_loc:0000000000000161 .LLST4
     /tmp/ccR9CiKG.s:105    .text:000000000000008c .LVL8
     /tmp/ccR9CiKG.s:111    .text:0000000000000090 .LBB21
     /tmp/ccR9CiKG.s:158    .text:00000000000000f4 .LBE21
     /tmp/ccR9CiKG.s:2425   .debug_loc:0000000000000186 .LLST5
     /tmp/ccR9CiKG.s:2439   .debug_loc:00000000000001bf .LLST6
     /tmp/ccR9CiKG.s:2464   .debug_loc:0000000000000221 .LLST7
     /tmp/ccR9CiKG.s:121    .text:00000000000000a4 .LVL10
     /tmp/ccR9CiKG.s:147    .text:00000000000000e4 .LVL11
     /tmp/ccR9CiKG.s:159    .text:00000000000000f4 .LBB23
     /tmp/ccR9CiKG.s:173    .text:000000000000010c .LBE23
     /tmp/ccR9CiKG.s:2475   .debug_loc:0000000000000257 .LLST8
     /tmp/ccR9CiKG.s:165    .text:0000000000000100 .LVL13
     /tmp/ccR9CiKG.s:169    .text:000000000000010c .LVL14
     /tmp/ccR9CiKG.s:2741   .debug_str:000000000000081a .LASF106
     /tmp/ccR9CiKG.s:2541   .debug_str:0000000000000126 .LASF122
     /tmp/ccR9CiKG.s:2527   .debug_str:00000000000000c7 .LASF107
     /tmp/ccR9CiKG.s:2595   .debug_str:00000000000002e2 .LASF108
     /tmp/ccR9CiKG.s:2573   .debug_str:0000000000000234 .LASF123
     /tmp/ccR9CiKG.s:2537   .debug_str:0000000000000108 .LASF124
     /tmp/ccR9CiKG.s:2607   .debug_str:0000000000000312 .LASF125
     /tmp/ccR9CiKG.s:2725   .debug_str:0000000000000787 .LASF126
     /tmp/ccR9CiKG.s:40     .text:0000000000000038 .LVL2
     /tmp/ccR9CiKG.s:48     .text:0000000000000040 .LVL3
     /tmp/ccR9CiKG.s:236    .text:0000000000000148 .LVL18
     /tmp/ccR9CiKG.s:270    .text:000000000000017c .LVL22
     /tmp/ccR9CiKG.s:274    .text:0000000000000184 .LVL23
     /tmp/ccR9CiKG.s:243    .text:000000000000014c .LVL19
     /tmp/ccR9CiKG.s:78     .text:000000000000005c .LVL5
     /tmp/ccR9CiKG.s:102    .text:0000000000000084 .LVL7
     /tmp/ccR9CiKG.s:156    .text:00000000000000f4 .LVL12
     /tmp/ccR9CiKG.s:186    .text:0000000000000120 .LVL16
     /tmp/ccR9CiKG.s:189    .text:0000000000000124 .LVL17
     /tmp/ccR9CiKG.s:96     .text:0000000000000080 .LVL6
     /tmp/ccR9CiKG.s:108    .text:0000000000000090 .LVL9
     /tmp/ccR9CiKG.s:183    .text:000000000000011c .LVL15
     /tmp/ccR9CiKG.s:341    .debug_info:0000000000000000 .Ldebug_info0
     /tmp/ccR9CiKG.s:197    .gcc_except_table:0000000000000000 .LLSDA40

UNDEFINED SYMBOLS
_ZN5Riscv10popSppSpieEv
_Z15thread_dispatchv
_ZN15MemoryAllocator9allocateBEm
_ZN9Scheduler3putEP3CCB
_ZN15MemoryAllocator4freeEPv
_Unwind_Resume
__gxx_personality_v0
_ZN9Scheduler3getEv
_ZN3CCB13contextSwitchEPNS_7ContextES1_
_ZN5Riscv13pushRegistersEv
_ZN5Riscv12popRegistersEv
