GAS LISTING /tmp/ccHV6P9G.s 			page 1


   1              		.file	"tcb.cpp"
   2              		.option pic
   3              		.option norelax
   4              		.text
   5              	.Ltext0:
   6              		.align	2
   7              		.globl	_ZN3CCB13threadWrapperEv
   9              	_ZN3CCB13threadWrapperEv:
  10              	.LFB49:
  11              		.file 1 "src/tcb.cpp"
   1:src/tcb.cpp   **** //
   2:src/tcb.cpp   **** // Created by os on 6/24/22.
   3:src/tcb.cpp   **** //
   4:src/tcb.cpp   **** #include "../h/tcb.hpp"
   5:src/tcb.cpp   **** #include "../h/Riscv.hpp"
   6:src/tcb.cpp   **** 
   7:src/tcb.cpp   **** CCB *CCB::running = nullptr;
   8:src/tcb.cpp   **** 
   9:src/tcb.cpp   **** CCB *CCB::createCoroutine(Body body, void* args)
  10:src/tcb.cpp   **** {
  11:src/tcb.cpp   ****     return new CCB(body, args);
  12:src/tcb.cpp   **** }
  13:src/tcb.cpp   **** 
  14:src/tcb.cpp   **** void CCB::yield()
  15:src/tcb.cpp   **** {
  16:src/tcb.cpp   ****     Riscv::pushRegisters();
  17:src/tcb.cpp   **** 
  18:src/tcb.cpp   ****     CCB::dispatch();
  19:src/tcb.cpp   **** 
  20:src/tcb.cpp   ****     Riscv::popRegisters();
  21:src/tcb.cpp   **** }
  22:src/tcb.cpp   **** 
  23:src/tcb.cpp   **** void CCB::dispatch()
  24:src/tcb.cpp   **** {
  25:src/tcb.cpp   ****     CCB *old = running;
  26:src/tcb.cpp   ****     if (!old->isFinished() && !old->isBlocked()) { Scheduler::put(old); }
  27:src/tcb.cpp   ****     running = Scheduler::get();
  28:src/tcb.cpp   ****     CCB::contextSwitch(&old->context, &running->context);
  29:src/tcb.cpp   **** }
  30:src/tcb.cpp   **** 
  31:src/tcb.cpp   **** void CCB::threadWrapper() {
  12              		.loc 1 31 27
  13              		.cfi_startproc
  14 0000 130101FE 		addi	sp,sp,-32
  15              		.cfi_def_cfa_offset 32
  16 0004 233C1100 		sd	ra,24(sp)
  17 0008 23388100 		sd	s0,16(sp)
  18 000c 23349100 		sd	s1,8(sp)
  19              		.cfi_offset 1, -8
  20              		.cfi_offset 8, -16
  21              		.cfi_offset 9, -24
  22 0010 13040102 		addi	s0,sp,32
  23              		.cfi_def_cfa 8, 0
  32:src/tcb.cpp   ****     Riscv::popSppSpie();
  24              		.loc 1 32 5
  25              		.loc 1 32 22 is_stmt 0
  26 0014 97000000 		call	_ZN5Riscv10popSppSpieEv@plt
GAS LISTING /tmp/ccHV6P9G.s 			page 2


  26      E7800000 
  27              	.LVL0:
  33:src/tcb.cpp   ****     running->body(running->args);
  28              		.loc 1 33 5 is_stmt 1
  29              		.loc 1 33 14 is_stmt 0
  30 001c 97040000 		lla	s1,.LANCHOR0
  30      93840400 
  31 0024 83B70400 		ld	a5,0(s1)
  32 0028 03B70700 		ld	a4,0(a5)
  33              		.loc 1 33 18
  34 002c 03B50701 		ld	a0,16(a5)
  35 0030 E7000700 		jalr	a4
  36              	.LVL1:
  34:src/tcb.cpp   ****     running->setFinished(true);
  37              		.loc 1 34 5 is_stmt 1
  38              		.loc 1 34 25 is_stmt 0
  39 0034 83B70400 		ld	a5,0(s1)
  40              	.LVL2:
  41              	.LBB12:
  42              	.LBB13:
  43              		.file 2 "src/../h/tcb.hpp"
   1:src/../h/tcb.hpp **** //
   2:src/../h/tcb.hpp **** // Created by os on 6/24/22.
   3:src/../h/tcb.hpp **** //
   4:src/../h/tcb.hpp **** 
   5:src/../h/tcb.hpp **** #ifndef PROJECT_V33333333333_CCB_HPP
   6:src/../h/tcb.hpp **** #define PROJECT_V33333333333_CCB_HPP
   7:src/../h/tcb.hpp **** #include "../lib/hw.h"
   8:src/../h/tcb.hpp **** #include "Scheduler.hpp"
   9:src/../h/tcb.hpp **** #include "syscall_c.h"
  10:src/../h/tcb.hpp **** #include "MemoryAllocator.hpp"
  11:src/../h/tcb.hpp **** #include "Riscv.hpp"
  12:src/../h/tcb.hpp **** 
  13:src/../h/tcb.hpp **** // Coroutine Control Block
  14:src/../h/tcb.hpp **** class CCB
  15:src/../h/tcb.hpp **** {
  16:src/../h/tcb.hpp **** public:
  17:src/../h/tcb.hpp ****     ~CCB() { delete[] stack; }
  18:src/../h/tcb.hpp ****     void* operator new(size_t size) {
  19:src/../h/tcb.hpp ****         return MemoryAllocator::allocateB(size);
  20:src/../h/tcb.hpp ****     }
  21:src/../h/tcb.hpp ****     void operator delete(void* address) {
  22:src/../h/tcb.hpp ****         MemoryAllocator::free(address);
  23:src/../h/tcb.hpp ****     }
  24:src/../h/tcb.hpp **** 
  25:src/../h/tcb.hpp ****     bool isFinished() const { return finished; }
  26:src/../h/tcb.hpp ****     bool isBlocked() const { return blocked; }
  27:src/../h/tcb.hpp ****     void setFinished(bool value) { finished = value;}
  44              		.loc 2 27 36 is_stmt 1
  45              		.loc 2 27 45 is_stmt 0
  46 0038 13071000 		li	a4,1
  47 003c 2384E702 		sb	a4,40(a5)
  48              	.LVL3:
  49              	.LBE13:
  50              	.LBE12:
  35:src/tcb.cpp   ****     thread_dispatch();
  51              		.loc 1 35 5 is_stmt 1
GAS LISTING /tmp/ccHV6P9G.s 			page 3


  52              		.loc 1 35 20 is_stmt 0
  53 0040 97000000 		call	_Z15thread_dispatchv@plt
  53      E7800000 
  54              	.LVL4:
  36:src/tcb.cpp   **** }...
  55              		.loc 1 36 1
  56 0048 83308101 		ld	ra,24(sp)
  57              		.cfi_restore 1
  58 004c 03340101 		ld	s0,16(sp)
  59              		.cfi_restore 8
  60              		.cfi_def_cfa 2, 32
  61 0050 83348100 		ld	s1,8(sp)
  62              		.cfi_restore 9
  63 0054 13010102 		addi	sp,sp,32
  64              		.cfi_def_cfa_offset 0
  65 0058 67800000 		jr	ra
  66              		.cfi_endproc
  67              	.LFE49:
  69              		.align	2
  70              		.globl	_ZN3CCB15createCoroutineEPFvPvES0_
  72              	_ZN3CCB15createCoroutineEPFvPvES0_:
  73              	.LFB46:
  10:src/tcb.cpp   **** {
  74              		.loc 1 10 1 is_stmt 1
  75              		.cfi_startproc
  76              		.cfi_personality 0x9b,DW.ref.__gxx_personality_v0
  77              		.cfi_lsda 0x1b,.LLSDA46
  78              	.LVL5:
  79 005c 130101FD 		addi	sp,sp,-48
  80              		.cfi_def_cfa_offset 48
  81 0060 23341102 		sd	ra,40(sp)
  82 0064 23308102 		sd	s0,32(sp)
  83 0068 233C9100 		sd	s1,24(sp)
  84 006c 23382101 		sd	s2,16(sp)
  85 0070 23343101 		sd	s3,8(sp)
  86              		.cfi_offset 1, -8
  87              		.cfi_offset 8, -16
  88              		.cfi_offset 9, -24
  89              		.cfi_offset 18, -32
  90              		.cfi_offset 19, -40
  91 0074 13040103 		addi	s0,sp,48
  92              		.cfi_def_cfa 8, 0
  93 0078 13090500 		mv	s2,a0
  94 007c 93890500 		mv	s3,a1
  11:src/tcb.cpp   ****     return new CCB(body, args);
  95              		.loc 1 11 5
  96              	.LVL6:
  97              	.LBB21:
  98              	.LBB22:
  19:src/../h/tcb.hpp ****     }
  99              		.loc 2 19 9
  19:src/../h/tcb.hpp ****     }
 100              		.loc 2 19 42 is_stmt 0
 101 0080 13050003 		li	a0,48
 102              	.LVL7:
 103              	.LEHB0:
 104 0084 97000000 		call	_ZN15MemoryAllocator9allocateBEm@plt
GAS LISTING /tmp/ccHV6P9G.s 			page 4


 104      E7800000 
 105              	.LVL8:
 106              	.LEHE0:
 107 008c 93040500 		mv	s1,a0
 108              	.LVL9:
 109              	.LBE22:
 110              	.LBE21:
 111              	.LBB23:
 112              	.LBB24:
  28:src/../h/tcb.hpp ****     void setBlocked(bool value) { blocked = value; }
  29:src/../h/tcb.hpp ****     void setStarted(bool value) { started = value; }
  30:src/../h/tcb.hpp ****     bool getFinished() {return finished;}
  31:src/../h/tcb.hpp ****     using Body = void (*)(void*);
  32:src/../h/tcb.hpp ****     static CCB *createCoroutine(Body body, void* args);
  33:src/../h/tcb.hpp ****     static void yield();
  34:src/../h/tcb.hpp ****     static void dispatch();
  35:src/../h/tcb.hpp ****     static void threadWrapper();
  36:src/../h/tcb.hpp **** 
  37:src/../h/tcb.hpp ****     static CCB *running;
  38:src/../h/tcb.hpp **** 
  39:src/../h/tcb.hpp **** private:
  40:src/../h/tcb.hpp ****     explicit CCB(Body body, void* arg) :
  41:src/../h/tcb.hpp ****             body(body),
  42:src/../h/tcb.hpp ****             stack(body != nullptr ? (uint64*) MemoryAllocator::allocateB(sizeof(uint64) * STACK_SIZ
  43:src/../h/tcb.hpp ****             args(arg),
  44:src/../h/tcb.hpp ****             context({(uint64) &threadWrapper,
  45:src/../h/tcb.hpp ****                      stack != nullptr ? (uint64) &stack[STACK_SIZE] : 0
  46:src/../h/tcb.hpp ****                     }),
  47:src/../h/tcb.hpp ****             finished(false),
  48:src/../h/tcb.hpp ****             blocked(false),
  49:src/../h/tcb.hpp ****             started(false)
 113              		.loc 2 49 26
 114 0090 23302501 		sd	s2,0(a0)
  42:src/../h/tcb.hpp ****             args(arg),
 115              		.loc 2 42 35
 116 0094 630A0900 		beqz	s2,.L7
  42:src/../h/tcb.hpp ****             args(arg),
 117              		.loc 2 42 73
 118 0098 37250000 		li	a0,8192
 119              	.LEHB1:
 120 009c 97000000 		call	_ZN15MemoryAllocator9allocateBEm@plt
 120      E7800000 
 121              	.LVL10:
 122              	.LEHE1:
 123 00a4 6F008000 		j	.L4
 124              	.L7:
  42:src/../h/tcb.hpp ****             args(arg),
 125              		.loc 2 42 35
 126 00a8 13050000 		li	a0,0
 127              	.L4:
 128              		.loc 2 49 26
 129 00ac 23B4A400 		sd	a0,8(s1)
 130 00b0 23B83401 		sd	s3,16(s1)
 131 00b4 97070000 		lla	a5,_ZN3CCB13threadWrapperEv
 131      93870700 
 132 00bc 23BCF400 		sd	a5,24(s1)
  45:src/../h/tcb.hpp ****                     }),
GAS LISTING /tmp/ccHV6P9G.s 			page 5


 133              		.loc 2 45 39
 134 00c0 630E0502 		beqz	a0,.L8
  45:src/../h/tcb.hpp ****                     }),
 135              		.loc 2 45 50
 136 00c4 B7270000 		li	a5,8192
 137 00c8 3305F500 		add	a0,a0,a5
 138              	.L5:
 139              		.loc 2 49 26
 140 00cc 23B0A402 		sd	a0,32(s1)
 141 00d0 23840402 		sb	zero,40(s1)
 142 00d4 A3840402 		sb	zero,41(s1)
 143 00d8 23850402 		sb	zero,42(s1)
 144              	.LVL11:
 145              	.LBE24:
 146              	.LBE23:
  12:src/tcb.cpp   **** }
 147              		.loc 1 12 1
 148 00dc 13850400 		mv	a0,s1
 149 00e0 83308102 		ld	ra,40(sp)
 150              		.cfi_remember_state
 151              		.cfi_restore 1
 152 00e4 03340102 		ld	s0,32(sp)
 153              		.cfi_restore 8
 154              		.cfi_def_cfa 2, 48
 155 00e8 83348101 		ld	s1,24(sp)
 156              		.cfi_restore 9
 157 00ec 03390101 		ld	s2,16(sp)
 158              		.cfi_restore 18
 159              	.LVL12:
 160 00f0 83398100 		ld	s3,8(sp)
 161              		.cfi_restore 19
 162              	.LVL13:
 163 00f4 13010103 		addi	sp,sp,48
 164              		.cfi_def_cfa_offset 0
 165 00f8 67800000 		jr	ra
 166              	.LVL14:
 167              	.L8:
 168              		.cfi_restore_state
 169              	.LBB26:
 170              	.LBB25:
  45:src/../h/tcb.hpp ****                     }),
 171              		.loc 2 45 39
 172 00fc 13050000 		li	a0,0
 173 0100 6FF0DFFC 		j	.L5
 174              	.L9:
 175 0104 13090500 		mv	s2,a0
 176              	.LVL15:
 177              	.LBE25:
 178              	.LBE26:
 179              	.LBB27:
 180              	.LBB28:
  22:src/../h/tcb.hpp ****     }
 181              		.loc 2 22 9 is_stmt 1
  22:src/../h/tcb.hpp ****     }
 182              		.loc 2 22 30 is_stmt 0
 183 0108 13850400 		mv	a0,s1
 184 010c 97000000 		call	_ZN15MemoryAllocator4freeEPv@plt
GAS LISTING /tmp/ccHV6P9G.s 			page 6


 184      E7800000 
 185              	.LVL16:
 186 0114 13050900 		mv	a0,s2
 187              	.LEHB2:
 188 0118 97000000 		call	_Unwind_Resume@plt
 188      E7800000 
 189              	.LVL17:
 190              	.LEHE2:
 191              	.LBE28:
 192              	.LBE27:
 193              		.cfi_endproc
 194              	.LFE46:
 195              		.globl	__gxx_personality_v0
 196              		.section	.gcc_except_table,"a",@progbits
 197              	.LLSDA46:
 198 0000 FF       		.byte	0xff
 199 0001 FF       		.byte	0xff
 200 0002 03       		.byte	0x3
 201 0003 27       		.byte	0x27
 202 0004 00000000 		.4byte	.LEHB0-.LFB46
 203 0008 00000000 		.4byte	.LEHE0-.LEHB0
 204 000c 00000000 		.4byte	0
 205 0010 00       		.byte	0
 206 0011 00000000 		.4byte	.LEHB1-.LFB46
 207 0015 00000000 		.4byte	.LEHE1-.LEHB1
 208 0019 00000000 		.4byte	.L9-.LFB46
 209 001d 00       		.byte	0
 210 001e 00000000 		.4byte	.LEHB2-.LFB46
 211 0022 00000000 		.4byte	.LEHE2-.LEHB2
 212 0026 00000000 		.4byte	0
 213 002a 00       		.byte	0
 214              		.text
 216              		.align	2
 217              		.globl	_ZN3CCB8dispatchEv
 219              	_ZN3CCB8dispatchEv:
 220              	.LFB48:
  24:src/tcb.cpp   **** {
 221              		.loc 1 24 1 is_stmt 1
 222              		.cfi_startproc
 223 0120 130101FE 		addi	sp,sp,-32
 224              		.cfi_def_cfa_offset 32
 225 0124 233C1100 		sd	ra,24(sp)
 226 0128 23388100 		sd	s0,16(sp)
 227 012c 23349100 		sd	s1,8(sp)
 228              		.cfi_offset 1, -8
 229              		.cfi_offset 8, -16
 230              		.cfi_offset 9, -24
 231 0130 13040102 		addi	s0,sp,32
 232              		.cfi_def_cfa 8, 0
  25:src/tcb.cpp   ****     CCB *old = running;
 233              		.loc 1 25 5
  25:src/tcb.cpp   ****     CCB *old = running;
 234              		.loc 1 25 10 is_stmt 0
 235 0134 97040000 		ld	s1,.LANCHOR0
 235      83B40400 
 236              	.LVL18:
  26:src/tcb.cpp   ****     if (!old->isFinished() && !old->isBlocked()) { Scheduler::put(old); }
GAS LISTING /tmp/ccHV6P9G.s 			page 7


 237              		.loc 1 26 5 is_stmt 1
 238              	.LBB29:
 239              	.LBB30:
  25:src/../h/tcb.hpp ****     bool isBlocked() const { return blocked; }
 240              		.loc 2 25 31
  25:src/../h/tcb.hpp ****     bool isBlocked() const { return blocked; }
 241              		.loc 2 25 38 is_stmt 0
 242 013c 83C78402 		lbu	a5,40(s1)
 243              	.LVL19:
 244              	.LBE30:
 245              	.LBE29:
  26:src/tcb.cpp   ****     if (!old->isFinished() && !old->isBlocked()) { Scheduler::put(old); }
 246              		.loc 1 26 28
 247 0140 63960700 		bnez	a5,.L13
 248              	.LVL20:
 249              	.LBB31:
 250              	.LBB32:
  26:src/../h/tcb.hpp ****     void setFinished(bool value) { finished = value;}
 251              		.loc 2 26 30 is_stmt 1
  26:src/../h/tcb.hpp ****     void setFinished(bool value) { finished = value;}
 252              		.loc 2 26 37 is_stmt 0
 253 0144 83C79402 		lbu	a5,41(s1)
 254              	.LVL21:
 255              	.LBE32:
 256              	.LBE31:
  26:src/tcb.cpp   ****     if (!old->isFinished() && !old->isBlocked()) { Scheduler::put(old); }
 257              		.loc 1 26 28
 258 0148 638C0702 		beqz	a5,.L15
 259              	.L13:
  27:src/tcb.cpp   ****     running = Scheduler::get();
 260              		.loc 1 27 5 is_stmt 1
  27:src/tcb.cpp   ****     running = Scheduler::get();
 261              		.loc 1 27 29 is_stmt 0
 262 014c 97000000 		call	_ZN9Scheduler3getEv@plt
 262      E7800000 
 263              	.LVL22:
  27:src/tcb.cpp   ****     running = Scheduler::get();
 264              		.loc 1 27 13
 265 0154 97070000 		sd	a0,.LANCHOR0,a5
 265      23B0A700 
  28:src/tcb.cpp   ****     CCB::contextSwitch(&old->context, &running->context);
 266              		.loc 1 28 5 is_stmt 1
  28:src/tcb.cpp   ****     CCB::contextSwitch(&old->context, &running->context);
 267              		.loc 1 28 23 is_stmt 0
 268 015c 93058501 		addi	a1,a0,24
 269 0160 13858401 		addi	a0,s1,24
 270 0164 97000000 		call	_ZN3CCB13contextSwitchEPNS_7ContextES1_@plt
 270      E7800000 
 271              	.LVL23:
  29:src/tcb.cpp   **** }
 272              		.loc 1 29 1
 273 016c 83308101 		ld	ra,24(sp)
 274              		.cfi_remember_state
 275              		.cfi_restore 1
 276 0170 03340101 		ld	s0,16(sp)
 277              		.cfi_restore 8
 278              		.cfi_def_cfa 2, 32
GAS LISTING /tmp/ccHV6P9G.s 			page 8


 279 0174 83348100 		ld	s1,8(sp)
 280              		.cfi_restore 9
 281              	.LVL24:
 282 0178 13010102 		addi	sp,sp,32
 283              		.cfi_def_cfa_offset 0
 284 017c 67800000 		jr	ra
 285              	.LVL25:
 286              	.L15:
 287              		.cfi_restore_state
  26:src/tcb.cpp   ****     if (!old->isFinished() && !old->isBlocked()) { Scheduler::put(old); }
 288              		.loc 1 26 52 is_stmt 1
  26:src/tcb.cpp   ****     if (!old->isFinished() && !old->isBlocked()) { Scheduler::put(old); }
 289              		.loc 1 26 66 is_stmt 0
 290 0180 13850400 		mv	a0,s1
 291 0184 97000000 		call	_ZN9Scheduler3putEP3CCB@plt
 291      E7800000 
 292              	.LVL26:
 293 018c 6FF01FFC 		j	.L13
 294              		.cfi_endproc
 295              	.LFE48:
 297              		.align	2
 298              		.globl	_ZN3CCB5yieldEv
 300              	_ZN3CCB5yieldEv:
 301              	.LFB47:
  15:src/tcb.cpp   **** {
 302              		.loc 1 15 1 is_stmt 1
 303              		.cfi_startproc
 304 0190 130101FF 		addi	sp,sp,-16
 305              		.cfi_def_cfa_offset 16
 306 0194 23341100 		sd	ra,8(sp)
 307 0198 23308100 		sd	s0,0(sp)
 308              		.cfi_offset 1, -8
 309              		.cfi_offset 8, -16
 310 019c 13040101 		addi	s0,sp,16
 311              		.cfi_def_cfa 8, 0
  16:src/tcb.cpp   ****     Riscv::pushRegisters();
 312              		.loc 1 16 5
  16:src/tcb.cpp   ****     Riscv::pushRegisters();
 313              		.loc 1 16 25 is_stmt 0
 314 01a0 97000000 		call	_ZN5Riscv13pushRegistersEv@plt
 314      E7800000 
 315              	.LVL27:
  18:src/tcb.cpp   ****     CCB::dispatch();
 316              		.loc 1 18 5 is_stmt 1
  18:src/tcb.cpp   ****     CCB::dispatch();
 317              		.loc 1 18 18 is_stmt 0
 318 01a8 97000000 		call	_ZN3CCB8dispatchEv
 318      E7800000 
 319              	.LVL28:
  20:src/tcb.cpp   ****     Riscv::popRegisters();
 320              		.loc 1 20 5 is_stmt 1
  20:src/tcb.cpp   ****     Riscv::popRegisters();
 321              		.loc 1 20 24 is_stmt 0
 322 01b0 97000000 		call	_ZN5Riscv12popRegistersEv@plt
 322      E7800000 
 323              	.LVL29:
  21:src/tcb.cpp   **** }
GAS LISTING /tmp/ccHV6P9G.s 			page 9


 324              		.loc 1 21 1
 325 01b8 83308100 		ld	ra,8(sp)
 326              		.cfi_restore 1
 327 01bc 03340100 		ld	s0,0(sp)
 328              		.cfi_restore 8
 329              		.cfi_def_cfa 2, 16
 330 01c0 13010101 		addi	sp,sp,16
 331              		.cfi_def_cfa_offset 0
 332 01c4 67800000 		jr	ra
 333              		.cfi_endproc
 334              	.LFE47:
 336              		.globl	_ZN3CCB7runningE
 337              		.bss
 338              		.align	3
 339              		.set	.LANCHOR0,. + 0
 342              	_ZN3CCB7runningE:
 343 0000 00000000 		.zero	8
 343      00000000 
 344              		.text
 345              	.Letext0:
 346              		.file 3 "src/../h/../lib/hw.h"
 347              		.file 4 "src/../h/MemoryAllocator.hpp"
 348              		.file 5 "src/../h/Scheduler.hpp"
 349              		.file 6 "src/../h/Riscv.hpp"
 350              		.file 7 "src/../h/syscall_c.h"
 2941              		.align	3
 2944              	DW.ref.__gxx_personality_v0:
 2945 0000 00000000 		.dword	__gxx_personality_v0
 2945      00000000 
 2946              		.ident	"GCC: (Ubuntu 9.4.0-1ubuntu1~20.04) 9.4.0"
 2947              		.section	.note.GNU-stack,"",@progbits
GAS LISTING /tmp/ccHV6P9G.s 			page 10

