GAS LISTING /tmp/cc7ZC48C.s 			page 1


   1              		.file	"userMain.cpp"
   2              		.option pic
   3              		.option norelax
   4              		.text
   5              	.Ltext0:
   6              		.section	.text._ZN7WorkerAD2Ev,"axG",@progbits,_ZN7WorkerAD5Ev,comdat
   7              		.align	2
   8              		.weak	_ZN7WorkerAD2Ev
  10              	_ZN7WorkerAD2Ev:
  11              	.LFB37:
  12              		.file 1 "src/../test/Threads_CPP_API_test.hpp"
   1:src/../test/Threads_CPP_API_test.hpp **** #ifndef XV6_THREADS_CPP_API_TEST_HPP
   2:src/../test/Threads_CPP_API_test.hpp **** #define XV6_THREADS_CPP_API_TEST_HPP
   3:src/../test/Threads_CPP_API_test.hpp **** 
   4:src/../test/Threads_CPP_API_test.hpp **** #include "../h/syscall_cpp.hpp"
   5:src/../test/Threads_CPP_API_test.hpp **** 
   6:src/../test/Threads_CPP_API_test.hpp **** #include "../h/printing.hpp"
   7:src/../test/Threads_CPP_API_test.hpp **** 
   8:src/../test/Threads_CPP_API_test.hpp **** bool finishedA = false;
   9:src/../test/Threads_CPP_API_test.hpp **** bool finishedB = false;
  10:src/../test/Threads_CPP_API_test.hpp **** bool finishedC = false;
  11:src/../test/Threads_CPP_API_test.hpp **** bool finishedD = false;
  12:src/../test/Threads_CPP_API_test.hpp **** 
  13:src/../test/Threads_CPP_API_test.hpp **** uint64 fibonacci(uint64 n) {
  14:src/../test/Threads_CPP_API_test.hpp ****     if (n == 0 || n == 1) { return n; }
  15:src/../test/Threads_CPP_API_test.hpp ****     if (n % 10 == 0) { thread_dispatch(); }
  16:src/../test/Threads_CPP_API_test.hpp ****     return fibonacci(n - 1) + fibonacci(n - 2);
  17:src/../test/Threads_CPP_API_test.hpp **** }
  18:src/../test/Threads_CPP_API_test.hpp **** 
  19:src/../test/Threads_CPP_API_test.hpp **** class WorkerA: public Thread {
  13              		.loc 1 19 7
  14              		.cfi_startproc
  15              	.LVL0:
  16 0000 130101FF 		addi	sp,sp,-16
  17              		.cfi_def_cfa_offset 16
  18 0004 23341100 		sd	ra,8(sp)
  19 0008 23308100 		sd	s0,0(sp)
  20              		.cfi_offset 1, -8
  21              		.cfi_offset 8, -16
  22 000c 13040101 		addi	s0,sp,16
  23              		.cfi_def_cfa 8, 0
  24              	.LBB28:
  25              		.loc 1 19 7 is_stmt 0
  26 0010 97070000 		lla	a5,_ZTV7WorkerA+16
  26      93870700 
  27 0018 2330F500 		sd	a5,0(a0)
  28 001c 97000000 		call	_ZN6ThreadD2Ev@plt
  28      E7800000 
  29              	.LVL1:
  30              	.LBE28:
  31 0024 83308100 		ld	ra,8(sp)
  32              		.cfi_restore 1
  33 0028 03340100 		ld	s0,0(sp)
  34              		.cfi_restore 8
  35              		.cfi_def_cfa 2, 16
  36 002c 13010101 		addi	sp,sp,16
  37              		.cfi_def_cfa_offset 0
GAS LISTING /tmp/cc7ZC48C.s 			page 2


  38 0030 67800000 		jr	ra
  39              		.cfi_endproc
  40              	.LFE37:
  42              		.weak	_ZN7WorkerAD1Ev
  43              		.set	_ZN7WorkerAD1Ev,_ZN7WorkerAD2Ev
  44              		.section	.text._ZN7WorkerAD0Ev,"axG",@progbits,_ZN7WorkerAD5Ev,comdat
  45              		.align	2
  46              		.weak	_ZN7WorkerAD0Ev
  48              	_ZN7WorkerAD0Ev:
  49              	.LFB39:
  50              		.loc 1 19 7 is_stmt 1
  51              		.cfi_startproc
  52              	.LVL2:
  53 0000 130101FE 		addi	sp,sp,-32
  54              		.cfi_def_cfa_offset 32
  55 0004 233C1100 		sd	ra,24(sp)
  56 0008 23388100 		sd	s0,16(sp)
  57 000c 23349100 		sd	s1,8(sp)
  58              		.cfi_offset 1, -8
  59              		.cfi_offset 8, -16
  60              		.cfi_offset 9, -24
  61 0010 13040102 		addi	s0,sp,32
  62              		.cfi_def_cfa 8, 0
  63 0014 93040500 		mv	s1,a0
  64              	.LVL3:
  65              	.LBB29:
  66              	.LBB30:
  67              		.loc 1 19 7 is_stmt 0
  68 0018 97070000 		lla	a5,_ZTV7WorkerA+16
  68      93870700 
  69 0020 2330F500 		sd	a5,0(a0)
  70 0024 97000000 		call	_ZN6ThreadD2Ev@plt
  70      E7800000 
  71              	.LVL4:
  72              	.LBE30:
  73              	.LBE29:
  74 002c 13850400 		mv	a0,s1
  75 0030 97000000 		call	_ZdlPv@plt
  75      E7800000 
  76              	.LVL5:
  77 0038 83308101 		ld	ra,24(sp)
  78              		.cfi_restore 1
  79 003c 03340101 		ld	s0,16(sp)
  80              		.cfi_restore 8
  81              		.cfi_def_cfa 2, 32
  82 0040 83348100 		ld	s1,8(sp)
  83              		.cfi_restore 9
  84              	.LVL6:
  85 0044 13010102 		addi	sp,sp,32
  86              		.cfi_def_cfa_offset 0
  87 0048 67800000 		jr	ra
  88              		.cfi_endproc
  89              	.LFE39:
  91              		.section	.text._ZN7WorkerBD2Ev,"axG",@progbits,_ZN7WorkerBD5Ev,comdat
  92              		.align	2
  93              		.weak	_ZN7WorkerBD2Ev
  95              	_ZN7WorkerBD2Ev:
GAS LISTING /tmp/cc7ZC48C.s 			page 3


  96              	.LFB33:
  20:src/../test/Threads_CPP_API_test.hpp ****     void workerBodyA(void* arg);
  21:src/../test/Threads_CPP_API_test.hpp **** public:
  22:src/../test/Threads_CPP_API_test.hpp ****     WorkerA():Thread() {}
  23:src/../test/Threads_CPP_API_test.hpp **** 
  24:src/../test/Threads_CPP_API_test.hpp ****     void run() override {
  25:src/../test/Threads_CPP_API_test.hpp ****         workerBodyA(nullptr);
  26:src/../test/Threads_CPP_API_test.hpp ****     }
  27:src/../test/Threads_CPP_API_test.hpp **** };
  28:src/../test/Threads_CPP_API_test.hpp **** 
  29:src/../test/Threads_CPP_API_test.hpp **** class WorkerB: public Thread {
  97              		.loc 1 29 7 is_stmt 1
  98              		.cfi_startproc
  99              	.LVL7:
 100 0000 130101FF 		addi	sp,sp,-16
 101              		.cfi_def_cfa_offset 16
 102 0004 23341100 		sd	ra,8(sp)
 103 0008 23308100 		sd	s0,0(sp)
 104              		.cfi_offset 1, -8
 105              		.cfi_offset 8, -16
 106 000c 13040101 		addi	s0,sp,16
 107              		.cfi_def_cfa 8, 0
 108              	.LBB31:
 109              		.loc 1 29 7 is_stmt 0
 110 0010 97070000 		lla	a5,_ZTV7WorkerB+16
 110      93870700 
 111 0018 2330F500 		sd	a5,0(a0)
 112 001c 97000000 		call	_ZN6ThreadD2Ev@plt
 112      E7800000 
 113              	.LVL8:
 114              	.LBE31:
 115 0024 83308100 		ld	ra,8(sp)
 116              		.cfi_restore 1
 117 0028 03340100 		ld	s0,0(sp)
 118              		.cfi_restore 8
 119              		.cfi_def_cfa 2, 16
 120 002c 13010101 		addi	sp,sp,16
 121              		.cfi_def_cfa_offset 0
 122 0030 67800000 		jr	ra
 123              		.cfi_endproc
 124              	.LFE33:
 126              		.weak	_ZN7WorkerBD1Ev
 127              		.set	_ZN7WorkerBD1Ev,_ZN7WorkerBD2Ev
 128              		.section	.text._ZN7WorkerBD0Ev,"axG",@progbits,_ZN7WorkerBD5Ev,comdat
 129              		.align	2
 130              		.weak	_ZN7WorkerBD0Ev
 132              	_ZN7WorkerBD0Ev:
 133              	.LFB35:
 134              		.loc 1 29 7 is_stmt 1
 135              		.cfi_startproc
 136              	.LVL9:
 137 0000 130101FE 		addi	sp,sp,-32
 138              		.cfi_def_cfa_offset 32
 139 0004 233C1100 		sd	ra,24(sp)
 140 0008 23388100 		sd	s0,16(sp)
 141 000c 23349100 		sd	s1,8(sp)
 142              		.cfi_offset 1, -8
GAS LISTING /tmp/cc7ZC48C.s 			page 4


 143              		.cfi_offset 8, -16
 144              		.cfi_offset 9, -24
 145 0010 13040102 		addi	s0,sp,32
 146              		.cfi_def_cfa 8, 0
 147 0014 93040500 		mv	s1,a0
 148              	.LVL10:
 149              	.LBB32:
 150              	.LBB33:
 151              		.loc 1 29 7 is_stmt 0
 152 0018 97070000 		lla	a5,_ZTV7WorkerB+16
 152      93870700 
 153 0020 2330F500 		sd	a5,0(a0)
 154 0024 97000000 		call	_ZN6ThreadD2Ev@plt
 154      E7800000 
 155              	.LVL11:
 156              	.LBE33:
 157              	.LBE32:
 158 002c 13850400 		mv	a0,s1
 159 0030 97000000 		call	_ZdlPv@plt
 159      E7800000 
 160              	.LVL12:
 161 0038 83308101 		ld	ra,24(sp)
 162              		.cfi_restore 1
 163 003c 03340101 		ld	s0,16(sp)
 164              		.cfi_restore 8
 165              		.cfi_def_cfa 2, 32
 166 0040 83348100 		ld	s1,8(sp)
 167              		.cfi_restore 9
 168              	.LVL13:
 169 0044 13010102 		addi	sp,sp,32
 170              		.cfi_def_cfa_offset 0
 171 0048 67800000 		jr	ra
 172              		.cfi_endproc
 173              	.LFE35:
 175              		.section	.text._ZN7WorkerCD2Ev,"axG",@progbits,_ZN7WorkerCD5Ev,comdat
 176              		.align	2
 177              		.weak	_ZN7WorkerCD2Ev
 179              	_ZN7WorkerCD2Ev:
 180              	.LFB29:
  30:src/../test/Threads_CPP_API_test.hpp ****     void workerBodyB(void* arg);
  31:src/../test/Threads_CPP_API_test.hpp **** public:
  32:src/../test/Threads_CPP_API_test.hpp ****     WorkerB():Thread() {}
  33:src/../test/Threads_CPP_API_test.hpp **** 
  34:src/../test/Threads_CPP_API_test.hpp ****     void run() override {
  35:src/../test/Threads_CPP_API_test.hpp ****         workerBodyB(nullptr);
  36:src/../test/Threads_CPP_API_test.hpp ****     }
  37:src/../test/Threads_CPP_API_test.hpp **** };
  38:src/../test/Threads_CPP_API_test.hpp **** 
  39:src/../test/Threads_CPP_API_test.hpp **** class WorkerC: public Thread {
 181              		.loc 1 39 7 is_stmt 1
 182              		.cfi_startproc
 183              	.LVL14:
 184 0000 130101FF 		addi	sp,sp,-16
 185              		.cfi_def_cfa_offset 16
 186 0004 23341100 		sd	ra,8(sp)
 187 0008 23308100 		sd	s0,0(sp)
 188              		.cfi_offset 1, -8
GAS LISTING /tmp/cc7ZC48C.s 			page 5


 189              		.cfi_offset 8, -16
 190 000c 13040101 		addi	s0,sp,16
 191              		.cfi_def_cfa 8, 0
 192              	.LBB34:
 193              		.loc 1 39 7 is_stmt 0
 194 0010 97070000 		lla	a5,_ZTV7WorkerC+16
 194      93870700 
 195 0018 2330F500 		sd	a5,0(a0)
 196 001c 97000000 		call	_ZN6ThreadD2Ev@plt
 196      E7800000 
 197              	.LVL15:
 198              	.LBE34:
 199 0024 83308100 		ld	ra,8(sp)
 200              		.cfi_restore 1
 201 0028 03340100 		ld	s0,0(sp)
 202              		.cfi_restore 8
 203              		.cfi_def_cfa 2, 16
 204 002c 13010101 		addi	sp,sp,16
 205              		.cfi_def_cfa_offset 0
 206 0030 67800000 		jr	ra
 207              		.cfi_endproc
 208              	.LFE29:
 210              		.weak	_ZN7WorkerCD1Ev
 211              		.set	_ZN7WorkerCD1Ev,_ZN7WorkerCD2Ev
 212              		.section	.text._ZN7WorkerCD0Ev,"axG",@progbits,_ZN7WorkerCD5Ev,comdat
 213              		.align	2
 214              		.weak	_ZN7WorkerCD0Ev
 216              	_ZN7WorkerCD0Ev:
 217              	.LFB31:
 218              		.loc 1 39 7 is_stmt 1
 219              		.cfi_startproc
 220              	.LVL16:
 221 0000 130101FE 		addi	sp,sp,-32
 222              		.cfi_def_cfa_offset 32
 223 0004 233C1100 		sd	ra,24(sp)
 224 0008 23388100 		sd	s0,16(sp)
 225 000c 23349100 		sd	s1,8(sp)
 226              		.cfi_offset 1, -8
 227              		.cfi_offset 8, -16
 228              		.cfi_offset 9, -24
 229 0010 13040102 		addi	s0,sp,32
 230              		.cfi_def_cfa 8, 0
 231 0014 93040500 		mv	s1,a0
 232              	.LVL17:
 233              	.LBB35:
 234              	.LBB36:
 235              		.loc 1 39 7 is_stmt 0
 236 0018 97070000 		lla	a5,_ZTV7WorkerC+16
 236      93870700 
 237 0020 2330F500 		sd	a5,0(a0)
 238 0024 97000000 		call	_ZN6ThreadD2Ev@plt
 238      E7800000 
 239              	.LVL18:
 240              	.LBE36:
 241              	.LBE35:
 242 002c 13850400 		mv	a0,s1
 243 0030 97000000 		call	_ZdlPv@plt
GAS LISTING /tmp/cc7ZC48C.s 			page 6


 243      E7800000 
 244              	.LVL19:
 245 0038 83308101 		ld	ra,24(sp)
 246              		.cfi_restore 1
 247 003c 03340101 		ld	s0,16(sp)
 248              		.cfi_restore 8
 249              		.cfi_def_cfa 2, 32
 250 0040 83348100 		ld	s1,8(sp)
 251              		.cfi_restore 9
 252              	.LVL20:
 253 0044 13010102 		addi	sp,sp,32
 254              		.cfi_def_cfa_offset 0
 255 0048 67800000 		jr	ra
 256              		.cfi_endproc
 257              	.LFE31:
 259              		.section	.text._ZN7WorkerDD2Ev,"axG",@progbits,_ZN7WorkerDD5Ev,comdat
 260              		.align	2
 261              		.weak	_ZN7WorkerDD2Ev
 263              	_ZN7WorkerDD2Ev:
 264              	.LFB25:
  40:src/../test/Threads_CPP_API_test.hpp ****     void workerBodyC(void* arg);
  41:src/../test/Threads_CPP_API_test.hpp **** public:
  42:src/../test/Threads_CPP_API_test.hpp ****     WorkerC():Thread() {}
  43:src/../test/Threads_CPP_API_test.hpp **** 
  44:src/../test/Threads_CPP_API_test.hpp ****     void run() override {
  45:src/../test/Threads_CPP_API_test.hpp ****         workerBodyC(nullptr);
  46:src/../test/Threads_CPP_API_test.hpp ****     }
  47:src/../test/Threads_CPP_API_test.hpp **** };
  48:src/../test/Threads_CPP_API_test.hpp **** 
  49:src/../test/Threads_CPP_API_test.hpp **** class WorkerD: public Thread {
 265              		.loc 1 49 7 is_stmt 1
 266              		.cfi_startproc
 267              	.LVL21:
 268 0000 130101FF 		addi	sp,sp,-16
 269              		.cfi_def_cfa_offset 16
 270 0004 23341100 		sd	ra,8(sp)
 271 0008 23308100 		sd	s0,0(sp)
 272              		.cfi_offset 1, -8
 273              		.cfi_offset 8, -16
 274 000c 13040101 		addi	s0,sp,16
 275              		.cfi_def_cfa 8, 0
 276              	.LBB37:
 277              		.loc 1 49 7 is_stmt 0
 278 0010 97070000 		lla	a5,_ZTV7WorkerD+16
 278      93870700 
 279 0018 2330F500 		sd	a5,0(a0)
 280 001c 97000000 		call	_ZN6ThreadD2Ev@plt
 280      E7800000 
 281              	.LVL22:
 282              	.LBE37:
 283 0024 83308100 		ld	ra,8(sp)
 284              		.cfi_restore 1
 285 0028 03340100 		ld	s0,0(sp)
 286              		.cfi_restore 8
 287              		.cfi_def_cfa 2, 16
 288 002c 13010101 		addi	sp,sp,16
 289              		.cfi_def_cfa_offset 0
GAS LISTING /tmp/cc7ZC48C.s 			page 7


 290 0030 67800000 		jr	ra
 291              		.cfi_endproc
 292              	.LFE25:
 294              		.weak	_ZN7WorkerDD1Ev
 295              		.set	_ZN7WorkerDD1Ev,_ZN7WorkerDD2Ev
 296              		.section	.text._ZN7WorkerDD0Ev,"axG",@progbits,_ZN7WorkerDD5Ev,comdat
 297              		.align	2
 298              		.weak	_ZN7WorkerDD0Ev
 300              	_ZN7WorkerDD0Ev:
 301              	.LFB27:
 302              		.loc 1 49 7 is_stmt 1
 303              		.cfi_startproc
 304              	.LVL23:
 305 0000 130101FE 		addi	sp,sp,-32
 306              		.cfi_def_cfa_offset 32
 307 0004 233C1100 		sd	ra,24(sp)
 308 0008 23388100 		sd	s0,16(sp)
 309 000c 23349100 		sd	s1,8(sp)
 310              		.cfi_offset 1, -8
 311              		.cfi_offset 8, -16
 312              		.cfi_offset 9, -24
 313 0010 13040102 		addi	s0,sp,32
 314              		.cfi_def_cfa 8, 0
 315 0014 93040500 		mv	s1,a0
 316              	.LVL24:
 317              	.LBB38:
 318              	.LBB39:
 319              		.loc 1 49 7 is_stmt 0
 320 0018 97070000 		lla	a5,_ZTV7WorkerD+16
 320      93870700 
 321 0020 2330F500 		sd	a5,0(a0)
 322 0024 97000000 		call	_ZN6ThreadD2Ev@plt
 322      E7800000 
 323              	.LVL25:
 324              	.LBE39:
 325              	.LBE38:
 326 002c 13850400 		mv	a0,s1
 327 0030 97000000 		call	_ZdlPv@plt
 327      E7800000 
 328              	.LVL26:
 329 0038 83308101 		ld	ra,24(sp)
 330              		.cfi_restore 1
 331 003c 03340101 		ld	s0,16(sp)
 332              		.cfi_restore 8
 333              		.cfi_def_cfa 2, 32
 334 0040 83348100 		ld	s1,8(sp)
 335              		.cfi_restore 9
 336              	.LVL27:
 337 0044 13010102 		addi	sp,sp,32
 338              		.cfi_def_cfa_offset 0
 339 0048 67800000 		jr	ra
 340              		.cfi_endproc
 341              	.LFE27:
 343              		.text
 344              		.align	2
 345              		.globl	_Z9fibonaccim
 347              	_Z9fibonaccim:
GAS LISTING /tmp/cc7ZC48C.s 			page 8


 348              	.LFB1:
  13:src/../test/Threads_CPP_API_test.hpp ****     if (n == 0 || n == 1) { return n; }
 349              		.loc 1 13 28 is_stmt 1
 350              		.cfi_startproc
 351              	.LVL28:
 352 0000 130101FE 		addi	sp,sp,-32
 353              		.cfi_def_cfa_offset 32
 354 0004 233C1100 		sd	ra,24(sp)
 355 0008 23388100 		sd	s0,16(sp)
 356 000c 23349100 		sd	s1,8(sp)
 357 0010 23302101 		sd	s2,0(sp)
 358              		.cfi_offset 1, -8
 359              		.cfi_offset 8, -16
 360              		.cfi_offset 9, -24
 361              		.cfi_offset 18, -32
 362 0014 13040102 		addi	s0,sp,32
 363              		.cfi_def_cfa 8, 0
 364 0018 93040500 		mv	s1,a0
  14:src/../test/Threads_CPP_API_test.hpp ****     if (n % 10 == 0) { thread_dispatch(); }
 365              		.loc 1 14 5
 366 001c 93071000 		li	a5,1
 367 0020 63F8A702 		bleu	a0,a5,.L17
  15:src/../test/Threads_CPP_API_test.hpp ****     return fibonacci(n - 1) + fibonacci(n - 2);
 368              		.loc 1 15 5
  15:src/../test/Threads_CPP_API_test.hpp ****     return fibonacci(n - 1) + fibonacci(n - 2);
 369              		.loc 1 15 11 is_stmt 0
 370 0024 9307A000 		li	a5,10
 371 0028 B377F502 		remu	a5,a0,a5
  15:src/../test/Threads_CPP_API_test.hpp ****     return fibonacci(n - 1) + fibonacci(n - 2);
 372              		.loc 1 15 5
 373 002c 638E0702 		beqz	a5,.L22
 374              	.LVL29:
 375              	.L19:
  16:src/../test/Threads_CPP_API_test.hpp **** }
 376              		.loc 1 16 5 is_stmt 1
  16:src/../test/Threads_CPP_API_test.hpp **** }
 377              		.loc 1 16 21 is_stmt 0
 378 0030 1385F4FF 		addi	a0,s1,-1
 379 0034 97000000 		call	_Z9fibonaccim
 379      E7800000 
 380              	.LVL30:
 381 003c 13090500 		mv	s2,a0
  16:src/../test/Threads_CPP_API_test.hpp **** }
 382              		.loc 1 16 40
 383 0040 1385E4FF 		addi	a0,s1,-2
 384 0044 97000000 		call	_Z9fibonaccim
 384      E7800000 
 385              	.LVL31:
  16:src/../test/Threads_CPP_API_test.hpp **** }
 386              		.loc 1 16 46
 387 004c 3305A900 		add	a0,s2,a0
 388              	.L17:
  17:src/../test/Threads_CPP_API_test.hpp **** 
 389              		.loc 1 17 1
 390 0050 83308101 		ld	ra,24(sp)
 391              		.cfi_remember_state
 392              		.cfi_restore 1
GAS LISTING /tmp/cc7ZC48C.s 			page 9


 393 0054 03340101 		ld	s0,16(sp)
 394              		.cfi_restore 8
 395              		.cfi_def_cfa 2, 32
 396 0058 83348100 		ld	s1,8(sp)
 397              		.cfi_restore 9
 398              	.LVL32:
 399 005c 03390100 		ld	s2,0(sp)
 400              		.cfi_restore 18
 401 0060 13010102 		addi	sp,sp,32
 402              		.cfi_def_cfa_offset 0
 403 0064 67800000 		jr	ra
 404              	.LVL33:
 405              	.L22:
 406              		.cfi_restore_state
  15:src/../test/Threads_CPP_API_test.hpp ****     return fibonacci(n - 1) + fibonacci(n - 2);
 407              		.loc 1 15 24 is_stmt 1 discriminator 1
  15:src/../test/Threads_CPP_API_test.hpp ****     return fibonacci(n - 1) + fibonacci(n - 2);
 408              		.loc 1 15 39 is_stmt 0 discriminator 1
 409 0068 97000000 		call	_Z15thread_dispatchv@plt
 409      E7800000 
 410              	.LVL34:
 411 0070 6FF01FFC 		j	.L19
 412              		.cfi_endproc
 413              	.LFE1:
 415              		.section	.rodata.str1.8,"aMS",@progbits,1
 416              		.align	3
 417              	.LC0:
 418 0000 413A2069 		.string	"A: i="
 418      3D00
 419 0006 0000     		.align	3
 420              	.LC1:
 421 0008 0A00     		.string	"\n"
 422 000a 00000000 		.align	3
 422      0000
 423              	.LC2:
 424 0010 41206669 		.string	"A finished!\n"
 424      6E697368 
 424      6564210A 
 424      00
 425              		.text
 426              		.align	2
 427              		.globl	_ZN7WorkerA11workerBodyAEPv
 429              	_ZN7WorkerA11workerBodyAEPv:
 430              	.LFB18:
  50:src/../test/Threads_CPP_API_test.hpp ****     void workerBodyD(void* arg);
  51:src/../test/Threads_CPP_API_test.hpp **** public:
  52:src/../test/Threads_CPP_API_test.hpp ****     WorkerD():Thread() {}
  53:src/../test/Threads_CPP_API_test.hpp **** 
  54:src/../test/Threads_CPP_API_test.hpp ****     void run() override {
  55:src/../test/Threads_CPP_API_test.hpp ****         workerBodyD(nullptr);
  56:src/../test/Threads_CPP_API_test.hpp ****     }
  57:src/../test/Threads_CPP_API_test.hpp **** };
  58:src/../test/Threads_CPP_API_test.hpp **** 
  59:src/../test/Threads_CPP_API_test.hpp **** void WorkerA::workerBodyA(void *arg) {
 431              		.loc 1 59 38 is_stmt 1
 432              		.cfi_startproc
 433              	.LVL35:
GAS LISTING /tmp/cc7ZC48C.s 			page 10


 434 0074 130101FE 		addi	sp,sp,-32
 435              		.cfi_def_cfa_offset 32
 436 0078 233C1100 		sd	ra,24(sp)
 437 007c 23388100 		sd	s0,16(sp)
 438 0080 23349100 		sd	s1,8(sp)
 439 0084 23302101 		sd	s2,0(sp)
 440              		.cfi_offset 1, -8
 441              		.cfi_offset 8, -16
 442              		.cfi_offset 9, -24
 443              		.cfi_offset 18, -32
 444 0088 13040102 		addi	s0,sp,32
 445              		.cfi_def_cfa 8, 0
  60:src/../test/Threads_CPP_API_test.hpp ****     for (uint64 i = 0; i < 10; i++) {
 446              		.loc 1 60 5
 447              	.LVL36:
 448              	.LBB40:
 449              		.loc 1 60 17 is_stmt 0
 450 008c 13090000 		li	s2,0
 451 0090 6F008003 		j	.L29
 452              	.LVL37:
 453              	.L26:
 454              	.LBB41:
 455              	.LBB42:
 456              	.LBB43:
  61:src/../test/Threads_CPP_API_test.hpp ****         printString("A: i="); printInt(i); printString("\n");
  62:src/../test/Threads_CPP_API_test.hpp ****         for (uint64 j = 0; j < 10000; j++) {
  63:src/../test/Threads_CPP_API_test.hpp ****             for (uint64 k = 0; k < 30000; k++) { /* busy wait */ }
  64:src/../test/Threads_CPP_API_test.hpp ****             thread_dispatch();
 457              		.loc 1 64 13 is_stmt 1 discriminator 2
 458              		.loc 1 64 28 is_stmt 0 discriminator 2
 459 0094 97000000 		call	_Z15thread_dispatchv@plt
 459      E7800000 
 460              	.LVL38:
 461              	.LBE43:
  62:src/../test/Threads_CPP_API_test.hpp ****             for (uint64 k = 0; k < 30000; k++) { /* busy wait */ }
 462              		.loc 1 62 9 is_stmt 1 discriminator 2
 463 009c 93841400 		addi	s1,s1,1
 464              	.LVL39:
 465              	.L28:
  62:src/../test/Threads_CPP_API_test.hpp ****             for (uint64 k = 0; k < 30000; k++) { /* busy wait */ }
 466              		.loc 1 62 30 discriminator 1
 467 00a0 B7270000 		li	a5,8192
 468 00a4 9387F770 		addi	a5,a5,1807
 469 00a8 63EE9700 		bgtu	s1,a5,.L25
 470              	.LBB45:
 471              	.LBB44:
  63:src/../test/Threads_CPP_API_test.hpp ****             thread_dispatch();
 472              		.loc 1 63 25 is_stmt 0
 473 00ac 13070000 		li	a4,0
 474              	.L27:
 475              	.LVL40:
  63:src/../test/Threads_CPP_API_test.hpp ****             thread_dispatch();
 476              		.loc 1 63 34 is_stmt 1 discriminator 3
 477 00b0 B7770000 		li	a5,28672
 478 00b4 9387F752 		addi	a5,a5,1327
 479 00b8 E3EEE7FC 		bgtu	a4,a5,.L26
  63:src/../test/Threads_CPP_API_test.hpp ****             thread_dispatch();
GAS LISTING /tmp/cc7ZC48C.s 			page 11


 480              		.loc 1 63 13 discriminator 2
 481 00bc 13071700 		addi	a4,a4,1
 482              	.LVL41:
 483 00c0 6FF01FFF 		j	.L27
 484              	.LVL42:
 485              	.L25:
 486              	.LBE44:
 487              	.LBE45:
 488              	.LBE42:
 489              	.LBE41:
  60:src/../test/Threads_CPP_API_test.hpp ****         printString("A: i="); printInt(i); printString("\n");
 490              		.loc 1 60 5 discriminator 2
 491 00c4 13091900 		addi	s2,s2,1
 492              	.LVL43:
 493              	.L29:
  60:src/../test/Threads_CPP_API_test.hpp ****         printString("A: i="); printInt(i); printString("\n");
 494              		.loc 1 60 26 discriminator 1
 495 00c8 93079000 		li	a5,9
 496 00cc 63E02705 		bgtu	s2,a5,.L24
 497              	.LBB47:
  61:src/../test/Threads_CPP_API_test.hpp ****         for (uint64 j = 0; j < 10000; j++) {
 498              		.loc 1 61 9
  61:src/../test/Threads_CPP_API_test.hpp ****         for (uint64 j = 0; j < 10000; j++) {
 499              		.loc 1 61 20 is_stmt 0
 500 00d0 17050000 		lla	a0,.LC0
 500      13050500 
 501 00d8 97000000 		call	_Z11printStringPKc@plt
 501      E7800000 
 502              	.LVL44:
  61:src/../test/Threads_CPP_API_test.hpp ****         for (uint64 j = 0; j < 10000; j++) {
 503              		.loc 1 61 31 is_stmt 1
  61:src/../test/Threads_CPP_API_test.hpp ****         for (uint64 j = 0; j < 10000; j++) {
 504              		.loc 1 61 39 is_stmt 0
 505 00e0 13060000 		li	a2,0
 506 00e4 9305A000 		li	a1,10
 507 00e8 1B050900 		sext.w	a0,s2
 508 00ec 97000000 		call	_Z8printIntiii@plt
 508      E7800000 
 509              	.LVL45:
  61:src/../test/Threads_CPP_API_test.hpp ****         for (uint64 j = 0; j < 10000; j++) {
 510              		.loc 1 61 44 is_stmt 1
  61:src/../test/Threads_CPP_API_test.hpp ****         for (uint64 j = 0; j < 10000; j++) {
 511              		.loc 1 61 55 is_stmt 0
 512 00f4 17050000 		lla	a0,.LC1
 512      13050500 
 513 00fc 97000000 		call	_Z11printStringPKc@plt
 513      E7800000 
 514              	.LVL46:
  62:src/../test/Threads_CPP_API_test.hpp ****             for (uint64 k = 0; k < 30000; k++) { /* busy wait */ }
 515              		.loc 1 62 9 is_stmt 1
 516              	.LBB46:
  62:src/../test/Threads_CPP_API_test.hpp ****             for (uint64 k = 0; k < 30000; k++) { /* busy wait */ }
 517              		.loc 1 62 21 is_stmt 0
 518 0104 93040000 		li	s1,0
 519 0108 6FF09FF9 		j	.L28
 520              	.LVL47:
 521              	.L24:
GAS LISTING /tmp/cc7ZC48C.s 			page 12


 522              	.LBE46:
 523              	.LBE47:
 524              	.LBE40:
  65:src/../test/Threads_CPP_API_test.hpp ****         }
  66:src/../test/Threads_CPP_API_test.hpp ****     }
  67:src/../test/Threads_CPP_API_test.hpp ****     printString("A finished!\n");
 525              		.loc 1 67 5 is_stmt 1
 526              		.loc 1 67 16 is_stmt 0
 527 010c 17050000 		lla	a0,.LC2
 527      13050500 
 528 0114 97000000 		call	_Z11printStringPKc@plt
 528      E7800000 
 529              	.LVL48:
  68:src/../test/Threads_CPP_API_test.hpp ****     finishedA = true;
 530              		.loc 1 68 5 is_stmt 1
 531              		.loc 1 68 15 is_stmt 0
 532 011c 93071000 		li	a5,1
 533 0120 17070000 		sb	a5,.LANCHOR0,a4
 533      2300F700 
  69:src/../test/Threads_CPP_API_test.hpp **** }
 534              		.loc 1 69 1
 535 0128 83308101 		ld	ra,24(sp)
 536              		.cfi_restore 1
 537 012c 03340101 		ld	s0,16(sp)
 538              		.cfi_restore 8
 539              		.cfi_def_cfa 2, 32
 540 0130 83348100 		ld	s1,8(sp)
 541              		.cfi_restore 9
 542 0134 03390100 		ld	s2,0(sp)
 543              		.cfi_restore 18
 544              	.LVL49:
 545 0138 13010102 		addi	sp,sp,32
 546              		.cfi_def_cfa_offset 0
 547 013c 67800000 		jr	ra
 548              		.cfi_endproc
 549              	.LFE18:
 551              		.section	.text._ZN7WorkerA3runEv,"axG",@progbits,_ZN7WorkerA3runEv,comdat
 552              		.align	2
 553              		.weak	_ZN7WorkerA3runEv
 555              	_ZN7WorkerA3runEv:
 556              	.LFB5:
  24:src/../test/Threads_CPP_API_test.hpp ****         workerBodyA(nullptr);
 557              		.loc 1 24 10 is_stmt 1
 558              		.cfi_startproc
 559              	.LVL50:
 560 0000 130101FF 		addi	sp,sp,-16
 561              		.cfi_def_cfa_offset 16
 562 0004 23341100 		sd	ra,8(sp)
 563 0008 23308100 		sd	s0,0(sp)
 564              		.cfi_offset 1, -8
 565              		.cfi_offset 8, -16
 566 000c 13040101 		addi	s0,sp,16
 567              		.cfi_def_cfa 8, 0
  25:src/../test/Threads_CPP_API_test.hpp ****     }
 568              		.loc 1 25 9
  25:src/../test/Threads_CPP_API_test.hpp ****     }
 569              		.loc 1 25 20 is_stmt 0
GAS LISTING /tmp/cc7ZC48C.s 			page 13


 570 0010 93050000 		li	a1,0
 571 0014 97000000 		call	_ZN7WorkerA11workerBodyAEPv
 571      E7800000 
 572              	.LVL51:
  26:src/../test/Threads_CPP_API_test.hpp **** };
 573              		.loc 1 26 5
 574 001c 83308100 		ld	ra,8(sp)
 575              		.cfi_restore 1
 576 0020 03340100 		ld	s0,0(sp)
 577              		.cfi_restore 8
 578              		.cfi_def_cfa 2, 16
 579 0024 13010101 		addi	sp,sp,16
 580              		.cfi_def_cfa_offset 0
 581 0028 67800000 		jr	ra
 582              		.cfi_endproc
 583              	.LFE5:
 585              		.section	.rodata.str1.8
 586 001d 000000   		.align	3
 587              	.LC3:
 588 0020 423A2069 		.string	"B: i="
 588      3D00
 589 0026 0000     		.align	3
 590              	.LC4:
 591 0028 42206669 		.string	"B finished!\n"
 591      6E697368 
 591      6564210A 
 591      00
 592              		.text
 593              		.align	2
 594              		.globl	_ZN7WorkerB11workerBodyBEPv
 596              	_ZN7WorkerB11workerBodyBEPv:
 597              	.LFB19:
  70:src/../test/Threads_CPP_API_test.hpp **** 
  71:src/../test/Threads_CPP_API_test.hpp **** void WorkerB::workerBodyB(void *arg) {
 598              		.loc 1 71 38 is_stmt 1
 599              		.cfi_startproc
 600              	.LVL52:
 601 0140 130101FE 		addi	sp,sp,-32
 602              		.cfi_def_cfa_offset 32
 603 0144 233C1100 		sd	ra,24(sp)
 604 0148 23388100 		sd	s0,16(sp)
 605 014c 23349100 		sd	s1,8(sp)
 606 0150 23302101 		sd	s2,0(sp)
 607              		.cfi_offset 1, -8
 608              		.cfi_offset 8, -16
 609              		.cfi_offset 9, -24
 610              		.cfi_offset 18, -32
 611 0154 13040102 		addi	s0,sp,32
 612              		.cfi_def_cfa 8, 0
  72:src/../test/Threads_CPP_API_test.hpp ****     for (uint64 i = 0; i < 16; i++) {
 613              		.loc 1 72 5
 614              	.LVL53:
 615              	.LBB48:
 616              		.loc 1 72 17 is_stmt 0
 617 0158 13090000 		li	s2,0
 618 015c 6F008003 		j	.L39
 619              	.LVL54:
GAS LISTING /tmp/cc7ZC48C.s 			page 14


 620              	.L36:
 621              	.LBB49:
 622              	.LBB50:
 623              	.LBB51:
  73:src/../test/Threads_CPP_API_test.hpp ****         printString("B: i="); printInt(i); printString("\n");
  74:src/../test/Threads_CPP_API_test.hpp ****         for (uint64 j = 0; j < 10000; j++) {
  75:src/../test/Threads_CPP_API_test.hpp ****             for (uint64 k = 0; k < 30000; k++) { /* busy wait */ }
  76:src/../test/Threads_CPP_API_test.hpp ****             thread_dispatch();
 624              		.loc 1 76 13 is_stmt 1 discriminator 2
 625              		.loc 1 76 28 is_stmt 0 discriminator 2
 626 0160 97000000 		call	_Z15thread_dispatchv@plt
 626      E7800000 
 627              	.LVL55:
 628              	.LBE51:
  74:src/../test/Threads_CPP_API_test.hpp ****             for (uint64 k = 0; k < 30000; k++) { /* busy wait */ }
 629              		.loc 1 74 9 is_stmt 1 discriminator 2
 630 0168 93841400 		addi	s1,s1,1
 631              	.LVL56:
 632              	.L38:
  74:src/../test/Threads_CPP_API_test.hpp ****             for (uint64 k = 0; k < 30000; k++) { /* busy wait */ }
 633              		.loc 1 74 30 discriminator 1
 634 016c B7270000 		li	a5,8192
 635 0170 9387F770 		addi	a5,a5,1807
 636 0174 63EE9700 		bgtu	s1,a5,.L35
 637              	.LBB53:
 638              	.LBB52:
  75:src/../test/Threads_CPP_API_test.hpp ****             thread_dispatch();
 639              		.loc 1 75 25 is_stmt 0
 640 0178 13070000 		li	a4,0
 641              	.L37:
 642              	.LVL57:
  75:src/../test/Threads_CPP_API_test.hpp ****             thread_dispatch();
 643              		.loc 1 75 34 is_stmt 1 discriminator 3
 644 017c B7770000 		li	a5,28672
 645 0180 9387F752 		addi	a5,a5,1327
 646 0184 E3EEE7FC 		bgtu	a4,a5,.L36
  75:src/../test/Threads_CPP_API_test.hpp ****             thread_dispatch();
 647              		.loc 1 75 13 discriminator 2
 648 0188 13071700 		addi	a4,a4,1
 649              	.LVL58:
 650 018c 6FF01FFF 		j	.L37
 651              	.LVL59:
 652              	.L35:
 653              	.LBE52:
 654              	.LBE53:
 655              	.LBE50:
 656              	.LBE49:
  72:src/../test/Threads_CPP_API_test.hpp ****         printString("B: i="); printInt(i); printString("\n");
 657              		.loc 1 72 5 discriminator 2
 658 0190 13091900 		addi	s2,s2,1
 659              	.LVL60:
 660              	.L39:
  72:src/../test/Threads_CPP_API_test.hpp ****         printString("B: i="); printInt(i); printString("\n");
 661              		.loc 1 72 26 discriminator 1
 662 0194 9307F000 		li	a5,15
 663 0198 63E02705 		bgtu	s2,a5,.L34
 664              	.LBB55:
GAS LISTING /tmp/cc7ZC48C.s 			page 15


  73:src/../test/Threads_CPP_API_test.hpp ****         for (uint64 j = 0; j < 10000; j++) {
 665              		.loc 1 73 9
  73:src/../test/Threads_CPP_API_test.hpp ****         for (uint64 j = 0; j < 10000; j++) {
 666              		.loc 1 73 20 is_stmt 0
 667 019c 17050000 		lla	a0,.LC3
 667      13050500 
 668 01a4 97000000 		call	_Z11printStringPKc@plt
 668      E7800000 
 669              	.LVL61:
  73:src/../test/Threads_CPP_API_test.hpp ****         for (uint64 j = 0; j < 10000; j++) {
 670              		.loc 1 73 31 is_stmt 1
  73:src/../test/Threads_CPP_API_test.hpp ****         for (uint64 j = 0; j < 10000; j++) {
 671              		.loc 1 73 39 is_stmt 0
 672 01ac 13060000 		li	a2,0
 673 01b0 9305A000 		li	a1,10
 674 01b4 1B050900 		sext.w	a0,s2
 675 01b8 97000000 		call	_Z8printIntiii@plt
 675      E7800000 
 676              	.LVL62:
  73:src/../test/Threads_CPP_API_test.hpp ****         for (uint64 j = 0; j < 10000; j++) {
 677              		.loc 1 73 44 is_stmt 1
  73:src/../test/Threads_CPP_API_test.hpp ****         for (uint64 j = 0; j < 10000; j++) {
 678              		.loc 1 73 55 is_stmt 0
 679 01c0 17050000 		lla	a0,.LC1
 679      13050500 
 680 01c8 97000000 		call	_Z11printStringPKc@plt
 680      E7800000 
 681              	.LVL63:
  74:src/../test/Threads_CPP_API_test.hpp ****             for (uint64 k = 0; k < 30000; k++) { /* busy wait */ }
 682              		.loc 1 74 9 is_stmt 1
 683              	.LBB54:
  74:src/../test/Threads_CPP_API_test.hpp ****             for (uint64 k = 0; k < 30000; k++) { /* busy wait */ }
 684              		.loc 1 74 21 is_stmt 0
 685 01d0 93040000 		li	s1,0
 686 01d4 6FF09FF9 		j	.L38
 687              	.LVL64:
 688              	.L34:
 689              	.LBE54:
 690              	.LBE55:
 691              	.LBE48:
  77:src/../test/Threads_CPP_API_test.hpp ****         }
  78:src/../test/Threads_CPP_API_test.hpp ****     }
  79:src/../test/Threads_CPP_API_test.hpp ****     printString("B finished!\n");
 692              		.loc 1 79 5 is_stmt 1
 693              		.loc 1 79 16 is_stmt 0
 694 01d8 17050000 		lla	a0,.LC4
 694      13050500 
 695 01e0 97000000 		call	_Z11printStringPKc@plt
 695      E7800000 
 696              	.LVL65:
  80:src/../test/Threads_CPP_API_test.hpp ****     finishedB = true;
 697              		.loc 1 80 5 is_stmt 1
 698              		.loc 1 80 15 is_stmt 0
 699 01e8 93071000 		li	a5,1
 700 01ec 17070000 		sb	a5,.LANCHOR0+1,a4
 700      2300F700 
  81:src/../test/Threads_CPP_API_test.hpp ****     thread_dispatch();
GAS LISTING /tmp/cc7ZC48C.s 			page 16


 701              		.loc 1 81 5 is_stmt 1
 702              		.loc 1 81 20 is_stmt 0
 703 01f4 97000000 		call	_Z15thread_dispatchv@plt
 703      E7800000 
 704              	.LVL66:
  82:src/../test/Threads_CPP_API_test.hpp **** }
 705              		.loc 1 82 1
 706 01fc 83308101 		ld	ra,24(sp)
 707              		.cfi_restore 1
 708 0200 03340101 		ld	s0,16(sp)
 709              		.cfi_restore 8
 710              		.cfi_def_cfa 2, 32
 711 0204 83348100 		ld	s1,8(sp)
 712              		.cfi_restore 9
 713 0208 03390100 		ld	s2,0(sp)
 714              		.cfi_restore 18
 715              	.LVL67:
 716 020c 13010102 		addi	sp,sp,32
 717              		.cfi_def_cfa_offset 0
 718 0210 67800000 		jr	ra
 719              		.cfi_endproc
 720              	.LFE19:
 722              		.section	.text._ZN7WorkerB3runEv,"axG",@progbits,_ZN7WorkerB3runEv,comdat
 723              		.align	2
 724              		.weak	_ZN7WorkerB3runEv
 726              	_ZN7WorkerB3runEv:
 727              	.LFB9:
  34:src/../test/Threads_CPP_API_test.hpp ****         workerBodyB(nullptr);
 728              		.loc 1 34 10 is_stmt 1
 729              		.cfi_startproc
 730              	.LVL68:
 731 0000 130101FF 		addi	sp,sp,-16
 732              		.cfi_def_cfa_offset 16
 733 0004 23341100 		sd	ra,8(sp)
 734 0008 23308100 		sd	s0,0(sp)
 735              		.cfi_offset 1, -8
 736              		.cfi_offset 8, -16
 737 000c 13040101 		addi	s0,sp,16
 738              		.cfi_def_cfa 8, 0
  35:src/../test/Threads_CPP_API_test.hpp ****     }
 739              		.loc 1 35 9
  35:src/../test/Threads_CPP_API_test.hpp ****     }
 740              		.loc 1 35 20 is_stmt 0
 741 0010 93050000 		li	a1,0
 742 0014 97000000 		call	_ZN7WorkerB11workerBodyBEPv
 742      E7800000 
 743              	.LVL69:
  36:src/../test/Threads_CPP_API_test.hpp **** };
 744              		.loc 1 36 5
 745 001c 83308100 		ld	ra,8(sp)
 746              		.cfi_restore 1
 747 0020 03340100 		ld	s0,0(sp)
 748              		.cfi_restore 8
 749              		.cfi_def_cfa 2, 16
 750 0024 13010101 		addi	sp,sp,16
 751              		.cfi_def_cfa_offset 0
 752 0028 67800000 		jr	ra
GAS LISTING /tmp/cc7ZC48C.s 			page 17


 753              		.cfi_endproc
 754              	.LFE9:
 756              		.section	.rodata.str1.8
 757 0035 000000   		.align	3
 758              	.LC5:
 759 0038 433A2069 		.string	"C: i="
 759      3D00
 760 003e 0000     		.align	3
 761              	.LC6:
 762 0040 433A2064 		.string	"C: dispatch\n"
 762      69737061 
 762      7463680A 
 762      00
 763 004d 000000   		.align	3
 764              	.LC7:
 765 0050 433A2074 		.string	"C: t1="
 765      313D00
 766 0057 00       		.align	3
 767              	.LC8:
 768 0058 433A2066 		.string	"C: fibonaci="
 768      69626F6E 
 768      6163693D 
 768      00
 769              		.text
 770              		.align	2
 771              		.globl	_ZN7WorkerC11workerBodyCEPv
 773              	_ZN7WorkerC11workerBodyCEPv:
 774              	.LFB20:
  83:src/../test/Threads_CPP_API_test.hpp **** 
  84:src/../test/Threads_CPP_API_test.hpp **** void WorkerC::workerBodyC(void *arg) {
 775              		.loc 1 84 38 is_stmt 1
 776              		.cfi_startproc
 777              	.LVL70:
 778 0214 130101FE 		addi	sp,sp,-32
 779              		.cfi_def_cfa_offset 32
 780 0218 233C1100 		sd	ra,24(sp)
 781 021c 23388100 		sd	s0,16(sp)
 782 0220 23349100 		sd	s1,8(sp)
 783 0224 23302101 		sd	s2,0(sp)
 784              		.cfi_offset 1, -8
 785              		.cfi_offset 8, -16
 786              		.cfi_offset 9, -24
 787              		.cfi_offset 18, -32
 788 0228 13040102 		addi	s0,sp,32
 789              		.cfi_def_cfa 8, 0
  85:src/../test/Threads_CPP_API_test.hpp ****     uint8 i = 0;
 790              		.loc 1 85 5
 791              	.LVL71:
 792              		.loc 1 85 11 is_stmt 0
 793 022c 93040000 		li	s1,0
 794 0230 6F000004 		j	.L45
 795              	.LVL72:
 796              	.L49:
  86:src/../test/Threads_CPP_API_test.hpp ****     for (; i < 3; i++) {
  87:src/../test/Threads_CPP_API_test.hpp ****         printString("C: i="); printInt(i); printString("\n");
 797              		.loc 1 87 9 is_stmt 1 discriminator 1
 798              		.loc 1 87 20 is_stmt 0 discriminator 1
GAS LISTING /tmp/cc7ZC48C.s 			page 18


 799 0234 17050000 		lla	a0,.LC5
 799      13050500 
 800 023c 97000000 		call	_Z11printStringPKc@plt
 800      E7800000 
 801              	.LVL73:
 802              		.loc 1 87 31 is_stmt 1 discriminator 1
 803              		.loc 1 87 39 is_stmt 0 discriminator 1
 804 0244 13060000 		li	a2,0
 805 0248 9305A000 		li	a1,10
 806 024c 13850400 		mv	a0,s1
 807 0250 97000000 		call	_Z8printIntiii@plt
 807      E7800000 
 808              	.LVL74:
 809              		.loc 1 87 44 is_stmt 1 discriminator 1
 810              		.loc 1 87 55 is_stmt 0 discriminator 1
 811 0258 17050000 		lla	a0,.LC1
 811      13050500 
 812 0260 97000000 		call	_Z11printStringPKc@plt
 812      E7800000 
 813              	.LVL75:
  86:src/../test/Threads_CPP_API_test.hpp ****     for (; i < 3; i++) {
 814              		.loc 1 86 5 is_stmt 1 discriminator 1
 815 0268 9B841400 		addiw	s1,s1,1
 816              	.LVL76:
 817 026c 93F4F40F 		andi	s1,s1,0xff
 818              	.LVL77:
 819              	.L45:
  86:src/../test/Threads_CPP_API_test.hpp ****     for (; i < 3; i++) {
 820              		.loc 1 86 5 discriminator 2
  86:src/../test/Threads_CPP_API_test.hpp ****     for (; i < 3; i++) {
 821              		.loc 1 86 14 discriminator 2
 822 0270 93072000 		li	a5,2
 823 0274 E3F097FC 		bleu	s1,a5,.L49
  88:src/../test/Threads_CPP_API_test.hpp ****     }
  89:src/../test/Threads_CPP_API_test.hpp **** 
  90:src/../test/Threads_CPP_API_test.hpp ****     printString("C: dispatch\n");
 824              		.loc 1 90 5
 825              		.loc 1 90 16 is_stmt 0
 826 0278 17050000 		lla	a0,.LC6
 826      13050500 
 827 0280 97000000 		call	_Z11printStringPKc@plt
 827      E7800000 
 828              	.LVL78:
  91:src/../test/Threads_CPP_API_test.hpp ****     __asm__ ("li t1, 7");
 829              		.loc 1 91 5 is_stmt 1
 830              		.loc 1 91 25 is_stmt 0
 831              	#APP
 832              	# 91 "src/../test/Threads_CPP_API_test.hpp" 1
  92              	    thread_dispatch();
 833              		li t1, 7
 834              	# 0 "" 2
 835              		.loc 1 92 5 is_stmt 1
 836              		.loc 1 92 20 is_stmt 0
 837              	#NO_APP
 838 028c 97000000 		call	_Z15thread_dispatchv@plt
 838      E7800000 
 839              	.LVL79:
GAS LISTING /tmp/cc7ZC48C.s 			page 19


  93:src/../test/Threads_CPP_API_test.hpp **** 
  94:src/../test/Threads_CPP_API_test.hpp ****     uint64 t1 = 0;
 840              		.loc 1 94 5 is_stmt 1
  95:src/../test/Threads_CPP_API_test.hpp ****     __asm__ ("mv %[t1], t1" : [t1] "=r"(t1));
 841              		.loc 1 95 5
 842              		.loc 1 95 45 is_stmt 0
 843              	#APP
 844              	# 95 "src/../test/Threads_CPP_API_test.hpp" 1
  96              	
 845              		mv s2, t1
 846              	# 0 "" 2
 847              	.LVL80:
  97:src/../test/Threads_CPP_API_test.hpp ****     printString("C: t1="); printInt(t1); printString("\n");
 848              		.loc 1 97 5 is_stmt 1
 849              		.loc 1 97 16 is_stmt 0
 850              	#NO_APP
 851 0298 17050000 		lla	a0,.LC7
 851      13050500 
 852 02a0 97000000 		call	_Z11printStringPKc@plt
 852      E7800000 
 853              	.LVL81:
 854              		.loc 1 97 28 is_stmt 1
 855              		.loc 1 97 36 is_stmt 0
 856 02a8 13060000 		li	a2,0
 857 02ac 9305A000 		li	a1,10
 858 02b0 1B050900 		sext.w	a0,s2
 859 02b4 97000000 		call	_Z8printIntiii@plt
 859      E7800000 
 860              	.LVL82:
 861              		.loc 1 97 42 is_stmt 1
 862              		.loc 1 97 53 is_stmt 0
 863 02bc 17050000 		lla	a0,.LC1
 863      13050500 
 864 02c4 97000000 		call	_Z11printStringPKc@plt
 864      E7800000 
 865              	.LVL83:
  98:src/../test/Threads_CPP_API_test.hpp **** 
  99:src/../test/Threads_CPP_API_test.hpp ****     uint64 result = fibonacci(12);
 866              		.loc 1 99 5 is_stmt 1
 867              		.loc 1 99 30 is_stmt 0
 868 02cc 1305C000 		li	a0,12
 869 02d0 97000000 		call	_Z9fibonaccim
 869      E7800000 
 870              	.LVL84:
 871 02d8 13090500 		mv	s2,a0
 872              	.LVL85:
 100:src/../test/Threads_CPP_API_test.hpp ****     printString("C: fibonaci="); printInt(result); printString("\n");
 873              		.loc 1 100 5 is_stmt 1
 874              		.loc 1 100 16 is_stmt 0
 875 02dc 17050000 		lla	a0,.LC8
 875      13050500 
 876              	.LVL86:
 877 02e4 97000000 		call	_Z11printStringPKc@plt
 877      E7800000 
 878              	.LVL87:
 879              		.loc 1 100 34 is_stmt 1
 880              		.loc 1 100 42 is_stmt 0
GAS LISTING /tmp/cc7ZC48C.s 			page 20


 881 02ec 13060000 		li	a2,0
 882 02f0 9305A000 		li	a1,10
 883 02f4 1B050900 		sext.w	a0,s2
 884 02f8 97000000 		call	_Z8printIntiii@plt
 884      E7800000 
 885              	.LVL88:
 886              		.loc 1 100 52 is_stmt 1
 887              		.loc 1 100 63 is_stmt 0
 888 0300 17050000 		lla	a0,.LC1
 888      13050500 
 889 0308 97000000 		call	_Z11printStringPKc@plt
 889      E7800000 
 890              	.LVL89:
 891 0310 6F000004 		j	.L47
 892              	.L50:
 101:src/../test/Threads_CPP_API_test.hpp **** 
 102:src/../test/Threads_CPP_API_test.hpp ****     for (; i < 6; i++) {
 103:src/../test/Threads_CPP_API_test.hpp ****         printString("C: i="); printInt(i); printString("\n");
 893              		.loc 1 103 9 is_stmt 1 discriminator 1
 894              		.loc 1 103 20 is_stmt 0 discriminator 1
 895 0314 17050000 		lla	a0,.LC5
 895      13050500 
 896 031c 97000000 		call	_Z11printStringPKc@plt
 896      E7800000 
 897              	.LVL90:
 898              		.loc 1 103 31 is_stmt 1 discriminator 1
 899              		.loc 1 103 39 is_stmt 0 discriminator 1
 900 0324 13060000 		li	a2,0
 901 0328 9305A000 		li	a1,10
 902 032c 13850400 		mv	a0,s1
 903 0330 97000000 		call	_Z8printIntiii@plt
 903      E7800000 
 904              	.LVL91:
 905              		.loc 1 103 44 is_stmt 1 discriminator 1
 906              		.loc 1 103 55 is_stmt 0 discriminator 1
 907 0338 17050000 		lla	a0,.LC1
 907      13050500 
 908 0340 97000000 		call	_Z11printStringPKc@plt
 908      E7800000 
 909              	.LVL92:
 102:src/../test/Threads_CPP_API_test.hpp ****         printString("C: i="); printInt(i); printString("\n");
 910              		.loc 1 102 5 is_stmt 1 discriminator 1
 911 0348 9B841400 		addiw	s1,s1,1
 912              	.LVL93:
 913 034c 93F4F40F 		andi	s1,s1,0xff
 914              	.LVL94:
 915              	.L47:
 102:src/../test/Threads_CPP_API_test.hpp ****         printString("C: i="); printInt(i); printString("\n");
 916              		.loc 1 102 5 discriminator 2
 102:src/../test/Threads_CPP_API_test.hpp ****         printString("C: i="); printInt(i); printString("\n");
 917              		.loc 1 102 14 discriminator 2
 918 0350 93075000 		li	a5,5
 919 0354 E3F097FC 		bleu	s1,a5,.L50
 104:src/../test/Threads_CPP_API_test.hpp ****     }
 105:src/../test/Threads_CPP_API_test.hpp **** 
 106:src/../test/Threads_CPP_API_test.hpp ****     printString("A finished!\n");
 920              		.loc 1 106 5
GAS LISTING /tmp/cc7ZC48C.s 			page 21


 921              		.loc 1 106 16 is_stmt 0
 922 0358 17050000 		lla	a0,.LC2
 922      13050500 
 923 0360 97000000 		call	_Z11printStringPKc@plt
 923      E7800000 
 924              	.LVL95:
 107:src/../test/Threads_CPP_API_test.hpp ****     finishedC = true;
 925              		.loc 1 107 5 is_stmt 1
 926              		.loc 1 107 15 is_stmt 0
 927 0368 93071000 		li	a5,1
 928 036c 17070000 		sb	a5,.LANCHOR0+2,a4
 928      2300F700 
 108:src/../test/Threads_CPP_API_test.hpp ****     thread_dispatch();
 929              		.loc 1 108 5 is_stmt 1
 930              		.loc 1 108 20 is_stmt 0
 931 0374 97000000 		call	_Z15thread_dispatchv@plt
 931      E7800000 
 932              	.LVL96:
 109:src/../test/Threads_CPP_API_test.hpp **** }
 933              		.loc 1 109 1
 934 037c 83308101 		ld	ra,24(sp)
 935              		.cfi_restore 1
 936 0380 03340101 		ld	s0,16(sp)
 937              		.cfi_restore 8
 938              		.cfi_def_cfa 2, 32
 939 0384 83348100 		ld	s1,8(sp)
 940              		.cfi_restore 9
 941              	.LVL97:
 942 0388 03390100 		ld	s2,0(sp)
 943              		.cfi_restore 18
 944              	.LVL98:
 945 038c 13010102 		addi	sp,sp,32
 946              		.cfi_def_cfa_offset 0
 947 0390 67800000 		jr	ra
 948              		.cfi_endproc
 949              	.LFE20:
 951              		.section	.text._ZN7WorkerC3runEv,"axG",@progbits,_ZN7WorkerC3runEv,comdat
 952              		.align	2
 953              		.weak	_ZN7WorkerC3runEv
 955              	_ZN7WorkerC3runEv:
 956              	.LFB13:
  44:src/../test/Threads_CPP_API_test.hpp ****         workerBodyC(nullptr);
 957              		.loc 1 44 10 is_stmt 1
 958              		.cfi_startproc
 959              	.LVL99:
 960 0000 130101FF 		addi	sp,sp,-16
 961              		.cfi_def_cfa_offset 16
 962 0004 23341100 		sd	ra,8(sp)
 963 0008 23308100 		sd	s0,0(sp)
 964              		.cfi_offset 1, -8
 965              		.cfi_offset 8, -16
 966 000c 13040101 		addi	s0,sp,16
 967              		.cfi_def_cfa 8, 0
  45:src/../test/Threads_CPP_API_test.hpp ****     }
 968              		.loc 1 45 9
  45:src/../test/Threads_CPP_API_test.hpp ****     }
 969              		.loc 1 45 20 is_stmt 0
GAS LISTING /tmp/cc7ZC48C.s 			page 22


 970 0010 93050000 		li	a1,0
 971 0014 97000000 		call	_ZN7WorkerC11workerBodyCEPv
 971      E7800000 
 972              	.LVL100:
  46:src/../test/Threads_CPP_API_test.hpp **** };
 973              		.loc 1 46 5
 974 001c 83308100 		ld	ra,8(sp)
 975              		.cfi_restore 1
 976 0020 03340100 		ld	s0,0(sp)
 977              		.cfi_restore 8
 978              		.cfi_def_cfa 2, 16
 979 0024 13010101 		addi	sp,sp,16
 980              		.cfi_def_cfa_offset 0
 981 0028 67800000 		jr	ra
 982              		.cfi_endproc
 983              	.LFE13:
 985              		.section	.rodata.str1.8
 986 0065 000000   		.align	3
 987              	.LC9:
 988 0068 443A2069 		.string	"D: i="
 988      3D00
 989 006e 0000     		.align	3
 990              	.LC10:
 991 0070 443A2064 		.string	"D: dispatch\n"
 991      69737061 
 991      7463680A 
 991      00
 992 007d 000000   		.align	3
 993              	.LC11:
 994 0080 443A2066 		.string	"D: fibonaci="
 994      69626F6E 
 994      6163693D 
 994      00
 995 008d 000000   		.align	3
 996              	.LC12:
 997 0090 44206669 		.string	"D finished!\n"
 997      6E697368 
 997      6564210A 
 997      00
 998              		.text
 999              		.align	2
 1000              		.globl	_ZN7WorkerD11workerBodyDEPv
 1002              	_ZN7WorkerD11workerBodyDEPv:
 1003              	.LFB21:
 110:src/../test/Threads_CPP_API_test.hpp **** 
 111:src/../test/Threads_CPP_API_test.hpp **** void WorkerD::workerBodyD(void* arg) {
 1004              		.loc 1 111 38 is_stmt 1
 1005              		.cfi_startproc
 1006              	.LVL101:
 1007 0394 130101FE 		addi	sp,sp,-32
 1008              		.cfi_def_cfa_offset 32
 1009 0398 233C1100 		sd	ra,24(sp)
 1010 039c 23388100 		sd	s0,16(sp)
 1011 03a0 23349100 		sd	s1,8(sp)
 1012 03a4 23302101 		sd	s2,0(sp)
 1013              		.cfi_offset 1, -8
 1014              		.cfi_offset 8, -16
GAS LISTING /tmp/cc7ZC48C.s 			page 23


 1015              		.cfi_offset 9, -24
 1016              		.cfi_offset 18, -32
 1017 03a8 13040102 		addi	s0,sp,32
 1018              		.cfi_def_cfa 8, 0
 112:src/../test/Threads_CPP_API_test.hpp ****     uint8 i = 10;
 1019              		.loc 1 112 5
 1020              	.LVL102:
 1021              		.loc 1 112 11 is_stmt 0
 1022 03ac 9304A000 		li	s1,10
 1023 03b0 6F000004 		j	.L55
 1024              	.LVL103:
 1025              	.L59:
 113:src/../test/Threads_CPP_API_test.hpp ****     for (; i < 13; i++) {
 114:src/../test/Threads_CPP_API_test.hpp ****         printString("D: i="); printInt(i); printString("\n");
 1026              		.loc 1 114 9 is_stmt 1 discriminator 1
 1027              		.loc 1 114 20 is_stmt 0 discriminator 1
 1028 03b4 17050000 		lla	a0,.LC9
 1028      13050500 
 1029 03bc 97000000 		call	_Z11printStringPKc@plt
 1029      E7800000 
 1030              	.LVL104:
 1031              		.loc 1 114 31 is_stmt 1 discriminator 1
 1032              		.loc 1 114 39 is_stmt 0 discriminator 1
 1033 03c4 13060000 		li	a2,0
 1034 03c8 9305A000 		li	a1,10
 1035 03cc 13850400 		mv	a0,s1
 1036 03d0 97000000 		call	_Z8printIntiii@plt
 1036      E7800000 
 1037              	.LVL105:
 1038              		.loc 1 114 44 is_stmt 1 discriminator 1
 1039              		.loc 1 114 55 is_stmt 0 discriminator 1
 1040 03d8 17050000 		lla	a0,.LC1
 1040      13050500 
 1041 03e0 97000000 		call	_Z11printStringPKc@plt
 1041      E7800000 
 1042              	.LVL106:
 113:src/../test/Threads_CPP_API_test.hpp ****     for (; i < 13; i++) {
 1043              		.loc 1 113 5 is_stmt 1 discriminator 1
 1044 03e8 9B841400 		addiw	s1,s1,1
 1045              	.LVL107:
 1046 03ec 93F4F40F 		andi	s1,s1,0xff
 1047              	.LVL108:
 1048              	.L55:
 113:src/../test/Threads_CPP_API_test.hpp ****     for (; i < 13; i++) {
 1049              		.loc 1 113 5 discriminator 2
 113:src/../test/Threads_CPP_API_test.hpp ****     for (; i < 13; i++) {
 1050              		.loc 1 113 14 discriminator 2
 1051 03f0 9307C000 		li	a5,12
 1052 03f4 E3F097FC 		bleu	s1,a5,.L59
 115:src/../test/Threads_CPP_API_test.hpp ****     }
 116:src/../test/Threads_CPP_API_test.hpp **** 
 117:src/../test/Threads_CPP_API_test.hpp ****     printString("D: dispatch\n");
 1053              		.loc 1 117 5
 1054              		.loc 1 117 16 is_stmt 0
 1055 03f8 17050000 		lla	a0,.LC10
 1055      13050500 
 1056 0400 97000000 		call	_Z11printStringPKc@plt
GAS LISTING /tmp/cc7ZC48C.s 			page 24


 1056      E7800000 
 1057              	.LVL109:
 118:src/../test/Threads_CPP_API_test.hpp ****     __asm__ ("li t1, 5");
 1058              		.loc 1 118 5 is_stmt 1
 1059              		.loc 1 118 25 is_stmt 0
 1060              	#APP
 1061              	# 118 "src/../test/Threads_CPP_API_test.hpp" 1
 119              	    thread_dispatch();
 1062              		li t1, 5
 1063              	# 0 "" 2
 1064              		.loc 1 119 5 is_stmt 1
 1065              		.loc 1 119 20 is_stmt 0
 1066              	#NO_APP
 1067 040c 97000000 		call	_Z15thread_dispatchv@plt
 1067      E7800000 
 1068              	.LVL110:
 120:src/../test/Threads_CPP_API_test.hpp **** 
 121:src/../test/Threads_CPP_API_test.hpp ****     uint64 result = fibonacci(16);
 1069              		.loc 1 121 5 is_stmt 1
 1070              		.loc 1 121 30 is_stmt 0
 1071 0414 13050001 		li	a0,16
 1072 0418 97000000 		call	_Z9fibonaccim
 1072      E7800000 
 1073              	.LVL111:
 1074 0420 13090500 		mv	s2,a0
 1075              	.LVL112:
 122:src/../test/Threads_CPP_API_test.hpp ****     printString("D: fibonaci="); printInt(result); printString("\n");
 1076              		.loc 1 122 5 is_stmt 1
 1077              		.loc 1 122 16 is_stmt 0
 1078 0424 17050000 		lla	a0,.LC11
 1078      13050500 
 1079              	.LVL113:
 1080 042c 97000000 		call	_Z11printStringPKc@plt
 1080      E7800000 
 1081              	.LVL114:
 1082              		.loc 1 122 34 is_stmt 1
 1083              		.loc 1 122 42 is_stmt 0
 1084 0434 13060000 		li	a2,0
 1085 0438 9305A000 		li	a1,10
 1086 043c 1B050900 		sext.w	a0,s2
 1087 0440 97000000 		call	_Z8printIntiii@plt
 1087      E7800000 
 1088              	.LVL115:
 1089              		.loc 1 122 52 is_stmt 1
 1090              		.loc 1 122 63 is_stmt 0
 1091 0448 17050000 		lla	a0,.LC1
 1091      13050500 
 1092 0450 97000000 		call	_Z11printStringPKc@plt
 1092      E7800000 
 1093              	.LVL116:
 1094 0458 6F000004 		j	.L57
 1095              	.L60:
 123:src/../test/Threads_CPP_API_test.hpp **** 
 124:src/../test/Threads_CPP_API_test.hpp ****     for (; i < 16; i++) {
 125:src/../test/Threads_CPP_API_test.hpp ****         printString("D: i="); printInt(i); printString("\n");
 1096              		.loc 1 125 9 is_stmt 1 discriminator 1
 1097              		.loc 1 125 20 is_stmt 0 discriminator 1
GAS LISTING /tmp/cc7ZC48C.s 			page 25


 1098 045c 17050000 		lla	a0,.LC9
 1098      13050500 
 1099 0464 97000000 		call	_Z11printStringPKc@plt
 1099      E7800000 
 1100              	.LVL117:
 1101              		.loc 1 125 31 is_stmt 1 discriminator 1
 1102              		.loc 1 125 39 is_stmt 0 discriminator 1
 1103 046c 13060000 		li	a2,0
 1104 0470 9305A000 		li	a1,10
 1105 0474 13850400 		mv	a0,s1
 1106 0478 97000000 		call	_Z8printIntiii@plt
 1106      E7800000 
 1107              	.LVL118:
 1108              		.loc 1 125 44 is_stmt 1 discriminator 1
 1109              		.loc 1 125 55 is_stmt 0 discriminator 1
 1110 0480 17050000 		lla	a0,.LC1
 1110      13050500 
 1111 0488 97000000 		call	_Z11printStringPKc@plt
 1111      E7800000 
 1112              	.LVL119:
 124:src/../test/Threads_CPP_API_test.hpp ****         printString("D: i="); printInt(i); printString("\n");
 1113              		.loc 1 124 5 is_stmt 1 discriminator 1
 1114 0490 9B841400 		addiw	s1,s1,1
 1115              	.LVL120:
 1116 0494 93F4F40F 		andi	s1,s1,0xff
 1117              	.LVL121:
 1118              	.L57:
 124:src/../test/Threads_CPP_API_test.hpp ****         printString("D: i="); printInt(i); printString("\n");
 1119              		.loc 1 124 5 discriminator 2
 124:src/../test/Threads_CPP_API_test.hpp ****         printString("D: i="); printInt(i); printString("\n");
 1120              		.loc 1 124 14 discriminator 2
 1121 0498 9307F000 		li	a5,15
 1122 049c E3F097FC 		bleu	s1,a5,.L60
 126:src/../test/Threads_CPP_API_test.hpp ****     }
 127:src/../test/Threads_CPP_API_test.hpp **** 
 128:src/../test/Threads_CPP_API_test.hpp ****     printString("D finished!\n");
 1123              		.loc 1 128 5
 1124              		.loc 1 128 16 is_stmt 0
 1125 04a0 17050000 		lla	a0,.LC12
 1125      13050500 
 1126 04a8 97000000 		call	_Z11printStringPKc@plt
 1126      E7800000 
 1127              	.LVL122:
 129:src/../test/Threads_CPP_API_test.hpp ****     finishedD = true;
 1128              		.loc 1 129 5 is_stmt 1
 1129              		.loc 1 129 15 is_stmt 0
 1130 04b0 93071000 		li	a5,1
 1131 04b4 17070000 		sb	a5,.LANCHOR0+3,a4
 1131      2300F700 
 130:src/../test/Threads_CPP_API_test.hpp ****     thread_dispatch();
 1132              		.loc 1 130 5 is_stmt 1
 1133              		.loc 1 130 20 is_stmt 0
 1134 04bc 97000000 		call	_Z15thread_dispatchv@plt
 1134      E7800000 
 1135              	.LVL123:
 131:src/../test/Threads_CPP_API_test.hpp **** }
 1136              		.loc 1 131 1
GAS LISTING /tmp/cc7ZC48C.s 			page 26


 1137 04c4 83308101 		ld	ra,24(sp)
 1138              		.cfi_restore 1
 1139 04c8 03340101 		ld	s0,16(sp)
 1140              		.cfi_restore 8
 1141              		.cfi_def_cfa 2, 32
 1142 04cc 83348100 		ld	s1,8(sp)
 1143              		.cfi_restore 9
 1144              	.LVL124:
 1145 04d0 03390100 		ld	s2,0(sp)
 1146              		.cfi_restore 18
 1147              	.LVL125:
 1148 04d4 13010102 		addi	sp,sp,32
 1149              		.cfi_def_cfa_offset 0
 1150 04d8 67800000 		jr	ra
 1151              		.cfi_endproc
 1152              	.LFE21:
 1154              		.section	.text._ZN7WorkerD3runEv,"axG",@progbits,_ZN7WorkerD3runEv,comdat
 1155              		.align	2
 1156              		.weak	_ZN7WorkerD3runEv
 1158              	_ZN7WorkerD3runEv:
 1159              	.LFB17:
  54:src/../test/Threads_CPP_API_test.hpp ****         workerBodyD(nullptr);
 1160              		.loc 1 54 10 is_stmt 1
 1161              		.cfi_startproc
 1162              	.LVL126:
 1163 0000 130101FF 		addi	sp,sp,-16
 1164              		.cfi_def_cfa_offset 16
 1165 0004 23341100 		sd	ra,8(sp)
 1166 0008 23308100 		sd	s0,0(sp)
 1167              		.cfi_offset 1, -8
 1168              		.cfi_offset 8, -16
 1169 000c 13040101 		addi	s0,sp,16
 1170              		.cfi_def_cfa 8, 0
  55:src/../test/Threads_CPP_API_test.hpp ****     }
 1171              		.loc 1 55 9
  55:src/../test/Threads_CPP_API_test.hpp ****     }
 1172              		.loc 1 55 20 is_stmt 0
 1173 0010 93050000 		li	a1,0
 1174 0014 97000000 		call	_ZN7WorkerD11workerBodyDEPv
 1174      E7800000 
 1175              	.LVL127:
  56:src/../test/Threads_CPP_API_test.hpp **** };
 1176              		.loc 1 56 5
 1177 001c 83308100 		ld	ra,8(sp)
 1178              		.cfi_restore 1
 1179 0020 03340100 		ld	s0,0(sp)
 1180              		.cfi_restore 8
 1181              		.cfi_def_cfa 2, 16
 1182 0024 13010101 		addi	sp,sp,16
 1183              		.cfi_def_cfa_offset 0
 1184 0028 67800000 		jr	ra
 1185              		.cfi_endproc
 1186              	.LFE17:
 1188              		.section	.rodata.str1.8
 1189 009d 000000   		.align	3
 1190              	.LC13:
 1191 00a0 54687265 		.string	"ThreadA created\n"
GAS LISTING /tmp/cc7ZC48C.s 			page 27


 1191      61644120 
 1191      63726561 
 1191      7465640A 
 1191      00
 1192 00b1 00000000 		.align	3
 1192      000000
 1193              	.LC14:
 1194 00b8 54687265 		.string	"ThreadB created\n"
 1194      61644220 
 1194      63726561 
 1194      7465640A 
 1194      00
 1195 00c9 00000000 		.align	3
 1195      000000
 1196              	.LC15:
 1197 00d0 54687265 		.string	"ThreadC created\n"
 1197      61644320 
 1197      63726561 
 1197      7465640A 
 1197      00
 1198 00e1 00000000 		.align	3
 1198      000000
 1199              	.LC16:
 1200 00e8 54687265 		.string	"ThreadD created\n"
 1200      61644420 
 1200      63726561 
 1200      7465640A 
 1200      00
 1201 00f9 00000000 		.align	3
 1201      000000
 1202              	.LC17:
 1203 0100 44697370 		.string	"Dispecovani\n"
 1203      65636F76 
 1203      616E690A 
 1203      00
 1204 010d 000000   		.align	3
 1205              	.LC18:
 1206 0110 4F627269 		.string	"Obrisani\n"
 1206      73616E69 
 1206      0A00
 1207              		.text
 1208              		.align	2
 1209              		.globl	_Z20Threads_CPP_API_testv
 1211              	_Z20Threads_CPP_API_testv:
 1212              	.LFB22:
 132:src/../test/Threads_CPP_API_test.hpp **** 
 133:src/../test/Threads_CPP_API_test.hpp **** 
 134:src/../test/Threads_CPP_API_test.hpp **** void Threads_CPP_API_test() {
 1213              		.loc 1 134 29 is_stmt 1
 1214              		.cfi_startproc
 1215              		.cfi_personality 0x9b,DW.ref.__gxx_personality_v0
 1216              		.cfi_lsda 0x1b,.LLSDA22
 1217 04dc 130101FC 		addi	sp,sp,-64
 1218              		.cfi_def_cfa_offset 64
 1219 04e0 233C1102 		sd	ra,56(sp)
 1220 04e4 23388102 		sd	s0,48(sp)
 1221 04e8 23349102 		sd	s1,40(sp)
GAS LISTING /tmp/cc7ZC48C.s 			page 28


 1222 04ec 23302103 		sd	s2,32(sp)
 1223              		.cfi_offset 1, -8
 1224              		.cfi_offset 8, -16
 1225              		.cfi_offset 9, -24
 1226              		.cfi_offset 18, -32
 1227 04f0 13040104 		addi	s0,sp,64
 1228              		.cfi_def_cfa 8, 0
 135:src/../test/Threads_CPP_API_test.hpp ****     Thread* threads[4];
 1229              		.loc 1 135 5
 136:src/../test/Threads_CPP_API_test.hpp **** 
 137:src/../test/Threads_CPP_API_test.hpp ****     threads[0] = new WorkerA();
 1230              		.loc 1 137 5
 1231              		.loc 1 137 30 is_stmt 0
 1232 04f4 13050001 		li	a0,16
 1233              	.LEHB0:
 1234 04f8 97000000 		call	_Znwm@plt
 1234      E7800000 
 1235              	.LVL128:
 1236              	.LEHE0:
 1237 0500 93040500 		mv	s1,a0
 1238              	.LVL129:
 1239              	.LEHB1:
 1240              	.LBB56:
 1241              	.LBB57:
  22:src/../test/Threads_CPP_API_test.hpp **** 
 1242              		.loc 1 22 22
 1243 0504 97000000 		call	_ZN6ThreadC2Ev@plt
 1243      E7800000 
 1244              	.LVL130:
 1245              	.LEHE1:
 1246 050c 97070000 		lla	a5,_ZTV7WorkerA+16
 1246      93870700 
 1247 0514 23B0F400 		sd	a5,0(s1)
 1248              	.LVL131:
 1249              	.LBE57:
 1250              	.LBE56:
 1251              		.loc 1 137 16
 1252 0518 233094FC 		sd	s1,-64(s0)
 138:src/../test/Threads_CPP_API_test.hpp ****     printString("ThreadA created\n");
 1253              		.loc 1 138 5 is_stmt 1
 1254              		.loc 1 138 16 is_stmt 0
 1255 051c 17050000 		lla	a0,.LC13
 1255      13050500 
 1256              	.LEHB2:
 1257 0524 97000000 		call	_Z11printStringPKc@plt
 1257      E7800000 
 1258              	.LVL132:
 139:src/../test/Threads_CPP_API_test.hpp **** 
 140:src/../test/Threads_CPP_API_test.hpp ****     threads[1] = new WorkerB();
 1259              		.loc 1 140 5 is_stmt 1
 1260              		.loc 1 140 30 is_stmt 0
 1261 052c 13050001 		li	a0,16
 1262 0530 97000000 		call	_Znwm@plt
 1262      E7800000 
 1263              	.LVL133:
 1264              	.LEHE2:
 1265 0538 93040500 		mv	s1,a0
GAS LISTING /tmp/cc7ZC48C.s 			page 29


 1266              	.LVL134:
 1267              	.LEHB3:
 1268              	.LBB58:
 1269              	.LBB59:
  32:src/../test/Threads_CPP_API_test.hpp **** 
 1270              		.loc 1 32 22
 1271 053c 97000000 		call	_ZN6ThreadC2Ev@plt
 1271      E7800000 
 1272              	.LVL135:
 1273              	.LEHE3:
 1274 0544 97070000 		lla	a5,_ZTV7WorkerB+16
 1274      93870700 
 1275 054c 23B0F400 		sd	a5,0(s1)
 1276              	.LVL136:
 1277              	.LBE59:
 1278              	.LBE58:
 1279              		.loc 1 140 16
 1280 0550 233494FC 		sd	s1,-56(s0)
 141:src/../test/Threads_CPP_API_test.hpp ****     printString("ThreadB created\n");
 1281              		.loc 1 141 5 is_stmt 1
 1282              		.loc 1 141 16 is_stmt 0
 1283 0554 17050000 		lla	a0,.LC14
 1283      13050500 
 1284              	.LEHB4:
 1285 055c 97000000 		call	_Z11printStringPKc@plt
 1285      E7800000 
 1286              	.LVL137:
 142:src/../test/Threads_CPP_API_test.hpp **** 
 143:src/../test/Threads_CPP_API_test.hpp ****     threads[2] = new WorkerC();
 1287              		.loc 1 143 5 is_stmt 1
 1288              		.loc 1 143 30 is_stmt 0
 1289 0564 13050001 		li	a0,16
 1290 0568 97000000 		call	_Znwm@plt
 1290      E7800000 
 1291              	.LVL138:
 1292              	.LEHE4:
 1293 0570 93040500 		mv	s1,a0
 1294              	.LVL139:
 1295              	.LEHB5:
 1296              	.LBB60:
 1297              	.LBB61:
  42:src/../test/Threads_CPP_API_test.hpp **** 
 1298              		.loc 1 42 22
 1299 0574 97000000 		call	_ZN6ThreadC2Ev@plt
 1299      E7800000 
 1300              	.LVL140:
 1301              	.LEHE5:
 1302 057c 97070000 		lla	a5,_ZTV7WorkerC+16
 1302      93870700 
 1303 0584 23B0F400 		sd	a5,0(s1)
 1304              	.LVL141:
 1305              	.LBE61:
 1306              	.LBE60:
 1307              		.loc 1 143 16
 1308 0588 233894FC 		sd	s1,-48(s0)
 144:src/../test/Threads_CPP_API_test.hpp ****     printString("ThreadC created\n");
 1309              		.loc 1 144 5 is_stmt 1
GAS LISTING /tmp/cc7ZC48C.s 			page 30


 1310              		.loc 1 144 16 is_stmt 0
 1311 058c 17050000 		lla	a0,.LC15
 1311      13050500 
 1312              	.LEHB6:
 1313 0594 97000000 		call	_Z11printStringPKc@plt
 1313      E7800000 
 1314              	.LVL142:
 145:src/../test/Threads_CPP_API_test.hpp **** 
 146:src/../test/Threads_CPP_API_test.hpp ****     threads[3] = new WorkerD();
 1315              		.loc 1 146 5 is_stmt 1
 1316              		.loc 1 146 30 is_stmt 0
 1317 059c 13050001 		li	a0,16
 1318 05a0 97000000 		call	_Znwm@plt
 1318      E7800000 
 1319              	.LVL143:
 1320              	.LEHE6:
 1321 05a8 93040500 		mv	s1,a0
 1322              	.LVL144:
 1323              	.LEHB7:
 1324              	.LBB62:
 1325              	.LBB63:
  52:src/../test/Threads_CPP_API_test.hpp **** 
 1326              		.loc 1 52 22
 1327 05ac 97000000 		call	_ZN6ThreadC2Ev@plt
 1327      E7800000 
 1328              	.LVL145:
 1329              	.LEHE7:
 1330 05b4 97070000 		lla	a5,_ZTV7WorkerD+16
 1330      93870700 
 1331 05bc 23B0F400 		sd	a5,0(s1)
 1332              	.LVL146:
 1333              	.LBE63:
 1334              	.LBE62:
 1335              		.loc 1 146 16
 1336 05c0 233C94FC 		sd	s1,-40(s0)
 147:src/../test/Threads_CPP_API_test.hpp ****     printString("ThreadD created\n");
 1337              		.loc 1 147 5 is_stmt 1
 1338              		.loc 1 147 16 is_stmt 0
 1339 05c4 17050000 		lla	a0,.LC16
 1339      13050500 
 1340              	.LEHB8:
 1341 05cc 97000000 		call	_Z11printStringPKc@plt
 1341      E7800000 
 1342              	.LVL147:
 1343              	.LBB64:
 148:src/../test/Threads_CPP_API_test.hpp **** 
 149:src/../test/Threads_CPP_API_test.hpp ****     for(int i=0; i<4; i++) {
 1344              		.loc 1 149 13
 1345 05d4 93040000 		li	s1,0
 1346              	.L65:
 1347              	.LVL148:
 1348              		.loc 1 149 19 is_stmt 1 discriminator 1
 1349 05d8 93073000 		li	a5,3
 1350 05dc 63C69702 		bgt	s1,a5,.L64
 150:src/../test/Threads_CPP_API_test.hpp ****         threads[i]->start();
 1351              		.loc 1 150 9
 1352              		.loc 1 150 18 is_stmt 0
GAS LISTING /tmp/cc7ZC48C.s 			page 31


 1353 05e0 93973400 		slli	a5,s1,3
 1354 05e4 130704FE 		addi	a4,s0,-32
 1355 05e8 B307F700 		add	a5,a4,a5
 1356              		.loc 1 150 26
 1357 05ec 03B507FE 		ld	a0,-32(a5)
 1358 05f0 97000000 		call	_ZN6Thread5startEv@plt
 1358      E7800000 
 1359              	.LVL149:
 149:src/../test/Threads_CPP_API_test.hpp ****         threads[i]->start();
 1360              		.loc 1 149 5 is_stmt 1
 1361 05f8 9B841400 		addiw	s1,s1,1
 1362              	.LVL150:
 1363 05fc 6FF0DFFD 		j	.L65
 1364              	.LVL151:
 1365              	.L66:
 1366              	.LBE64:
 151:src/../test/Threads_CPP_API_test.hpp ****     }
 152:src/../test/Threads_CPP_API_test.hpp **** 
 153:src/../test/Threads_CPP_API_test.hpp ****     while (!(finishedA && finishedB && finishedC && finishedD)) {
 154:src/../test/Threads_CPP_API_test.hpp ****         Thread::dispatch();
 1367              		.loc 1 154 9
 1368              		.loc 1 154 25 is_stmt 0
 1369 0600 97000000 		call	_ZN6Thread8dispatchEv@plt
 1369      E7800000 
 1370              	.LVL152:
 1371              	.L64:
 153:src/../test/Threads_CPP_API_test.hpp ****         Thread::dispatch();
 1372              		.loc 1 153 5 is_stmt 1
 153:src/../test/Threads_CPP_API_test.hpp ****         Thread::dispatch();
 1373              		.loc 1 153 12
 1374 0608 97070000 		lbu	a5,.LANCHOR0
 1374      83C70700 
 1375 0610 E38807FE 		beqz	a5,.L66
 153:src/../test/Threads_CPP_API_test.hpp ****         Thread::dispatch();
 1376              		.loc 1 153 24 is_stmt 0 discriminator 1
 1377 0614 97070000 		lbu	a5,.LANCHOR0+1
 1377      83C70700 
 1378 061c E38207FE 		beqz	a5,.L66
 153:src/../test/Threads_CPP_API_test.hpp ****         Thread::dispatch();
 1379              		.loc 1 153 37 discriminator 2
 1380 0620 97070000 		lbu	a5,.LANCHOR0+2
 1380      83C70700 
 1381 0628 E38C07FC 		beqz	a5,.L66
 153:src/../test/Threads_CPP_API_test.hpp ****         Thread::dispatch();
 1382              		.loc 1 153 12 discriminator 3
 1383 062c 97070000 		lbu	a5,.LANCHOR0+3
 1383      83C70700 
 1384 0634 E38607FC 		beqz	a5,.L66
 155:src/../test/Threads_CPP_API_test.hpp ****     }
 156:src/../test/Threads_CPP_API_test.hpp ****     printString("Dispecovani\n");
 1385              		.loc 1 156 5 is_stmt 1
 1386              		.loc 1 156 16 is_stmt 0
 1387 0638 17050000 		lla	a0,.LC17
 1387      13050500 
 1388 0640 97000000 		call	_Z11printStringPKc@plt
 1388      E7800000 
 1389              	.LVL153:
GAS LISTING /tmp/cc7ZC48C.s 			page 32


 1390              	.LBB65:
 157:src/../test/Threads_CPP_API_test.hpp ****     for (auto thread: threads) { delete thread; }
 1391              		.loc 1 157 23
 1392 0648 930404FC 		addi	s1,s0,-64
 1393              	.LVL154:
 1394 064c 6F008000 		j	.L70
 1395              	.LVL155:
 1396              	.L69:
 1397              		.loc 1 157 5 is_stmt 1 discriminator 5
 1398 0650 93848400 		addi	s1,s1,8
 1399              	.LVL156:
 1400              	.L70:
 1401              		.loc 1 157 23 discriminator 6
 1402 0654 930704FE 		addi	a5,s0,-32
 1403 0658 638EF400 		beq	s1,a5,.L68
 1404              		.loc 1 157 15 is_stmt 0 discriminator 2
 1405 065c 03B50400 		ld	a0,0(s1)
 1406              	.LVL157:
 1407              		.loc 1 157 34 is_stmt 1 discriminator 2
 1408              		.loc 1 157 47 is_stmt 0 discriminator 2
 1409 0660 E30805FE 		beqz	a0,.L69
 1410              		.loc 1 157 41 discriminator 3
 1411 0664 83370500 		ld	a5,0(a0)
 1412 0668 83B78700 		ld	a5,8(a5)
 1413 066c E7800700 		jalr	a5
 1414              	.LVL158:
 1415 0670 6FF01FFE 		j	.L69
 1416              	.L68:
 1417              	.LBE65:
 158:src/../test/Threads_CPP_API_test.hpp ****     printString("Obrisani\n");
 1418              		.loc 1 158 5 is_stmt 1
 1419              		.loc 1 158 16 is_stmt 0
 1420 0674 17050000 		lla	a0,.LC18
 1420      13050500 
 1421 067c 97000000 		call	_Z11printStringPKc@plt
 1421      E7800000 
 1422              	.LVL159:
 1423              	.LEHE8:
 159:src/../test/Threads_CPP_API_test.hpp **** }
 1424              		.loc 1 159 1
 1425 0684 83308103 		ld	ra,56(sp)
 1426              		.cfi_remember_state
 1427              		.cfi_restore 1
 1428 0688 03340103 		ld	s0,48(sp)
 1429              		.cfi_restore 8
 1430              		.cfi_def_cfa 2, 64
 1431 068c 83348102 		ld	s1,40(sp)
 1432              		.cfi_restore 9
 1433              	.LVL160:
 1434 0690 03390102 		ld	s2,32(sp)
 1435              		.cfi_restore 18
 1436 0694 13010104 		addi	sp,sp,64
 1437              		.cfi_def_cfa_offset 0
 1438 0698 67800000 		jr	ra
 1439              	.LVL161:
 1440              	.L75:
 1441              		.cfi_restore_state
GAS LISTING /tmp/cc7ZC48C.s 			page 33


 1442 069c 13090500 		mv	s2,a0
 137:src/../test/Threads_CPP_API_test.hpp ****     printString("ThreadA created\n");
 1443              		.loc 1 137 30
 1444 06a0 13850400 		mv	a0,s1
 1445 06a4 97000000 		call	_ZdlPv@plt
 1445      E7800000 
 1446              	.LVL162:
 1447 06ac 13050900 		mv	a0,s2
 1448              	.LEHB9:
 1449 06b0 97000000 		call	_Unwind_Resume@plt
 1449      E7800000 
 1450              	.LVL163:
 1451              	.LEHE9:
 1452              	.L76:
 1453 06b8 13090500 		mv	s2,a0
 140:src/../test/Threads_CPP_API_test.hpp ****     printString("ThreadB created\n");
 1454              		.loc 1 140 30
 1455 06bc 13850400 		mv	a0,s1
 1456 06c0 97000000 		call	_ZdlPv@plt
 1456      E7800000 
 1457              	.LVL164:
 1458 06c8 13050900 		mv	a0,s2
 1459              	.LEHB10:
 1460 06cc 97000000 		call	_Unwind_Resume@plt
 1460      E7800000 
 1461              	.LVL165:
 1462              	.LEHE10:
 1463              	.L77:
 1464 06d4 13090500 		mv	s2,a0
 143:src/../test/Threads_CPP_API_test.hpp ****     printString("ThreadC created\n");
 1465              		.loc 1 143 30
 1466 06d8 13850400 		mv	a0,s1
 1467 06dc 97000000 		call	_ZdlPv@plt
 1467      E7800000 
 1468              	.LVL166:
 1469 06e4 13050900 		mv	a0,s2
 1470              	.LEHB11:
 1471 06e8 97000000 		call	_Unwind_Resume@plt
 1471      E7800000 
 1472              	.LVL167:
 1473              	.LEHE11:
 1474              	.L78:
 1475 06f0 13090500 		mv	s2,a0
 146:src/../test/Threads_CPP_API_test.hpp ****     printString("ThreadD created\n");
 1476              		.loc 1 146 30
 1477 06f4 13850400 		mv	a0,s1
 1478 06f8 97000000 		call	_ZdlPv@plt
 1478      E7800000 
 1479              	.LVL168:
 1480 0700 13050900 		mv	a0,s2
 1481              	.LEHB12:
 1482 0704 97000000 		call	_Unwind_Resume@plt
 1482      E7800000 
 1483              	.LVL169:
 1484              	.LEHE12:
 1485              		.cfi_endproc
 1486              	.LFE22:
GAS LISTING /tmp/cc7ZC48C.s 			page 34


 1487              		.globl	__gxx_personality_v0
 1488              		.section	.gcc_except_table,"a",@progbits
 1489              	.LLSDA22:
 1490 0000 FF       		.byte	0xff
 1491 0001 FF       		.byte	0xff
 1492 0002 03       		.byte	0x3
 1493 0003 A901     		.byte	0xa9,0x1
 1494 0005 00000000 		.4byte	.LEHB0-.LFB22
 1495 0009 00000000 		.4byte	.LEHE0-.LEHB0
 1496 000d 00000000 		.4byte	0
 1497 0011 00       		.byte	0
 1498 0012 00000000 		.4byte	.LEHB1-.LFB22
 1499 0016 00000000 		.4byte	.LEHE1-.LEHB1
 1500 001a 00000000 		.4byte	.L75-.LFB22
 1501 001e 00       		.byte	0
 1502 001f 00000000 		.4byte	.LEHB2-.LFB22
 1503 0023 00000000 		.4byte	.LEHE2-.LEHB2
 1504 0027 00000000 		.4byte	0
 1505 002b 00       		.byte	0
 1506 002c 00000000 		.4byte	.LEHB3-.LFB22
 1507 0030 00000000 		.4byte	.LEHE3-.LEHB3
 1508 0034 00000000 		.4byte	.L76-.LFB22
 1509 0038 00       		.byte	0
 1510 0039 00000000 		.4byte	.LEHB4-.LFB22
 1511 003d 00000000 		.4byte	.LEHE4-.LEHB4
 1512 0041 00000000 		.4byte	0
 1513 0045 00       		.byte	0
 1514 0046 00000000 		.4byte	.LEHB5-.LFB22
 1515 004a 00000000 		.4byte	.LEHE5-.LEHB5
 1516 004e 00000000 		.4byte	.L77-.LFB22
 1517 0052 00       		.byte	0
 1518 0053 00000000 		.4byte	.LEHB6-.LFB22
 1519 0057 00000000 		.4byte	.LEHE6-.LEHB6
 1520 005b 00000000 		.4byte	0
 1521 005f 00       		.byte	0
 1522 0060 00000000 		.4byte	.LEHB7-.LFB22
 1523 0064 00000000 		.4byte	.LEHE7-.LEHB7
 1524 0068 00000000 		.4byte	.L78-.LFB22
 1525 006c 00       		.byte	0
 1526 006d 00000000 		.4byte	.LEHB8-.LFB22
 1527 0071 00000000 		.4byte	.LEHE8-.LEHB8
 1528 0075 00000000 		.4byte	0
 1529 0079 00       		.byte	0
 1530 007a 00000000 		.4byte	.LEHB9-.LFB22
 1531 007e 00000000 		.4byte	.LEHE9-.LEHB9
 1532 0082 00000000 		.4byte	0
 1533 0086 00       		.byte	0
 1534 0087 00000000 		.4byte	.LEHB10-.LFB22
 1535 008b 00000000 		.4byte	.LEHE10-.LEHB10
 1536 008f 00000000 		.4byte	0
 1537 0093 00       		.byte	0
 1538 0094 00000000 		.4byte	.LEHB11-.LFB22
 1539 0098 00000000 		.4byte	.LEHE11-.LEHB11
 1540 009c 00000000 		.4byte	0
 1541 00a0 00       		.byte	0
 1542 00a1 00000000 		.4byte	.LEHB12-.LFB22
 1543 00a5 00000000 		.4byte	.LEHE12-.LEHB12
GAS LISTING /tmp/cc7ZC48C.s 			page 35


 1544 00a9 00000000 		.4byte	0
 1545 00ad 00       		.byte	0
 1546              		.text
 1548              		.align	2
 1549              		.globl	_Z8userMainv
 1551              	_Z8userMainv:
 1552              	.LFB23:
 1553              		.file 2 "src/userMain.cpp"
   1:src/userMain.cpp **** //#include "../test/Threads_C_API_test.hpp" // zadatak 2, niti C API i sinhrona promena konteksta
   2:src/userMain.cpp **** #include "../test/Threads_CPP_API_test.hpp" // zadatak 2., niti CPP API i sinhrona promena kontekst
   3:src/userMain.cpp **** 
   4:src/userMain.cpp **** //#include "../test/ConsumerProducer_C_API_test.h" // zadatak 3., kompletan C API sa semaforima, si
   5:src/userMain.cpp **** //#include "../test/ConsumerProducer_CPP_Sync_API_test.hpp" // zadatak 3., kompletan CPP API sa sem
   6:src/userMain.cpp **** 
   7:src/userMain.cpp **** //#include "../test/ThreadSleep_C_API_test.hpp" // thread_sleep test C API
   8:src/userMain.cpp **** //#include "../test/ConsumerProducer_CPP_API_test.hpp" // zadatak 4. CPP API i asinhrona promena ko
   9:src/userMain.cpp **** 
  10:src/userMain.cpp **** void userMain() {
 1554              		.loc 2 10 17 is_stmt 1
 1555              		.cfi_startproc
 1556 070c 130101FF 		addi	sp,sp,-16
 1557              		.cfi_def_cfa_offset 16
 1558 0710 23341100 		sd	ra,8(sp)
 1559 0714 23308100 		sd	s0,0(sp)
 1560              		.cfi_offset 1, -8
 1561              		.cfi_offset 8, -16
 1562 0718 13040101 		addi	s0,sp,16
 1563              		.cfi_def_cfa 8, 0
  11:src/userMain.cpp ****     //Threads_C_API_test(); // zadatak 2., niti C API i sinhrona promena konteksta
  12:src/userMain.cpp ****     Threads_CPP_API_test(); // zadatak 2., niti CPP API i sinhrona promena konteksta
 1564              		.loc 2 12 5
 1565              		.loc 2 12 25 is_stmt 0
 1566 071c 97000000 		call	_Z20Threads_CPP_API_testv
 1566      E7800000 
 1567              	.LVL170:
  13:src/userMain.cpp **** 
  14:src/userMain.cpp ****     //producerConsumer_C_API(); // zadatak 3., kompletan C API sa semaforima, sinhrona promena kont
  15:src/userMain.cpp ****     //producerConsumer_CPP_Sync_API(); // zadatak 3., kompletan CPP API sa semaforima, sinhrona pro
  16:src/userMain.cpp **** 
  17:src/userMain.cpp ****     //testSleeping(); // thread_sleep test C API
  18:src/userMain.cpp ****     //ConsumerProducerCPP::testConsumerProducer(); // zadatak 4. CPP API i asinhrona promena kontek
  19:src/userMain.cpp **** 
  20:src/userMain.cpp **** }...
 1568              		.loc 2 20 1
 1569 0724 83308100 		ld	ra,8(sp)
 1570              		.cfi_restore 1
 1571 0728 03340100 		ld	s0,0(sp)
 1572              		.cfi_restore 8
 1573              		.cfi_def_cfa 2, 16
 1574 072c 13010101 		addi	sp,sp,16
 1575              		.cfi_def_cfa_offset 0
 1576 0730 67800000 		jr	ra
 1577              		.cfi_endproc
 1578              	.LFE23:
 1580              		.weak	_ZTV7WorkerA
 1581              		.section	.data.rel.ro.local._ZTV7WorkerA,"awG",@progbits,_ZTV7WorkerA,comdat
 1582              		.align	3
GAS LISTING /tmp/cc7ZC48C.s 			page 36


 1585              	_ZTV7WorkerA:
 1586 0000 00000000 		.dword	0
 1586      00000000 
 1587 0008 00000000 		.dword	0
 1587      00000000 
 1588 0010 00000000 		.dword	_ZN7WorkerAD1Ev
 1588      00000000 
 1589 0018 00000000 		.dword	_ZN7WorkerAD0Ev
 1589      00000000 
 1590 0020 00000000 		.dword	_ZN7WorkerA3runEv
 1590      00000000 
 1591              		.weak	_ZTV7WorkerB
 1592              		.section	.data.rel.ro.local._ZTV7WorkerB,"awG",@progbits,_ZTV7WorkerB,comdat
 1593              		.align	3
 1596              	_ZTV7WorkerB:
 1597 0000 00000000 		.dword	0
 1597      00000000 
 1598 0008 00000000 		.dword	0
 1598      00000000 
 1599 0010 00000000 		.dword	_ZN7WorkerBD1Ev
 1599      00000000 
 1600 0018 00000000 		.dword	_ZN7WorkerBD0Ev
 1600      00000000 
 1601 0020 00000000 		.dword	_ZN7WorkerB3runEv
 1601      00000000 
 1602              		.weak	_ZTV7WorkerC
 1603              		.section	.data.rel.ro.local._ZTV7WorkerC,"awG",@progbits,_ZTV7WorkerC,comdat
 1604              		.align	3
 1607              	_ZTV7WorkerC:
 1608 0000 00000000 		.dword	0
 1608      00000000 
 1609 0008 00000000 		.dword	0
 1609      00000000 
 1610 0010 00000000 		.dword	_ZN7WorkerCD1Ev
 1610      00000000 
 1611 0018 00000000 		.dword	_ZN7WorkerCD0Ev
 1611      00000000 
 1612 0020 00000000 		.dword	_ZN7WorkerC3runEv
 1612      00000000 
 1613              		.weak	_ZTV7WorkerD
 1614              		.section	.data.rel.ro.local._ZTV7WorkerD,"awG",@progbits,_ZTV7WorkerD,comdat
 1615              		.align	3
 1618              	_ZTV7WorkerD:
 1619 0000 00000000 		.dword	0
 1619      00000000 
 1620 0008 00000000 		.dword	0
 1620      00000000 
 1621 0010 00000000 		.dword	_ZN7WorkerDD1Ev
 1621      00000000 
 1622 0018 00000000 		.dword	_ZN7WorkerDD0Ev
 1622      00000000 
 1623 0020 00000000 		.dword	_ZN7WorkerD3runEv
 1623      00000000 
 1624              		.globl	finishedD
 1625              		.globl	finishedC
 1626              		.globl	finishedB
 1627              		.globl	finishedA
GAS LISTING /tmp/cc7ZC48C.s 			page 37


 1628              		.bss
 1629              		.set	.LANCHOR0,. + 0
 1632              	finishedA:
 1633 0000 00       		.zero	1
 1636              	finishedB:
 1637 0001 00       		.zero	1
 1640              	finishedC:
 1641 0002 00       		.zero	1
 1644              	finishedD:
 1645 0003 00       		.zero	1
 1646              		.text
 1647              	.Letext0:
 1648              		.file 3 "src/../test/../h/../lib/hw.h"
 1649              		.file 4 "src/../test/../h/syscall_cpp.hpp"
 1650              		.file 5 "src/../test/../h/syscall_c.h"
 1651              		.file 6 "src/../test/../h/printing.hpp"
 5570              		.align	3
 5573              	DW.ref.__gxx_personality_v0:
 5574 0000 00000000 		.dword	__gxx_personality_v0
 5574      00000000 
 5575              		.ident	"GCC: (Ubuntu 9.4.0-1ubuntu1~20.04) 9.4.0"
 5576              		.section	.note.GNU-stack,"",@progbits
GAS LISTING /tmp/cc7ZC48C.s 			page 38


DEFINED SYMBOLS
                            *ABS*:0000000000000000 userMain.cpp
     /tmp/cc7ZC48C.s:10     .text._ZN7WorkerAD2Ev:0000000000000000 _ZN7WorkerAD2Ev
     /tmp/cc7ZC48C.s:14     .text._ZN7WorkerAD2Ev:0000000000000000 .L0 
     /tmp/cc7ZC48C.s:16     .text._ZN7WorkerAD2Ev:0000000000000000 .L0 
     /tmp/cc7ZC48C.s:17     .text._ZN7WorkerAD2Ev:0000000000000004 .L0 
     /tmp/cc7ZC48C.s:20     .text._ZN7WorkerAD2Ev:000000000000000c .L0 
     /tmp/cc7ZC48C.s:21     .text._ZN7WorkerAD2Ev:000000000000000c .L0 
     /tmp/cc7ZC48C.s:23     .text._ZN7WorkerAD2Ev:0000000000000010 .L0 
     /tmp/cc7ZC48C.s:1585   .data.rel.ro.local._ZTV7WorkerA:0000000000000000 _ZTV7WorkerA
     /tmp/cc7ZC48C.s:26     .text._ZN7WorkerAD2Ev:0000000000000010 .L0 
     /tmp/cc7ZC48C.s:32     .text._ZN7WorkerAD2Ev:0000000000000028 .L0 
     /tmp/cc7ZC48C.s:34     .text._ZN7WorkerAD2Ev:000000000000002c .L0 
     /tmp/cc7ZC48C.s:35     .text._ZN7WorkerAD2Ev:000000000000002c .L0 
     /tmp/cc7ZC48C.s:37     .text._ZN7WorkerAD2Ev:0000000000000030 .L0 
     /tmp/cc7ZC48C.s:39     .text._ZN7WorkerAD2Ev:0000000000000034 .L0 
     /tmp/cc7ZC48C.s:10     .text._ZN7WorkerAD2Ev:0000000000000000 _ZN7WorkerAD1Ev
     /tmp/cc7ZC48C.s:48     .text._ZN7WorkerAD0Ev:0000000000000000 _ZN7WorkerAD0Ev
     /tmp/cc7ZC48C.s:51     .text._ZN7WorkerAD0Ev:0000000000000000 .L0 
     /tmp/cc7ZC48C.s:53     .text._ZN7WorkerAD0Ev:0000000000000000 .L0 
     /tmp/cc7ZC48C.s:54     .text._ZN7WorkerAD0Ev:0000000000000004 .L0 
     /tmp/cc7ZC48C.s:58     .text._ZN7WorkerAD0Ev:0000000000000010 .L0 
     /tmp/cc7ZC48C.s:59     .text._ZN7WorkerAD0Ev:0000000000000010 .L0 
     /tmp/cc7ZC48C.s:60     .text._ZN7WorkerAD0Ev:0000000000000010 .L0 
     /tmp/cc7ZC48C.s:62     .text._ZN7WorkerAD0Ev:0000000000000014 .L0 
     /tmp/cc7ZC48C.s:68     .text._ZN7WorkerAD0Ev:0000000000000018 .L0 
     /tmp/cc7ZC48C.s:78     .text._ZN7WorkerAD0Ev:000000000000003c .L0 
     /tmp/cc7ZC48C.s:80     .text._ZN7WorkerAD0Ev:0000000000000040 .L0 
     /tmp/cc7ZC48C.s:81     .text._ZN7WorkerAD0Ev:0000000000000040 .L0 
     /tmp/cc7ZC48C.s:83     .text._ZN7WorkerAD0Ev:0000000000000044 .L0 
     /tmp/cc7ZC48C.s:86     .text._ZN7WorkerAD0Ev:0000000000000048 .L0 
     /tmp/cc7ZC48C.s:88     .text._ZN7WorkerAD0Ev:000000000000004c .L0 
     /tmp/cc7ZC48C.s:95     .text._ZN7WorkerBD2Ev:0000000000000000 _ZN7WorkerBD2Ev
     /tmp/cc7ZC48C.s:98     .text._ZN7WorkerBD2Ev:0000000000000000 .L0 
     /tmp/cc7ZC48C.s:100    .text._ZN7WorkerBD2Ev:0000000000000000 .L0 
     /tmp/cc7ZC48C.s:101    .text._ZN7WorkerBD2Ev:0000000000000004 .L0 
     /tmp/cc7ZC48C.s:104    .text._ZN7WorkerBD2Ev:000000000000000c .L0 
     /tmp/cc7ZC48C.s:105    .text._ZN7WorkerBD2Ev:000000000000000c .L0 
     /tmp/cc7ZC48C.s:107    .text._ZN7WorkerBD2Ev:0000000000000010 .L0 
     /tmp/cc7ZC48C.s:1596   .data.rel.ro.local._ZTV7WorkerB:0000000000000000 _ZTV7WorkerB
     /tmp/cc7ZC48C.s:110    .text._ZN7WorkerBD2Ev:0000000000000010 .L0 
     /tmp/cc7ZC48C.s:116    .text._ZN7WorkerBD2Ev:0000000000000028 .L0 
     /tmp/cc7ZC48C.s:118    .text._ZN7WorkerBD2Ev:000000000000002c .L0 
     /tmp/cc7ZC48C.s:119    .text._ZN7WorkerBD2Ev:000000000000002c .L0 
     /tmp/cc7ZC48C.s:121    .text._ZN7WorkerBD2Ev:0000000000000030 .L0 
     /tmp/cc7ZC48C.s:123    .text._ZN7WorkerBD2Ev:0000000000000034 .L0 
     /tmp/cc7ZC48C.s:95     .text._ZN7WorkerBD2Ev:0000000000000000 _ZN7WorkerBD1Ev
     /tmp/cc7ZC48C.s:132    .text._ZN7WorkerBD0Ev:0000000000000000 _ZN7WorkerBD0Ev
     /tmp/cc7ZC48C.s:135    .text._ZN7WorkerBD0Ev:0000000000000000 .L0 
     /tmp/cc7ZC48C.s:137    .text._ZN7WorkerBD0Ev:0000000000000000 .L0 
     /tmp/cc7ZC48C.s:138    .text._ZN7WorkerBD0Ev:0000000000000004 .L0 
     /tmp/cc7ZC48C.s:142    .text._ZN7WorkerBD0Ev:0000000000000010 .L0 
     /tmp/cc7ZC48C.s:143    .text._ZN7WorkerBD0Ev:0000000000000010 .L0 
     /tmp/cc7ZC48C.s:144    .text._ZN7WorkerBD0Ev:0000000000000010 .L0 
     /tmp/cc7ZC48C.s:146    .text._ZN7WorkerBD0Ev:0000000000000014 .L0 
     /tmp/cc7ZC48C.s:152    .text._ZN7WorkerBD0Ev:0000000000000018 .L0 
     /tmp/cc7ZC48C.s:162    .text._ZN7WorkerBD0Ev:000000000000003c .L0 
GAS LISTING /tmp/cc7ZC48C.s 			page 39


     /tmp/cc7ZC48C.s:164    .text._ZN7WorkerBD0Ev:0000000000000040 .L0 
     /tmp/cc7ZC48C.s:165    .text._ZN7WorkerBD0Ev:0000000000000040 .L0 
     /tmp/cc7ZC48C.s:167    .text._ZN7WorkerBD0Ev:0000000000000044 .L0 
     /tmp/cc7ZC48C.s:170    .text._ZN7WorkerBD0Ev:0000000000000048 .L0 
     /tmp/cc7ZC48C.s:172    .text._ZN7WorkerBD0Ev:000000000000004c .L0 
     /tmp/cc7ZC48C.s:179    .text._ZN7WorkerCD2Ev:0000000000000000 _ZN7WorkerCD2Ev
     /tmp/cc7ZC48C.s:182    .text._ZN7WorkerCD2Ev:0000000000000000 .L0 
     /tmp/cc7ZC48C.s:184    .text._ZN7WorkerCD2Ev:0000000000000000 .L0 
     /tmp/cc7ZC48C.s:185    .text._ZN7WorkerCD2Ev:0000000000000004 .L0 
     /tmp/cc7ZC48C.s:188    .text._ZN7WorkerCD2Ev:000000000000000c .L0 
     /tmp/cc7ZC48C.s:189    .text._ZN7WorkerCD2Ev:000000000000000c .L0 
     /tmp/cc7ZC48C.s:191    .text._ZN7WorkerCD2Ev:0000000000000010 .L0 
     /tmp/cc7ZC48C.s:1607   .data.rel.ro.local._ZTV7WorkerC:0000000000000000 _ZTV7WorkerC
     /tmp/cc7ZC48C.s:194    .text._ZN7WorkerCD2Ev:0000000000000010 .L0 
     /tmp/cc7ZC48C.s:200    .text._ZN7WorkerCD2Ev:0000000000000028 .L0 
     /tmp/cc7ZC48C.s:202    .text._ZN7WorkerCD2Ev:000000000000002c .L0 
     /tmp/cc7ZC48C.s:203    .text._ZN7WorkerCD2Ev:000000000000002c .L0 
     /tmp/cc7ZC48C.s:205    .text._ZN7WorkerCD2Ev:0000000000000030 .L0 
     /tmp/cc7ZC48C.s:207    .text._ZN7WorkerCD2Ev:0000000000000034 .L0 
     /tmp/cc7ZC48C.s:179    .text._ZN7WorkerCD2Ev:0000000000000000 _ZN7WorkerCD1Ev
     /tmp/cc7ZC48C.s:216    .text._ZN7WorkerCD0Ev:0000000000000000 _ZN7WorkerCD0Ev
     /tmp/cc7ZC48C.s:219    .text._ZN7WorkerCD0Ev:0000000000000000 .L0 
     /tmp/cc7ZC48C.s:221    .text._ZN7WorkerCD0Ev:0000000000000000 .L0 
     /tmp/cc7ZC48C.s:222    .text._ZN7WorkerCD0Ev:0000000000000004 .L0 
     /tmp/cc7ZC48C.s:226    .text._ZN7WorkerCD0Ev:0000000000000010 .L0 
     /tmp/cc7ZC48C.s:227    .text._ZN7WorkerCD0Ev:0000000000000010 .L0 
     /tmp/cc7ZC48C.s:228    .text._ZN7WorkerCD0Ev:0000000000000010 .L0 
     /tmp/cc7ZC48C.s:230    .text._ZN7WorkerCD0Ev:0000000000000014 .L0 
     /tmp/cc7ZC48C.s:236    .text._ZN7WorkerCD0Ev:0000000000000018 .L0 
     /tmp/cc7ZC48C.s:246    .text._ZN7WorkerCD0Ev:000000000000003c .L0 
     /tmp/cc7ZC48C.s:248    .text._ZN7WorkerCD0Ev:0000000000000040 .L0 
     /tmp/cc7ZC48C.s:249    .text._ZN7WorkerCD0Ev:0000000000000040 .L0 
     /tmp/cc7ZC48C.s:251    .text._ZN7WorkerCD0Ev:0000000000000044 .L0 
     /tmp/cc7ZC48C.s:254    .text._ZN7WorkerCD0Ev:0000000000000048 .L0 
     /tmp/cc7ZC48C.s:256    .text._ZN7WorkerCD0Ev:000000000000004c .L0 
     /tmp/cc7ZC48C.s:263    .text._ZN7WorkerDD2Ev:0000000000000000 _ZN7WorkerDD2Ev
     /tmp/cc7ZC48C.s:266    .text._ZN7WorkerDD2Ev:0000000000000000 .L0 
     /tmp/cc7ZC48C.s:268    .text._ZN7WorkerDD2Ev:0000000000000000 .L0 
     /tmp/cc7ZC48C.s:269    .text._ZN7WorkerDD2Ev:0000000000000004 .L0 
     /tmp/cc7ZC48C.s:272    .text._ZN7WorkerDD2Ev:000000000000000c .L0 
     /tmp/cc7ZC48C.s:273    .text._ZN7WorkerDD2Ev:000000000000000c .L0 
     /tmp/cc7ZC48C.s:275    .text._ZN7WorkerDD2Ev:0000000000000010 .L0 
     /tmp/cc7ZC48C.s:1618   .data.rel.ro.local._ZTV7WorkerD:0000000000000000 _ZTV7WorkerD
     /tmp/cc7ZC48C.s:278    .text._ZN7WorkerDD2Ev:0000000000000010 .L0 
     /tmp/cc7ZC48C.s:284    .text._ZN7WorkerDD2Ev:0000000000000028 .L0 
     /tmp/cc7ZC48C.s:286    .text._ZN7WorkerDD2Ev:000000000000002c .L0 
     /tmp/cc7ZC48C.s:287    .text._ZN7WorkerDD2Ev:000000000000002c .L0 
     /tmp/cc7ZC48C.s:289    .text._ZN7WorkerDD2Ev:0000000000000030 .L0 
     /tmp/cc7ZC48C.s:291    .text._ZN7WorkerDD2Ev:0000000000000034 .L0 
     /tmp/cc7ZC48C.s:263    .text._ZN7WorkerDD2Ev:0000000000000000 _ZN7WorkerDD1Ev
     /tmp/cc7ZC48C.s:300    .text._ZN7WorkerDD0Ev:0000000000000000 _ZN7WorkerDD0Ev
     /tmp/cc7ZC48C.s:303    .text._ZN7WorkerDD0Ev:0000000000000000 .L0 
     /tmp/cc7ZC48C.s:305    .text._ZN7WorkerDD0Ev:0000000000000000 .L0 
     /tmp/cc7ZC48C.s:306    .text._ZN7WorkerDD0Ev:0000000000000004 .L0 
     /tmp/cc7ZC48C.s:310    .text._ZN7WorkerDD0Ev:0000000000000010 .L0 
     /tmp/cc7ZC48C.s:311    .text._ZN7WorkerDD0Ev:0000000000000010 .L0 
     /tmp/cc7ZC48C.s:312    .text._ZN7WorkerDD0Ev:0000000000000010 .L0 
GAS LISTING /tmp/cc7ZC48C.s 			page 40


     /tmp/cc7ZC48C.s:314    .text._ZN7WorkerDD0Ev:0000000000000014 .L0 
     /tmp/cc7ZC48C.s:320    .text._ZN7WorkerDD0Ev:0000000000000018 .L0 
     /tmp/cc7ZC48C.s:330    .text._ZN7WorkerDD0Ev:000000000000003c .L0 
     /tmp/cc7ZC48C.s:332    .text._ZN7WorkerDD0Ev:0000000000000040 .L0 
     /tmp/cc7ZC48C.s:333    .text._ZN7WorkerDD0Ev:0000000000000040 .L0 
     /tmp/cc7ZC48C.s:335    .text._ZN7WorkerDD0Ev:0000000000000044 .L0 
     /tmp/cc7ZC48C.s:338    .text._ZN7WorkerDD0Ev:0000000000000048 .L0 
     /tmp/cc7ZC48C.s:340    .text._ZN7WorkerDD0Ev:000000000000004c .L0 
     /tmp/cc7ZC48C.s:347    .text:0000000000000000 _Z9fibonaccim
     /tmp/cc7ZC48C.s:350    .text:0000000000000000 .L0 
     /tmp/cc7ZC48C.s:352    .text:0000000000000000 .L0 
     /tmp/cc7ZC48C.s:353    .text:0000000000000004 .L0 
     /tmp/cc7ZC48C.s:358    .text:0000000000000014 .L0 
     /tmp/cc7ZC48C.s:359    .text:0000000000000014 .L0 
     /tmp/cc7ZC48C.s:360    .text:0000000000000014 .L0 
     /tmp/cc7ZC48C.s:361    .text:0000000000000014 .L0 
     /tmp/cc7ZC48C.s:363    .text:0000000000000018 .L0 
     /tmp/cc7ZC48C.s:366    .text:000000000000001c .L0 
     /tmp/cc7ZC48C.s:369    .text:0000000000000024 .L0 
     /tmp/cc7ZC48C.s:370    .text:0000000000000024 .L0 
     /tmp/cc7ZC48C.s:373    .text:000000000000002c .L0 
     /tmp/cc7ZC48C.s:377    .text:0000000000000030 .L0 
     /tmp/cc7ZC48C.s:378    .text:0000000000000030 .L0 
     /tmp/cc7ZC48C.s:383    .text:0000000000000040 .L0 
     /tmp/cc7ZC48C.s:387    .text:000000000000004c .L0 
     /tmp/cc7ZC48C.s:390    .text:0000000000000050 .L0 
     /tmp/cc7ZC48C.s:391    .text:0000000000000054 .L0 
     /tmp/cc7ZC48C.s:392    .text:0000000000000054 .L0 
     /tmp/cc7ZC48C.s:394    .text:0000000000000058 .L0 
     /tmp/cc7ZC48C.s:395    .text:0000000000000058 .L0 
     /tmp/cc7ZC48C.s:397    .text:000000000000005c .L0 
     /tmp/cc7ZC48C.s:400    .text:0000000000000060 .L0 
     /tmp/cc7ZC48C.s:402    .text:0000000000000064 .L0 
     /tmp/cc7ZC48C.s:406    .text:0000000000000068 .L0 
     /tmp/cc7ZC48C.s:408    .text:0000000000000068 .L0 
     /tmp/cc7ZC48C.s:409    .text:0000000000000068 .L0 
     /tmp/cc7ZC48C.s:412    .text:0000000000000074 .L0 
     /tmp/cc7ZC48C.s:429    .text:0000000000000074 _ZN7WorkerA11workerBodyAEPv
     /tmp/cc7ZC48C.s:432    .text:0000000000000074 .L0 
     /tmp/cc7ZC48C.s:434    .text:0000000000000074 .L0 
     /tmp/cc7ZC48C.s:435    .text:0000000000000078 .L0 
     /tmp/cc7ZC48C.s:440    .text:0000000000000088 .L0 
     /tmp/cc7ZC48C.s:441    .text:0000000000000088 .L0 
     /tmp/cc7ZC48C.s:442    .text:0000000000000088 .L0 
     /tmp/cc7ZC48C.s:443    .text:0000000000000088 .L0 
     /tmp/cc7ZC48C.s:445    .text:000000000000008c .L0 
     /tmp/cc7ZC48C.s:449    .text:000000000000008c .L0 
     /tmp/cc7ZC48C.s:450    .text:000000000000008c .L0 
     /tmp/cc7ZC48C.s:458    .text:0000000000000094 .L0 
     /tmp/cc7ZC48C.s:459    .text:0000000000000094 .L0 
     /tmp/cc7ZC48C.s:463    .text:000000000000009c .L0 
     /tmp/cc7ZC48C.s:467    .text:00000000000000a0 .L0 
     /tmp/cc7ZC48C.s:473    .text:00000000000000ac .L0 
     /tmp/cc7ZC48C.s:477    .text:00000000000000b0 .L0 
     /tmp/cc7ZC48C.s:481    .text:00000000000000bc .L0 
     /tmp/cc7ZC48C.s:491    .text:00000000000000c4 .L0 
     /tmp/cc7ZC48C.s:495    .text:00000000000000c8 .L0 
GAS LISTING /tmp/cc7ZC48C.s 			page 41


     /tmp/cc7ZC48C.s:499    .text:00000000000000d0 .L0 
     /tmp/cc7ZC48C.s:500    .text:00000000000000d0 .L0 
     /tmp/cc7ZC48C.s:504    .text:00000000000000e0 .L0 
     /tmp/cc7ZC48C.s:505    .text:00000000000000e0 .L0 
     /tmp/cc7ZC48C.s:511    .text:00000000000000f4 .L0 
     /tmp/cc7ZC48C.s:512    .text:00000000000000f4 .L0 
     /tmp/cc7ZC48C.s:517    .text:0000000000000104 .L0 
     /tmp/cc7ZC48C.s:518    .text:0000000000000104 .L0 
     /tmp/cc7ZC48C.s:526    .text:000000000000010c .L0 
     /tmp/cc7ZC48C.s:527    .text:000000000000010c .L0 
     /tmp/cc7ZC48C.s:531    .text:000000000000011c .L0 
     /tmp/cc7ZC48C.s:532    .text:000000000000011c .L0 
     /tmp/cc7ZC48C.s:535    .text:0000000000000128 .L0 
     /tmp/cc7ZC48C.s:536    .text:000000000000012c .L0 
     /tmp/cc7ZC48C.s:538    .text:0000000000000130 .L0 
     /tmp/cc7ZC48C.s:539    .text:0000000000000130 .L0 
     /tmp/cc7ZC48C.s:541    .text:0000000000000134 .L0 
     /tmp/cc7ZC48C.s:543    .text:0000000000000138 .L0 
     /tmp/cc7ZC48C.s:546    .text:000000000000013c .L0 
     /tmp/cc7ZC48C.s:548    .text:0000000000000140 .L0 
     /tmp/cc7ZC48C.s:555    .text._ZN7WorkerA3runEv:0000000000000000 _ZN7WorkerA3runEv
     /tmp/cc7ZC48C.s:558    .text._ZN7WorkerA3runEv:0000000000000000 .L0 
     /tmp/cc7ZC48C.s:560    .text._ZN7WorkerA3runEv:0000000000000000 .L0 
     /tmp/cc7ZC48C.s:561    .text._ZN7WorkerA3runEv:0000000000000004 .L0 
     /tmp/cc7ZC48C.s:564    .text._ZN7WorkerA3runEv:000000000000000c .L0 
     /tmp/cc7ZC48C.s:565    .text._ZN7WorkerA3runEv:000000000000000c .L0 
     /tmp/cc7ZC48C.s:567    .text._ZN7WorkerA3runEv:0000000000000010 .L0 
     /tmp/cc7ZC48C.s:569    .text._ZN7WorkerA3runEv:0000000000000010 .L0 
     /tmp/cc7ZC48C.s:570    .text._ZN7WorkerA3runEv:0000000000000010 .L0 
     /tmp/cc7ZC48C.s:574    .text._ZN7WorkerA3runEv:000000000000001c .L0 
     /tmp/cc7ZC48C.s:575    .text._ZN7WorkerA3runEv:0000000000000020 .L0 
     /tmp/cc7ZC48C.s:577    .text._ZN7WorkerA3runEv:0000000000000024 .L0 
     /tmp/cc7ZC48C.s:578    .text._ZN7WorkerA3runEv:0000000000000024 .L0 
     /tmp/cc7ZC48C.s:580    .text._ZN7WorkerA3runEv:0000000000000028 .L0 
     /tmp/cc7ZC48C.s:582    .text._ZN7WorkerA3runEv:000000000000002c .L0 
     /tmp/cc7ZC48C.s:596    .text:0000000000000140 _ZN7WorkerB11workerBodyBEPv
     /tmp/cc7ZC48C.s:599    .text:0000000000000140 .L0 
     /tmp/cc7ZC48C.s:601    .text:0000000000000140 .L0 
     /tmp/cc7ZC48C.s:602    .text:0000000000000144 .L0 
     /tmp/cc7ZC48C.s:607    .text:0000000000000154 .L0 
     /tmp/cc7ZC48C.s:608    .text:0000000000000154 .L0 
     /tmp/cc7ZC48C.s:609    .text:0000000000000154 .L0 
     /tmp/cc7ZC48C.s:610    .text:0000000000000154 .L0 
     /tmp/cc7ZC48C.s:612    .text:0000000000000158 .L0 
     /tmp/cc7ZC48C.s:616    .text:0000000000000158 .L0 
     /tmp/cc7ZC48C.s:617    .text:0000000000000158 .L0 
     /tmp/cc7ZC48C.s:625    .text:0000000000000160 .L0 
     /tmp/cc7ZC48C.s:626    .text:0000000000000160 .L0 
     /tmp/cc7ZC48C.s:630    .text:0000000000000168 .L0 
     /tmp/cc7ZC48C.s:634    .text:000000000000016c .L0 
     /tmp/cc7ZC48C.s:640    .text:0000000000000178 .L0 
     /tmp/cc7ZC48C.s:644    .text:000000000000017c .L0 
     /tmp/cc7ZC48C.s:648    .text:0000000000000188 .L0 
     /tmp/cc7ZC48C.s:658    .text:0000000000000190 .L0 
     /tmp/cc7ZC48C.s:662    .text:0000000000000194 .L0 
     /tmp/cc7ZC48C.s:666    .text:000000000000019c .L0 
     /tmp/cc7ZC48C.s:667    .text:000000000000019c .L0 
GAS LISTING /tmp/cc7ZC48C.s 			page 42


     /tmp/cc7ZC48C.s:671    .text:00000000000001ac .L0 
     /tmp/cc7ZC48C.s:672    .text:00000000000001ac .L0 
     /tmp/cc7ZC48C.s:678    .text:00000000000001c0 .L0 
     /tmp/cc7ZC48C.s:679    .text:00000000000001c0 .L0 
     /tmp/cc7ZC48C.s:684    .text:00000000000001d0 .L0 
     /tmp/cc7ZC48C.s:685    .text:00000000000001d0 .L0 
     /tmp/cc7ZC48C.s:693    .text:00000000000001d8 .L0 
     /tmp/cc7ZC48C.s:694    .text:00000000000001d8 .L0 
     /tmp/cc7ZC48C.s:698    .text:00000000000001e8 .L0 
     /tmp/cc7ZC48C.s:699    .text:00000000000001e8 .L0 
     /tmp/cc7ZC48C.s:702    .text:00000000000001f4 .L0 
     /tmp/cc7ZC48C.s:703    .text:00000000000001f4 .L0 
     /tmp/cc7ZC48C.s:706    .text:00000000000001fc .L0 
     /tmp/cc7ZC48C.s:707    .text:0000000000000200 .L0 
     /tmp/cc7ZC48C.s:709    .text:0000000000000204 .L0 
     /tmp/cc7ZC48C.s:710    .text:0000000000000204 .L0 
     /tmp/cc7ZC48C.s:712    .text:0000000000000208 .L0 
     /tmp/cc7ZC48C.s:714    .text:000000000000020c .L0 
     /tmp/cc7ZC48C.s:717    .text:0000000000000210 .L0 
     /tmp/cc7ZC48C.s:719    .text:0000000000000214 .L0 
     /tmp/cc7ZC48C.s:726    .text._ZN7WorkerB3runEv:0000000000000000 _ZN7WorkerB3runEv
     /tmp/cc7ZC48C.s:729    .text._ZN7WorkerB3runEv:0000000000000000 .L0 
     /tmp/cc7ZC48C.s:731    .text._ZN7WorkerB3runEv:0000000000000000 .L0 
     /tmp/cc7ZC48C.s:732    .text._ZN7WorkerB3runEv:0000000000000004 .L0 
     /tmp/cc7ZC48C.s:735    .text._ZN7WorkerB3runEv:000000000000000c .L0 
     /tmp/cc7ZC48C.s:736    .text._ZN7WorkerB3runEv:000000000000000c .L0 
     /tmp/cc7ZC48C.s:738    .text._ZN7WorkerB3runEv:0000000000000010 .L0 
     /tmp/cc7ZC48C.s:740    .text._ZN7WorkerB3runEv:0000000000000010 .L0 
     /tmp/cc7ZC48C.s:741    .text._ZN7WorkerB3runEv:0000000000000010 .L0 
     /tmp/cc7ZC48C.s:745    .text._ZN7WorkerB3runEv:000000000000001c .L0 
     /tmp/cc7ZC48C.s:746    .text._ZN7WorkerB3runEv:0000000000000020 .L0 
     /tmp/cc7ZC48C.s:748    .text._ZN7WorkerB3runEv:0000000000000024 .L0 
     /tmp/cc7ZC48C.s:749    .text._ZN7WorkerB3runEv:0000000000000024 .L0 
     /tmp/cc7ZC48C.s:751    .text._ZN7WorkerB3runEv:0000000000000028 .L0 
     /tmp/cc7ZC48C.s:753    .text._ZN7WorkerB3runEv:000000000000002c .L0 
     /tmp/cc7ZC48C.s:773    .text:0000000000000214 _ZN7WorkerC11workerBodyCEPv
     /tmp/cc7ZC48C.s:776    .text:0000000000000214 .L0 
     /tmp/cc7ZC48C.s:778    .text:0000000000000214 .L0 
     /tmp/cc7ZC48C.s:779    .text:0000000000000218 .L0 
     /tmp/cc7ZC48C.s:784    .text:0000000000000228 .L0 
     /tmp/cc7ZC48C.s:785    .text:0000000000000228 .L0 
     /tmp/cc7ZC48C.s:786    .text:0000000000000228 .L0 
     /tmp/cc7ZC48C.s:787    .text:0000000000000228 .L0 
     /tmp/cc7ZC48C.s:789    .text:000000000000022c .L0 
     /tmp/cc7ZC48C.s:792    .text:000000000000022c .L0 
     /tmp/cc7ZC48C.s:793    .text:000000000000022c .L0 
     /tmp/cc7ZC48C.s:798    .text:0000000000000234 .L0 
     /tmp/cc7ZC48C.s:799    .text:0000000000000234 .L0 
     /tmp/cc7ZC48C.s:803    .text:0000000000000244 .L0 
     /tmp/cc7ZC48C.s:804    .text:0000000000000244 .L0 
     /tmp/cc7ZC48C.s:810    .text:0000000000000258 .L0 
     /tmp/cc7ZC48C.s:811    .text:0000000000000258 .L0 
     /tmp/cc7ZC48C.s:815    .text:0000000000000268 .L0 
     /tmp/cc7ZC48C.s:821    .text:0000000000000270 .L0 
     /tmp/cc7ZC48C.s:822    .text:0000000000000270 .L0 
     /tmp/cc7ZC48C.s:825    .text:0000000000000278 .L0 
     /tmp/cc7ZC48C.s:826    .text:0000000000000278 .L0 
GAS LISTING /tmp/cc7ZC48C.s 			page 43


     /tmp/cc7ZC48C.s:830    .text:0000000000000288 .L0 
src/../test/Threads_CPP_API_test.hpp:91     .text:0000000000000288 .L0 
     /tmp/cc7ZC48C.s:836    .text:000000000000028c .L0 
     /tmp/cc7ZC48C.s:838    .text:000000000000028c .L0 
     /tmp/cc7ZC48C.s:841    .text:0000000000000294 .L0 
     /tmp/cc7ZC48C.s:842    .text:0000000000000294 .L0 
src/../test/Threads_CPP_API_test.hpp:95     .text:0000000000000294 .L0 
     /tmp/cc7ZC48C.s:849    .text:0000000000000298 .L0 
     /tmp/cc7ZC48C.s:851    .text:0000000000000298 .L0 
     /tmp/cc7ZC48C.s:855    .text:00000000000002a8 .L0 
     /tmp/cc7ZC48C.s:856    .text:00000000000002a8 .L0 
     /tmp/cc7ZC48C.s:862    .text:00000000000002bc .L0 
     /tmp/cc7ZC48C.s:863    .text:00000000000002bc .L0 
     /tmp/cc7ZC48C.s:867    .text:00000000000002cc .L0 
     /tmp/cc7ZC48C.s:868    .text:00000000000002cc .L0 
     /tmp/cc7ZC48C.s:874    .text:00000000000002dc .L0 
     /tmp/cc7ZC48C.s:875    .text:00000000000002dc .L0 
     /tmp/cc7ZC48C.s:880    .text:00000000000002ec .L0 
     /tmp/cc7ZC48C.s:881    .text:00000000000002ec .L0 
     /tmp/cc7ZC48C.s:887    .text:0000000000000300 .L0 
     /tmp/cc7ZC48C.s:888    .text:0000000000000300 .L0 
     /tmp/cc7ZC48C.s:894    .text:0000000000000314 .L0 
     /tmp/cc7ZC48C.s:895    .text:0000000000000314 .L0 
     /tmp/cc7ZC48C.s:899    .text:0000000000000324 .L0 
     /tmp/cc7ZC48C.s:900    .text:0000000000000324 .L0 
     /tmp/cc7ZC48C.s:906    .text:0000000000000338 .L0 
     /tmp/cc7ZC48C.s:907    .text:0000000000000338 .L0 
     /tmp/cc7ZC48C.s:911    .text:0000000000000348 .L0 
     /tmp/cc7ZC48C.s:917    .text:0000000000000350 .L0 
     /tmp/cc7ZC48C.s:918    .text:0000000000000350 .L0 
     /tmp/cc7ZC48C.s:921    .text:0000000000000358 .L0 
     /tmp/cc7ZC48C.s:922    .text:0000000000000358 .L0 
     /tmp/cc7ZC48C.s:926    .text:0000000000000368 .L0 
     /tmp/cc7ZC48C.s:927    .text:0000000000000368 .L0 
     /tmp/cc7ZC48C.s:930    .text:0000000000000374 .L0 
     /tmp/cc7ZC48C.s:931    .text:0000000000000374 .L0 
     /tmp/cc7ZC48C.s:934    .text:000000000000037c .L0 
     /tmp/cc7ZC48C.s:935    .text:0000000000000380 .L0 
     /tmp/cc7ZC48C.s:937    .text:0000000000000384 .L0 
     /tmp/cc7ZC48C.s:938    .text:0000000000000384 .L0 
     /tmp/cc7ZC48C.s:940    .text:0000000000000388 .L0 
     /tmp/cc7ZC48C.s:943    .text:000000000000038c .L0 
     /tmp/cc7ZC48C.s:946    .text:0000000000000390 .L0 
     /tmp/cc7ZC48C.s:948    .text:0000000000000394 .L0 
     /tmp/cc7ZC48C.s:955    .text._ZN7WorkerC3runEv:0000000000000000 _ZN7WorkerC3runEv
     /tmp/cc7ZC48C.s:958    .text._ZN7WorkerC3runEv:0000000000000000 .L0 
     /tmp/cc7ZC48C.s:960    .text._ZN7WorkerC3runEv:0000000000000000 .L0 
     /tmp/cc7ZC48C.s:961    .text._ZN7WorkerC3runEv:0000000000000004 .L0 
     /tmp/cc7ZC48C.s:964    .text._ZN7WorkerC3runEv:000000000000000c .L0 
     /tmp/cc7ZC48C.s:965    .text._ZN7WorkerC3runEv:000000000000000c .L0 
     /tmp/cc7ZC48C.s:967    .text._ZN7WorkerC3runEv:0000000000000010 .L0 
     /tmp/cc7ZC48C.s:969    .text._ZN7WorkerC3runEv:0000000000000010 .L0 
     /tmp/cc7ZC48C.s:970    .text._ZN7WorkerC3runEv:0000000000000010 .L0 
     /tmp/cc7ZC48C.s:974    .text._ZN7WorkerC3runEv:000000000000001c .L0 
     /tmp/cc7ZC48C.s:975    .text._ZN7WorkerC3runEv:0000000000000020 .L0 
     /tmp/cc7ZC48C.s:977    .text._ZN7WorkerC3runEv:0000000000000024 .L0 
     /tmp/cc7ZC48C.s:978    .text._ZN7WorkerC3runEv:0000000000000024 .L0 
GAS LISTING /tmp/cc7ZC48C.s 			page 44


     /tmp/cc7ZC48C.s:980    .text._ZN7WorkerC3runEv:0000000000000028 .L0 
     /tmp/cc7ZC48C.s:982    .text._ZN7WorkerC3runEv:000000000000002c .L0 
     /tmp/cc7ZC48C.s:1002   .text:0000000000000394 _ZN7WorkerD11workerBodyDEPv
     /tmp/cc7ZC48C.s:1005   .text:0000000000000394 .L0 
     /tmp/cc7ZC48C.s:1007   .text:0000000000000394 .L0 
     /tmp/cc7ZC48C.s:1008   .text:0000000000000398 .L0 
     /tmp/cc7ZC48C.s:1013   .text:00000000000003a8 .L0 
     /tmp/cc7ZC48C.s:1014   .text:00000000000003a8 .L0 
     /tmp/cc7ZC48C.s:1015   .text:00000000000003a8 .L0 
     /tmp/cc7ZC48C.s:1016   .text:00000000000003a8 .L0 
     /tmp/cc7ZC48C.s:1018   .text:00000000000003ac .L0 
     /tmp/cc7ZC48C.s:1021   .text:00000000000003ac .L0 
     /tmp/cc7ZC48C.s:1022   .text:00000000000003ac .L0 
     /tmp/cc7ZC48C.s:1027   .text:00000000000003b4 .L0 
     /tmp/cc7ZC48C.s:1028   .text:00000000000003b4 .L0 
     /tmp/cc7ZC48C.s:1032   .text:00000000000003c4 .L0 
     /tmp/cc7ZC48C.s:1033   .text:00000000000003c4 .L0 
     /tmp/cc7ZC48C.s:1039   .text:00000000000003d8 .L0 
     /tmp/cc7ZC48C.s:1040   .text:00000000000003d8 .L0 
     /tmp/cc7ZC48C.s:1044   .text:00000000000003e8 .L0 
     /tmp/cc7ZC48C.s:1050   .text:00000000000003f0 .L0 
     /tmp/cc7ZC48C.s:1051   .text:00000000000003f0 .L0 
     /tmp/cc7ZC48C.s:1054   .text:00000000000003f8 .L0 
     /tmp/cc7ZC48C.s:1055   .text:00000000000003f8 .L0 
     /tmp/cc7ZC48C.s:1059   .text:0000000000000408 .L0 
src/../test/Threads_CPP_API_test.hpp:118    .text:0000000000000408 .L0 
     /tmp/cc7ZC48C.s:1065   .text:000000000000040c .L0 
     /tmp/cc7ZC48C.s:1067   .text:000000000000040c .L0 
     /tmp/cc7ZC48C.s:1070   .text:0000000000000414 .L0 
     /tmp/cc7ZC48C.s:1071   .text:0000000000000414 .L0 
     /tmp/cc7ZC48C.s:1077   .text:0000000000000424 .L0 
     /tmp/cc7ZC48C.s:1078   .text:0000000000000424 .L0 
     /tmp/cc7ZC48C.s:1083   .text:0000000000000434 .L0 
     /tmp/cc7ZC48C.s:1084   .text:0000000000000434 .L0 
     /tmp/cc7ZC48C.s:1090   .text:0000000000000448 .L0 
     /tmp/cc7ZC48C.s:1091   .text:0000000000000448 .L0 
     /tmp/cc7ZC48C.s:1097   .text:000000000000045c .L0 
     /tmp/cc7ZC48C.s:1098   .text:000000000000045c .L0 
     /tmp/cc7ZC48C.s:1102   .text:000000000000046c .L0 
     /tmp/cc7ZC48C.s:1103   .text:000000000000046c .L0 
     /tmp/cc7ZC48C.s:1109   .text:0000000000000480 .L0 
     /tmp/cc7ZC48C.s:1110   .text:0000000000000480 .L0 
     /tmp/cc7ZC48C.s:1114   .text:0000000000000490 .L0 
     /tmp/cc7ZC48C.s:1120   .text:0000000000000498 .L0 
     /tmp/cc7ZC48C.s:1121   .text:0000000000000498 .L0 
     /tmp/cc7ZC48C.s:1124   .text:00000000000004a0 .L0 
     /tmp/cc7ZC48C.s:1125   .text:00000000000004a0 .L0 
     /tmp/cc7ZC48C.s:1129   .text:00000000000004b0 .L0 
     /tmp/cc7ZC48C.s:1130   .text:00000000000004b0 .L0 
     /tmp/cc7ZC48C.s:1133   .text:00000000000004bc .L0 
     /tmp/cc7ZC48C.s:1134   .text:00000000000004bc .L0 
     /tmp/cc7ZC48C.s:1137   .text:00000000000004c4 .L0 
     /tmp/cc7ZC48C.s:1138   .text:00000000000004c8 .L0 
     /tmp/cc7ZC48C.s:1140   .text:00000000000004cc .L0 
     /tmp/cc7ZC48C.s:1141   .text:00000000000004cc .L0 
     /tmp/cc7ZC48C.s:1143   .text:00000000000004d0 .L0 
     /tmp/cc7ZC48C.s:1146   .text:00000000000004d4 .L0 
GAS LISTING /tmp/cc7ZC48C.s 			page 45


     /tmp/cc7ZC48C.s:1149   .text:00000000000004d8 .L0 
     /tmp/cc7ZC48C.s:1151   .text:00000000000004dc .L0 
     /tmp/cc7ZC48C.s:1158   .text._ZN7WorkerD3runEv:0000000000000000 _ZN7WorkerD3runEv
     /tmp/cc7ZC48C.s:1161   .text._ZN7WorkerD3runEv:0000000000000000 .L0 
     /tmp/cc7ZC48C.s:1163   .text._ZN7WorkerD3runEv:0000000000000000 .L0 
     /tmp/cc7ZC48C.s:1164   .text._ZN7WorkerD3runEv:0000000000000004 .L0 
     /tmp/cc7ZC48C.s:1167   .text._ZN7WorkerD3runEv:000000000000000c .L0 
     /tmp/cc7ZC48C.s:1168   .text._ZN7WorkerD3runEv:000000000000000c .L0 
     /tmp/cc7ZC48C.s:1170   .text._ZN7WorkerD3runEv:0000000000000010 .L0 
     /tmp/cc7ZC48C.s:1172   .text._ZN7WorkerD3runEv:0000000000000010 .L0 
     /tmp/cc7ZC48C.s:1173   .text._ZN7WorkerD3runEv:0000000000000010 .L0 
     /tmp/cc7ZC48C.s:1177   .text._ZN7WorkerD3runEv:000000000000001c .L0 
     /tmp/cc7ZC48C.s:1178   .text._ZN7WorkerD3runEv:0000000000000020 .L0 
     /tmp/cc7ZC48C.s:1180   .text._ZN7WorkerD3runEv:0000000000000024 .L0 
     /tmp/cc7ZC48C.s:1181   .text._ZN7WorkerD3runEv:0000000000000024 .L0 
     /tmp/cc7ZC48C.s:1183   .text._ZN7WorkerD3runEv:0000000000000028 .L0 
     /tmp/cc7ZC48C.s:1185   .text._ZN7WorkerD3runEv:000000000000002c .L0 
     /tmp/cc7ZC48C.s:1211   .text:00000000000004dc _Z20Threads_CPP_API_testv
     /tmp/cc7ZC48C.s:1214   .text:00000000000004dc .L0 
     /tmp/cc7ZC48C.s:5573   .data.rel.local.DW.ref.__gxx_personality_v0:0000000000000000 DW.ref.__gxx_personality_v0
     /tmp/cc7ZC48C.s:1217   .text:00000000000004dc .L0 
     /tmp/cc7ZC48C.s:1218   .text:00000000000004e0 .L0 
     /tmp/cc7ZC48C.s:1223   .text:00000000000004f0 .L0 
     /tmp/cc7ZC48C.s:1224   .text:00000000000004f0 .L0 
     /tmp/cc7ZC48C.s:1225   .text:00000000000004f0 .L0 
     /tmp/cc7ZC48C.s:1226   .text:00000000000004f0 .L0 
     /tmp/cc7ZC48C.s:1228   .text:00000000000004f4 .L0 
     /tmp/cc7ZC48C.s:1230   .text:00000000000004f4 .L0 
     /tmp/cc7ZC48C.s:1231   .text:00000000000004f4 .L0 
     /tmp/cc7ZC48C.s:1232   .text:00000000000004f4 .L0 
     /tmp/cc7ZC48C.s:1243   .text:0000000000000504 .L0 
     /tmp/cc7ZC48C.s:1252   .text:0000000000000518 .L0 
     /tmp/cc7ZC48C.s:1254   .text:000000000000051c .L0 
     /tmp/cc7ZC48C.s:1255   .text:000000000000051c .L0 
     /tmp/cc7ZC48C.s:1260   .text:000000000000052c .L0 
     /tmp/cc7ZC48C.s:1261   .text:000000000000052c .L0 
     /tmp/cc7ZC48C.s:1271   .text:000000000000053c .L0 
     /tmp/cc7ZC48C.s:1280   .text:0000000000000550 .L0 
     /tmp/cc7ZC48C.s:1282   .text:0000000000000554 .L0 
     /tmp/cc7ZC48C.s:1283   .text:0000000000000554 .L0 
     /tmp/cc7ZC48C.s:1288   .text:0000000000000564 .L0 
     /tmp/cc7ZC48C.s:1289   .text:0000000000000564 .L0 
     /tmp/cc7ZC48C.s:1299   .text:0000000000000574 .L0 
     /tmp/cc7ZC48C.s:1308   .text:0000000000000588 .L0 
     /tmp/cc7ZC48C.s:1310   .text:000000000000058c .L0 
     /tmp/cc7ZC48C.s:1311   .text:000000000000058c .L0 
     /tmp/cc7ZC48C.s:1316   .text:000000000000059c .L0 
     /tmp/cc7ZC48C.s:1317   .text:000000000000059c .L0 
     /tmp/cc7ZC48C.s:1327   .text:00000000000005ac .L0 
     /tmp/cc7ZC48C.s:1336   .text:00000000000005c0 .L0 
     /tmp/cc7ZC48C.s:1338   .text:00000000000005c4 .L0 
     /tmp/cc7ZC48C.s:1339   .text:00000000000005c4 .L0 
     /tmp/cc7ZC48C.s:1345   .text:00000000000005d4 .L0 
     /tmp/cc7ZC48C.s:1349   .text:00000000000005d8 .L0 
     /tmp/cc7ZC48C.s:1352   .text:00000000000005e0 .L0 
     /tmp/cc7ZC48C.s:1353   .text:00000000000005e0 .L0 
     /tmp/cc7ZC48C.s:1357   .text:00000000000005ec .L0 
GAS LISTING /tmp/cc7ZC48C.s 			page 46


     /tmp/cc7ZC48C.s:1361   .text:00000000000005f8 .L0 
     /tmp/cc7ZC48C.s:1368   .text:0000000000000600 .L0 
     /tmp/cc7ZC48C.s:1369   .text:0000000000000600 .L0 
     /tmp/cc7ZC48C.s:1373   .text:0000000000000608 .L0 
     /tmp/cc7ZC48C.s:1374   .text:0000000000000608 .L0 
     /tmp/cc7ZC48C.s:1377   .text:0000000000000614 .L0 
     /tmp/cc7ZC48C.s:1380   .text:0000000000000620 .L0 
     /tmp/cc7ZC48C.s:1383   .text:000000000000062c .L0 
     /tmp/cc7ZC48C.s:1386   .text:0000000000000638 .L0 
     /tmp/cc7ZC48C.s:1387   .text:0000000000000638 .L0 
     /tmp/cc7ZC48C.s:1392   .text:0000000000000648 .L0 
     /tmp/cc7ZC48C.s:1398   .text:0000000000000650 .L0 
     /tmp/cc7ZC48C.s:1402   .text:0000000000000654 .L0 
     /tmp/cc7ZC48C.s:1405   .text:000000000000065c .L0 
     /tmp/cc7ZC48C.s:1408   .text:0000000000000660 .L0 
     /tmp/cc7ZC48C.s:1409   .text:0000000000000660 .L0 
     /tmp/cc7ZC48C.s:1411   .text:0000000000000664 .L0 
     /tmp/cc7ZC48C.s:1419   .text:0000000000000674 .L0 
     /tmp/cc7ZC48C.s:1420   .text:0000000000000674 .L0 
     /tmp/cc7ZC48C.s:1425   .text:0000000000000684 .L0 
     /tmp/cc7ZC48C.s:1426   .text:0000000000000688 .L0 
     /tmp/cc7ZC48C.s:1427   .text:0000000000000688 .L0 
     /tmp/cc7ZC48C.s:1429   .text:000000000000068c .L0 
     /tmp/cc7ZC48C.s:1430   .text:000000000000068c .L0 
     /tmp/cc7ZC48C.s:1432   .text:0000000000000690 .L0 
     /tmp/cc7ZC48C.s:1435   .text:0000000000000694 .L0 
     /tmp/cc7ZC48C.s:1437   .text:0000000000000698 .L0 
     /tmp/cc7ZC48C.s:1441   .text:000000000000069c .L0 
     /tmp/cc7ZC48C.s:1444   .text:00000000000006a0 .L0 
     /tmp/cc7ZC48C.s:1455   .text:00000000000006bc .L0 
     /tmp/cc7ZC48C.s:1466   .text:00000000000006d8 .L0 
     /tmp/cc7ZC48C.s:1477   .text:00000000000006f4 .L0 
     /tmp/cc7ZC48C.s:1485   .text:000000000000070c .L0 
     /tmp/cc7ZC48C.s:1551   .text:000000000000070c _Z8userMainv
     /tmp/cc7ZC48C.s:1555   .text:000000000000070c .L0 
     /tmp/cc7ZC48C.s:1556   .text:000000000000070c .L0 
     /tmp/cc7ZC48C.s:1557   .text:0000000000000710 .L0 
     /tmp/cc7ZC48C.s:1560   .text:0000000000000718 .L0 
     /tmp/cc7ZC48C.s:1561   .text:0000000000000718 .L0 
     /tmp/cc7ZC48C.s:1563   .text:000000000000071c .L0 
     /tmp/cc7ZC48C.s:1565   .text:000000000000071c .L0 
     /tmp/cc7ZC48C.s:1566   .text:000000000000071c .L0 
     /tmp/cc7ZC48C.s:1569   .text:0000000000000724 .L0 
     /tmp/cc7ZC48C.s:1570   .text:0000000000000728 .L0 
     /tmp/cc7ZC48C.s:1572   .text:000000000000072c .L0 
     /tmp/cc7ZC48C.s:1573   .text:000000000000072c .L0 
     /tmp/cc7ZC48C.s:1575   .text:0000000000000730 .L0 
     /tmp/cc7ZC48C.s:1577   .text:0000000000000734 .L0 
     /tmp/cc7ZC48C.s:1644   .bss:0000000000000003 finishedD
     /tmp/cc7ZC48C.s:1640   .bss:0000000000000002 finishedC
     /tmp/cc7ZC48C.s:1636   .bss:0000000000000001 finishedB
     /tmp/cc7ZC48C.s:1632   .bss:0000000000000000 finishedA
     /tmp/cc7ZC48C.s:1629   .bss:0000000000000000 .LANCHOR0
     /tmp/cc7ZC48C.s:44     .text._ZN7WorkerAD2Ev:0000000000000034 .L0 
     /tmp/cc7ZC48C.s:91     .text._ZN7WorkerAD0Ev:000000000000004c .L0 
     /tmp/cc7ZC48C.s:128    .text._ZN7WorkerBD2Ev:0000000000000034 .L0 
     /tmp/cc7ZC48C.s:175    .text._ZN7WorkerBD0Ev:000000000000004c .L0 
GAS LISTING /tmp/cc7ZC48C.s 			page 47


     /tmp/cc7ZC48C.s:212    .text._ZN7WorkerCD2Ev:0000000000000034 .L0 
     /tmp/cc7ZC48C.s:259    .text._ZN7WorkerCD0Ev:000000000000004c .L0 
     /tmp/cc7ZC48C.s:296    .text._ZN7WorkerDD2Ev:0000000000000034 .L0 
     /tmp/cc7ZC48C.s:343    .text._ZN7WorkerDD0Ev:000000000000004c .L0 
     /tmp/cc7ZC48C.s:1652   .text:0000000000000734 .L0 
     /tmp/cc7ZC48C.s:585    .text._ZN7WorkerA3runEv:000000000000002c .L0 
     /tmp/cc7ZC48C.s:756    .text._ZN7WorkerB3runEv:000000000000002c .L0 
     /tmp/cc7ZC48C.s:985    .text._ZN7WorkerC3runEv:000000000000002c .L0 
     /tmp/cc7ZC48C.s:1188   .text._ZN7WorkerD3runEv:000000000000002c .L0 
     /tmp/cc7ZC48C.s:417    .rodata.str1.8:0000000000000000 .LC0
     /tmp/cc7ZC48C.s:500    .text:00000000000000d0 .L0 
     /tmp/cc7ZC48C.s:420    .rodata.str1.8:0000000000000008 .LC1
     /tmp/cc7ZC48C.s:512    .text:00000000000000f4 .L0 
     /tmp/cc7ZC48C.s:423    .rodata.str1.8:0000000000000010 .LC2
     /tmp/cc7ZC48C.s:527    .text:000000000000010c .L0 
     /tmp/cc7ZC48C.s:533    .text:0000000000000120 .L0 
     /tmp/cc7ZC48C.s:587    .rodata.str1.8:0000000000000020 .LC3
     /tmp/cc7ZC48C.s:667    .text:000000000000019c .L0 
     /tmp/cc7ZC48C.s:679    .text:00000000000001c0 .L0 
     /tmp/cc7ZC48C.s:590    .rodata.str1.8:0000000000000028 .LC4
     /tmp/cc7ZC48C.s:694    .text:00000000000001d8 .L0 
     /tmp/cc7ZC48C.s:700    .text:00000000000001ec .L0 
     /tmp/cc7ZC48C.s:758    .rodata.str1.8:0000000000000038 .LC5
     /tmp/cc7ZC48C.s:799    .text:0000000000000234 .L0 
     /tmp/cc7ZC48C.s:811    .text:0000000000000258 .L0 
     /tmp/cc7ZC48C.s:761    .rodata.str1.8:0000000000000040 .LC6
     /tmp/cc7ZC48C.s:826    .text:0000000000000278 .L0 
     /tmp/cc7ZC48C.s:764    .rodata.str1.8:0000000000000050 .LC7
     /tmp/cc7ZC48C.s:851    .text:0000000000000298 .L0 
     /tmp/cc7ZC48C.s:863    .text:00000000000002bc .L0 
     /tmp/cc7ZC48C.s:767    .rodata.str1.8:0000000000000058 .LC8
     /tmp/cc7ZC48C.s:875    .text:00000000000002dc .L0 
     /tmp/cc7ZC48C.s:888    .text:0000000000000300 .L0 
     /tmp/cc7ZC48C.s:895    .text:0000000000000314 .L0 
     /tmp/cc7ZC48C.s:907    .text:0000000000000338 .L0 
     /tmp/cc7ZC48C.s:922    .text:0000000000000358 .L0 
     /tmp/cc7ZC48C.s:928    .text:000000000000036c .L0 
     /tmp/cc7ZC48C.s:987    .rodata.str1.8:0000000000000068 .LC9
     /tmp/cc7ZC48C.s:1028   .text:00000000000003b4 .L0 
     /tmp/cc7ZC48C.s:1040   .text:00000000000003d8 .L0 
     /tmp/cc7ZC48C.s:990    .rodata.str1.8:0000000000000070 .LC10
     /tmp/cc7ZC48C.s:1055   .text:00000000000003f8 .L0 
     /tmp/cc7ZC48C.s:993    .rodata.str1.8:0000000000000080 .LC11
     /tmp/cc7ZC48C.s:1078   .text:0000000000000424 .L0 
     /tmp/cc7ZC48C.s:1091   .text:0000000000000448 .L0 
     /tmp/cc7ZC48C.s:1098   .text:000000000000045c .L0 
     /tmp/cc7ZC48C.s:1110   .text:0000000000000480 .L0 
     /tmp/cc7ZC48C.s:996    .rodata.str1.8:0000000000000090 .LC12
     /tmp/cc7ZC48C.s:1125   .text:00000000000004a0 .L0 
     /tmp/cc7ZC48C.s:1131   .text:00000000000004b4 .L0 
     /tmp/cc7ZC48C.s:1246   .text:000000000000050c .L0 
     /tmp/cc7ZC48C.s:1190   .rodata.str1.8:00000000000000a0 .LC13
     /tmp/cc7ZC48C.s:1255   .text:000000000000051c .L0 
     /tmp/cc7ZC48C.s:1274   .text:0000000000000544 .L0 
     /tmp/cc7ZC48C.s:1193   .rodata.str1.8:00000000000000b8 .LC14
     /tmp/cc7ZC48C.s:1283   .text:0000000000000554 .L0 
     /tmp/cc7ZC48C.s:1302   .text:000000000000057c .L0 
GAS LISTING /tmp/cc7ZC48C.s 			page 48


     /tmp/cc7ZC48C.s:1196   .rodata.str1.8:00000000000000d0 .LC15
     /tmp/cc7ZC48C.s:1311   .text:000000000000058c .L0 
     /tmp/cc7ZC48C.s:1330   .text:00000000000005b4 .L0 
     /tmp/cc7ZC48C.s:1199   .rodata.str1.8:00000000000000e8 .LC16
     /tmp/cc7ZC48C.s:1339   .text:00000000000005c4 .L0 
     /tmp/cc7ZC48C.s:1374   .text:0000000000000608 .L0 
     /tmp/cc7ZC48C.s:1377   .text:0000000000000614 .L0 
     /tmp/cc7ZC48C.s:1380   .text:0000000000000620 .L0 
     /tmp/cc7ZC48C.s:1383   .text:000000000000062c .L0 
     /tmp/cc7ZC48C.s:1202   .rodata.str1.8:0000000000000100 .LC17
     /tmp/cc7ZC48C.s:1387   .text:0000000000000638 .L0 
     /tmp/cc7ZC48C.s:1205   .rodata.str1.8:0000000000000110 .LC18
     /tmp/cc7ZC48C.s:1420   .text:0000000000000674 .L0 
     /tmp/cc7ZC48C.s:388    .text:0000000000000050 .L17
     /tmp/cc7ZC48C.s:405    .text:0000000000000068 .L22
     /tmp/cc7ZC48C.s:375    .text:0000000000000030 .L19
     /tmp/cc7ZC48C.s:493    .text:00000000000000c8 .L29
     /tmp/cc7ZC48C.s:485    .text:00000000000000c4 .L25
     /tmp/cc7ZC48C.s:453    .text:0000000000000094 .L26
     /tmp/cc7ZC48C.s:474    .text:00000000000000b0 .L27
     /tmp/cc7ZC48C.s:521    .text:000000000000010c .L24
     /tmp/cc7ZC48C.s:465    .text:00000000000000a0 .L28
     /tmp/cc7ZC48C.s:660    .text:0000000000000194 .L39
     /tmp/cc7ZC48C.s:652    .text:0000000000000190 .L35
     /tmp/cc7ZC48C.s:620    .text:0000000000000160 .L36
     /tmp/cc7ZC48C.s:641    .text:000000000000017c .L37
     /tmp/cc7ZC48C.s:688    .text:00000000000001d8 .L34
     /tmp/cc7ZC48C.s:632    .text:000000000000016c .L38
     /tmp/cc7ZC48C.s:819    .text:0000000000000270 .L45
     /tmp/cc7ZC48C.s:796    .text:0000000000000234 .L49
     /tmp/cc7ZC48C.s:915    .text:0000000000000350 .L47
     /tmp/cc7ZC48C.s:892    .text:0000000000000314 .L50
     /tmp/cc7ZC48C.s:1048   .text:00000000000003f0 .L55
     /tmp/cc7ZC48C.s:1025   .text:00000000000003b4 .L59
     /tmp/cc7ZC48C.s:1118   .text:0000000000000498 .L57
     /tmp/cc7ZC48C.s:1095   .text:000000000000045c .L60
     /tmp/cc7ZC48C.s:1371   .text:0000000000000608 .L64
     /tmp/cc7ZC48C.s:1346   .text:00000000000005d8 .L65
     /tmp/cc7ZC48C.s:1365   .text:0000000000000600 .L66
     /tmp/cc7ZC48C.s:1400   .text:0000000000000654 .L70
     /tmp/cc7ZC48C.s:1416   .text:0000000000000674 .L68
     /tmp/cc7ZC48C.s:1396   .text:0000000000000650 .L69
     /tmp/cc7ZC48C.s:26     .text._ZN7WorkerAD2Ev:0000000000000010 .L0 
     /tmp/cc7ZC48C.s:68     .text._ZN7WorkerAD0Ev:0000000000000018 .L0 
     /tmp/cc7ZC48C.s:110    .text._ZN7WorkerBD2Ev:0000000000000010 .L0 
     /tmp/cc7ZC48C.s:152    .text._ZN7WorkerBD0Ev:0000000000000018 .L0 
     /tmp/cc7ZC48C.s:194    .text._ZN7WorkerCD2Ev:0000000000000010 .L0 
     /tmp/cc7ZC48C.s:236    .text._ZN7WorkerCD0Ev:0000000000000018 .L0 
     /tmp/cc7ZC48C.s:278    .text._ZN7WorkerDD2Ev:0000000000000010 .L0 
     /tmp/cc7ZC48C.s:320    .text._ZN7WorkerDD0Ev:0000000000000018 .L0 
     /tmp/cc7ZC48C.s:1233   .text:00000000000004f8 .LEHB0
     /tmp/cc7ZC48C.s:1212   .text:00000000000004dc .LFB22
     /tmp/cc7ZC48C.s:1236   .text:0000000000000500 .LEHE0
     /tmp/cc7ZC48C.s:1239   .text:0000000000000504 .LEHB1
     /tmp/cc7ZC48C.s:1245   .text:000000000000050c .LEHE1
     /tmp/cc7ZC48C.s:1440   .text:000000000000069c .L75
     /tmp/cc7ZC48C.s:1256   .text:0000000000000524 .LEHB2
GAS LISTING /tmp/cc7ZC48C.s 			page 49


     /tmp/cc7ZC48C.s:1264   .text:0000000000000538 .LEHE2
     /tmp/cc7ZC48C.s:1267   .text:000000000000053c .LEHB3
     /tmp/cc7ZC48C.s:1273   .text:0000000000000544 .LEHE3
     /tmp/cc7ZC48C.s:1452   .text:00000000000006b8 .L76
     /tmp/cc7ZC48C.s:1284   .text:000000000000055c .LEHB4
     /tmp/cc7ZC48C.s:1292   .text:0000000000000570 .LEHE4
     /tmp/cc7ZC48C.s:1295   .text:0000000000000574 .LEHB5
     /tmp/cc7ZC48C.s:1301   .text:000000000000057c .LEHE5
     /tmp/cc7ZC48C.s:1463   .text:00000000000006d4 .L77
     /tmp/cc7ZC48C.s:1312   .text:0000000000000594 .LEHB6
     /tmp/cc7ZC48C.s:1320   .text:00000000000005a8 .LEHE6
     /tmp/cc7ZC48C.s:1323   .text:00000000000005ac .LEHB7
     /tmp/cc7ZC48C.s:1329   .text:00000000000005b4 .LEHE7
     /tmp/cc7ZC48C.s:1474   .text:00000000000006f0 .L78
     /tmp/cc7ZC48C.s:1340   .text:00000000000005cc .LEHB8
     /tmp/cc7ZC48C.s:1423   .text:0000000000000684 .LEHE8
     /tmp/cc7ZC48C.s:1448   .text:00000000000006b0 .LEHB9
     /tmp/cc7ZC48C.s:1451   .text:00000000000006b8 .LEHE9
     /tmp/cc7ZC48C.s:1459   .text:00000000000006cc .LEHB10
     /tmp/cc7ZC48C.s:1462   .text:00000000000006d4 .LEHE10
     /tmp/cc7ZC48C.s:1470   .text:00000000000006e8 .LEHB11
     /tmp/cc7ZC48C.s:1473   .text:00000000000006f0 .LEHE11
     /tmp/cc7ZC48C.s:1481   .text:0000000000000704 .LEHB12
     /tmp/cc7ZC48C.s:1484   .text:000000000000070c .LEHE12
     /tmp/cc7ZC48C.s:3896   .debug_abbrev:0000000000000000 .Ldebug_abbrev0
     /tmp/cc7ZC48C.s:5525   .debug_str:00000000000004f0 .LASF96
     /tmp/cc7ZC48C.s:5461   .debug_str:00000000000002f9 .LASF97
     /tmp/cc7ZC48C.s:5479   .debug_str:0000000000000388 .LASF98
     /tmp/cc7ZC48C.s:5313   .debug_ranges:0000000000000000 .Ldebug_ranges0
     /tmp/cc7ZC48C.s:5355   .debug_line:0000000000000000 .Ldebug_line0
     /tmp/cc7ZC48C.s:5473   .debug_str:000000000000035f .LASF0
     /tmp/cc7ZC48C.s:5483   .debug_str:00000000000003be .LASF1
     /tmp/cc7ZC48C.s:5463   .debug_str:000000000000030a .LASF2
     /tmp/cc7ZC48C.s:5401   .debug_str:000000000000013d .LASF3
     /tmp/cc7ZC48C.s:5437   .debug_str:0000000000000256 .LASF4
     /tmp/cc7ZC48C.s:5515   .debug_str:00000000000004a7 .LASF5
     /tmp/cc7ZC48C.s:5377   .debug_str:000000000000009f .LASF6
     /tmp/cc7ZC48C.s:5487   .debug_str:00000000000003e0 .LASF7
     /tmp/cc7ZC48C.s:5471   .debug_str:000000000000034c .LASF8
     /tmp/cc7ZC48C.s:5535   .debug_str:00000000000005e8 .LASF9
     /tmp/cc7ZC48C.s:5421   .debug_str:00000000000001e5 .LASF10
     /tmp/cc7ZC48C.s:5499   .debug_str:0000000000000436 .LASF11
     /tmp/cc7ZC48C.s:5529   .debug_str:00000000000005c4 .LASF12
     /tmp/cc7ZC48C.s:5379   .debug_str:00000000000000a6 .LASF13
     /tmp/cc7ZC48C.s:5365   .debug_str:000000000000003b .LASF14
     /tmp/cc7ZC48C.s:5391   .debug_str:00000000000000e3 .LASF15
     /tmp/cc7ZC48C.s:5509   .debug_str:0000000000000475 .LASF16
     /tmp/cc7ZC48C.s:5399   .debug_str:0000000000000127 .LASF17
     /tmp/cc7ZC48C.s:5433   .debug_str:0000000000000242 .LASF18
     /tmp/cc7ZC48C.s:5411   .debug_str:0000000000000188 .LASF19
     /tmp/cc7ZC48C.s:5435   .debug_str:000000000000024c .LASF20
     /tmp/cc7ZC48C.s:5367   .debug_str:000000000000004b .LASF21
     /tmp/cc7ZC48C.s:5439   .debug_str:000000000000025d .LASF22
     /tmp/cc7ZC48C.s:5501   .debug_str:0000000000000445 .LASF23
     /tmp/cc7ZC48C.s:5467   .debug_str:0000000000000328 .LASF24
     /tmp/cc7ZC48C.s:5429   .debug_str:0000000000000225 .LASF25
     /tmp/cc7ZC48C.s:5477   .debug_str:000000000000037c .LASF26
GAS LISTING /tmp/cc7ZC48C.s 			page 50


     /tmp/cc7ZC48C.s:5369   .debug_str:0000000000000055 .LASF36
     /tmp/cc7ZC48C.s:5403   .debug_str:0000000000000143 .LASF38
     /tmp/cc7ZC48C.s:5371   .debug_str:0000000000000071 .LASF40
     /tmp/cc7ZC48C.s:5387   .debug_str:00000000000000d1 .LASF27
     /tmp/cc7ZC48C.s:5465   .debug_str:0000000000000318 .LASF43
     /tmp/cc7ZC48C.s:5531   .debug_str:00000000000005d3 .LASF99
     /tmp/cc7ZC48C.s:5419   .debug_str:00000000000001d2 .LASF28
     /tmp/cc7ZC48C.s:5481   .debug_str:00000000000003b8 .LASF30
     /tmp/cc7ZC48C.s:5415   .debug_str:00000000000001a2 .LASF29
     /tmp/cc7ZC48C.s:5553   .debug_str:000000000000065d .LASF31
     /tmp/cc7ZC48C.s:5543   .debug_str:000000000000061c .LASF32
     /tmp/cc7ZC48C.s:5561   .debug_str:00000000000006a5 .LASF33
     /tmp/cc7ZC48C.s:5363   .debug_str:0000000000000028 .LASF34
     /tmp/cc7ZC48C.s:5373   .debug_str:0000000000000083 .LASF35
     /tmp/cc7ZC48C.s:5407   .debug_str:000000000000015c .LASF37
     /tmp/cc7ZC48C.s:5545   .debug_str:0000000000000624 .LASF39
     /tmp/cc7ZC48C.s:5469   .debug_str:000000000000033a .LASF41
     /tmp/cc7ZC48C.s:5385   .debug_str:00000000000000c8 .LASF42
     /tmp/cc7ZC48C.s:5393   .debug_str:00000000000000ef .LASF44
     /tmp/cc7ZC48C.s:5497   .debug_str:000000000000042e .LASF45
     /tmp/cc7ZC48C.s:5451   .debug_str:00000000000002aa .LASF46
     /tmp/cc7ZC48C.s:5503   .debug_str:000000000000044d .LASF47
     /tmp/cc7ZC48C.s:5361   .debug_str:000000000000001c .LASF48
     /tmp/cc7ZC48C.s:5559   .debug_str:0000000000000689 .LASF49
     /tmp/cc7ZC48C.s:5475   .debug_str:000000000000036c .LASF50
     /tmp/cc7ZC48C.s:5563   .debug_str:00000000000006b7 .LASF51
     /tmp/cc7ZC48C.s:5383   .debug_str:00000000000000bf .LASF52
     /tmp/cc7ZC48C.s:5523   .debug_str:00000000000004e0 .LASF53
     /tmp/cc7ZC48C.s:5495   .debug_str:0000000000000426 .LASF54
     /tmp/cc7ZC48C.s:5541   .debug_str:000000000000060a .LASF55
     /tmp/cc7ZC48C.s:5425   .debug_str:0000000000000203 .LASF56
     /tmp/cc7ZC48C.s:5359   .debug_str:0000000000000010 .LASF57
     /tmp/cc7ZC48C.s:5493   .debug_str:000000000000040a .LASF58
     /tmp/cc7ZC48C.s:5527   .debug_str:00000000000005b4 .LASF59
     /tmp/cc7ZC48C.s:5453   .debug_str:00000000000002bc .LASF60
     /tmp/cc7ZC48C.s:5381   .debug_str:00000000000000b6 .LASF61
     /tmp/cc7ZC48C.s:5459   .debug_str:00000000000002e9 .LASF62
     /tmp/cc7ZC48C.s:5505   .debug_str:0000000000000460 .LASF63
     /tmp/cc7ZC48C.s:5431   .debug_str:0000000000000238 .LASF64
     /tmp/cc7ZC48C.s:5549   .debug_str:0000000000000641 .LASF65
     /tmp/cc7ZC48C.s:49     .text._ZN7WorkerAD0Ev:0000000000000000 .LFB39
     /tmp/cc7ZC48C.s:89     .text._ZN7WorkerAD0Ev:000000000000004c .LFE39
     /tmp/cc7ZC48C.s:4705   .debug_loc:0000000000000000 .LLST1
     /tmp/cc7ZC48C.s:65     .text._ZN7WorkerAD0Ev:0000000000000018 .LBB29
     /tmp/cc7ZC48C.s:73     .text._ZN7WorkerAD0Ev:000000000000002c .LBE29
     /tmp/cc7ZC48C.s:4723   .debug_loc:000000000000004c .LLST2
     /tmp/cc7ZC48C.s:71     .text._ZN7WorkerAD0Ev:000000000000002c .LVL4
     /tmp/cc7ZC48C.s:76     .text._ZN7WorkerAD0Ev:0000000000000038 .LVL5
     /tmp/cc7ZC48C.s:5507   .debug_str:0000000000000465 .LASF66
     /tmp/cc7ZC48C.s:11     .text._ZN7WorkerAD2Ev:0000000000000000 .LFB37
     /tmp/cc7ZC48C.s:40     .text._ZN7WorkerAD2Ev:0000000000000034 .LFE37
     /tmp/cc7ZC48C.s:4734   .debug_loc:0000000000000082 .LLST0
     /tmp/cc7ZC48C.s:29     .text._ZN7WorkerAD2Ev:0000000000000024 .LVL1
     /tmp/cc7ZC48C.s:5409   .debug_str:0000000000000178 .LASF67
     /tmp/cc7ZC48C.s:133    .text._ZN7WorkerBD0Ev:0000000000000000 .LFB35
     /tmp/cc7ZC48C.s:173    .text._ZN7WorkerBD0Ev:000000000000004c .LFE35
     /tmp/cc7ZC48C.s:4748   .debug_loc:00000000000000bb .LLST4
GAS LISTING /tmp/cc7ZC48C.s 			page 51


     /tmp/cc7ZC48C.s:149    .text._ZN7WorkerBD0Ev:0000000000000018 .LBB32
     /tmp/cc7ZC48C.s:157    .text._ZN7WorkerBD0Ev:000000000000002c .LBE32
     /tmp/cc7ZC48C.s:4766   .debug_loc:0000000000000107 .LLST5
     /tmp/cc7ZC48C.s:155    .text._ZN7WorkerBD0Ev:000000000000002c .LVL11
     /tmp/cc7ZC48C.s:160    .text._ZN7WorkerBD0Ev:0000000000000038 .LVL12
     /tmp/cc7ZC48C.s:5423   .debug_str:00000000000001f3 .LASF68
     /tmp/cc7ZC48C.s:96     .text._ZN7WorkerBD2Ev:0000000000000000 .LFB33
     /tmp/cc7ZC48C.s:124    .text._ZN7WorkerBD2Ev:0000000000000034 .LFE33
     /tmp/cc7ZC48C.s:4777   .debug_loc:000000000000013d .LLST3
     /tmp/cc7ZC48C.s:113    .text._ZN7WorkerBD2Ev:0000000000000024 .LVL8
     /tmp/cc7ZC48C.s:5445   .debug_str:0000000000000283 .LASF69
     /tmp/cc7ZC48C.s:217    .text._ZN7WorkerCD0Ev:0000000000000000 .LFB31
     /tmp/cc7ZC48C.s:257    .text._ZN7WorkerCD0Ev:000000000000004c .LFE31
     /tmp/cc7ZC48C.s:4791   .debug_loc:0000000000000176 .LLST7
     /tmp/cc7ZC48C.s:233    .text._ZN7WorkerCD0Ev:0000000000000018 .LBB35
     /tmp/cc7ZC48C.s:241    .text._ZN7WorkerCD0Ev:000000000000002c .LBE35
     /tmp/cc7ZC48C.s:4809   .debug_loc:00000000000001c2 .LLST8
     /tmp/cc7ZC48C.s:239    .text._ZN7WorkerCD0Ev:000000000000002c .LVL18
     /tmp/cc7ZC48C.s:244    .text._ZN7WorkerCD0Ev:0000000000000038 .LVL19
     /tmp/cc7ZC48C.s:5441   .debug_str:0000000000000267 .LASF70
     /tmp/cc7ZC48C.s:180    .text._ZN7WorkerCD2Ev:0000000000000000 .LFB29
     /tmp/cc7ZC48C.s:208    .text._ZN7WorkerCD2Ev:0000000000000034 .LFE29
     /tmp/cc7ZC48C.s:4820   .debug_loc:00000000000001f8 .LLST6
     /tmp/cc7ZC48C.s:197    .text._ZN7WorkerCD2Ev:0000000000000024 .LVL15
     /tmp/cc7ZC48C.s:5557   .debug_str:0000000000000679 .LASF71
     /tmp/cc7ZC48C.s:301    .text._ZN7WorkerDD0Ev:0000000000000000 .LFB27
     /tmp/cc7ZC48C.s:341    .text._ZN7WorkerDD0Ev:000000000000004c .LFE27
     /tmp/cc7ZC48C.s:4834   .debug_loc:0000000000000231 .LLST10
     /tmp/cc7ZC48C.s:317    .text._ZN7WorkerDD0Ev:0000000000000018 .LBB38
     /tmp/cc7ZC48C.s:325    .text._ZN7WorkerDD0Ev:000000000000002c .LBE38
     /tmp/cc7ZC48C.s:4852   .debug_loc:000000000000027d .LLST11
     /tmp/cc7ZC48C.s:323    .text._ZN7WorkerDD0Ev:000000000000002c .LVL25
     /tmp/cc7ZC48C.s:328    .text._ZN7WorkerDD0Ev:0000000000000038 .LVL26
     /tmp/cc7ZC48C.s:5513   .debug_str:0000000000000497 .LASF72
     /tmp/cc7ZC48C.s:264    .text._ZN7WorkerDD2Ev:0000000000000000 .LFB25
     /tmp/cc7ZC48C.s:292    .text._ZN7WorkerDD2Ev:0000000000000034 .LFE25
     /tmp/cc7ZC48C.s:4863   .debug_loc:00000000000002b3 .LLST9
     /tmp/cc7ZC48C.s:281    .text._ZN7WorkerDD2Ev:0000000000000024 .LVL22
     /tmp/cc7ZC48C.s:5405   .debug_str:0000000000000153 .LASF73
     /tmp/cc7ZC48C.s:5447   .debug_str:0000000000000293 .LASF75
     /tmp/cc7ZC48C.s:1552   .text:000000000000070c .LFB23
     /tmp/cc7ZC48C.s:1578   .text:0000000000000734 .LFE23
     /tmp/cc7ZC48C.s:1567   .text:0000000000000724 .LVL170
     /tmp/cc7ZC48C.s:5457   .debug_str:00000000000002d4 .LASF74
     /tmp/cc7ZC48C.s:5417   .debug_str:00000000000001b8 .LASF76
     /tmp/cc7ZC48C.s:1486   .text:000000000000070c .LFE22
     /tmp/cc7ZC48C.s:5539   .debug_str:0000000000000602 .LASF77
     /tmp/cc7ZC48C.s:1343   .text:00000000000005d4 .LBB64
     /tmp/cc7ZC48C.s:1366   .text:0000000000000600 .LBE64
     /tmp/cc7ZC48C.s:4877   .debug_loc:00000000000002ec .LLST40
     /tmp/cc7ZC48C.s:1359   .text:00000000000005f8 .LVL149
     /tmp/cc7ZC48C.s:1390   .text:0000000000000648 .LBB65
     /tmp/cc7ZC48C.s:1417   .text:0000000000000674 .LBE65
     /tmp/cc7ZC48C.s:5489   .debug_str:00000000000003f3 .LASF78
     /tmp/cc7ZC48C.s:4888   .debug_loc:0000000000000322 .LLST41
     /tmp/cc7ZC48C.s:5551   .debug_str:0000000000000651 .LASF79
     /tmp/cc7ZC48C.s:5511   .debug_str:000000000000048b .LASF100
GAS LISTING /tmp/cc7ZC48C.s 			page 52


     /tmp/cc7ZC48C.s:4895   .debug_loc:0000000000000345 .LLST42
     /tmp/cc7ZC48C.s:5449   .debug_str:00000000000002a0 .LASF80
     /tmp/cc7ZC48C.s:1240   .text:0000000000000504 .LBB56
     /tmp/cc7ZC48C.s:1250   .text:0000000000000518 .LBE56
     /tmp/cc7ZC48C.s:4902   .debug_loc:0000000000000368 .LLST36
     /tmp/cc7ZC48C.s:1244   .text:000000000000050c .LVL130
     /tmp/cc7ZC48C.s:1268   .text:000000000000053c .LBB58
     /tmp/cc7ZC48C.s:1278   .text:0000000000000550 .LBE58
     /tmp/cc7ZC48C.s:4913   .debug_loc:000000000000039e .LLST37
     /tmp/cc7ZC48C.s:1272   .text:0000000000000544 .LVL135
     /tmp/cc7ZC48C.s:1296   .text:0000000000000574 .LBB60
     /tmp/cc7ZC48C.s:1306   .text:0000000000000588 .LBE60
     /tmp/cc7ZC48C.s:4924   .debug_loc:00000000000003d4 .LLST38
     /tmp/cc7ZC48C.s:1300   .text:000000000000057c .LVL140
     /tmp/cc7ZC48C.s:1324   .text:00000000000005ac .LBB62
     /tmp/cc7ZC48C.s:1334   .text:00000000000005c0 .LBE62
     /tmp/cc7ZC48C.s:4935   .debug_loc:000000000000040a .LLST39
     /tmp/cc7ZC48C.s:1328   .text:00000000000005b4 .LVL145
     /tmp/cc7ZC48C.s:1235   .text:0000000000000500 .LVL128
     /tmp/cc7ZC48C.s:1258   .text:000000000000052c .LVL132
     /tmp/cc7ZC48C.s:1263   .text:0000000000000538 .LVL133
     /tmp/cc7ZC48C.s:1286   .text:0000000000000564 .LVL137
     /tmp/cc7ZC48C.s:1291   .text:0000000000000570 .LVL138
     /tmp/cc7ZC48C.s:1314   .text:000000000000059c .LVL142
     /tmp/cc7ZC48C.s:1319   .text:00000000000005a8 .LVL143
     /tmp/cc7ZC48C.s:1342   .text:00000000000005d4 .LVL147
     /tmp/cc7ZC48C.s:1370   .text:0000000000000608 .LVL152
     /tmp/cc7ZC48C.s:1389   .text:0000000000000648 .LVL153
     /tmp/cc7ZC48C.s:1422   .text:0000000000000684 .LVL159
     /tmp/cc7ZC48C.s:1446   .text:00000000000006ac .LVL162
     /tmp/cc7ZC48C.s:1450   .text:00000000000006b8 .LVL163
     /tmp/cc7ZC48C.s:1457   .text:00000000000006c8 .LVL164
     /tmp/cc7ZC48C.s:1461   .text:00000000000006d4 .LVL165
     /tmp/cc7ZC48C.s:1468   .text:00000000000006e4 .LVL166
     /tmp/cc7ZC48C.s:1472   .text:00000000000006f0 .LVL167
     /tmp/cc7ZC48C.s:1479   .text:0000000000000700 .LVL168
     /tmp/cc7ZC48C.s:1483   .text:000000000000070c .LVL169
     /tmp/cc7ZC48C.s:1003   .text:0000000000000394 .LFB21
     /tmp/cc7ZC48C.s:1152   .text:00000000000004dc .LFE21
     /tmp/cc7ZC48C.s:4946   .debug_loc:0000000000000440 .LLST31
     /tmp/cc7ZC48C.s:4960   .debug_loc:0000000000000479 .LLST32
     /tmp/cc7ZC48C.s:4974   .debug_loc:00000000000004b2 .LLST33
     /tmp/cc7ZC48C.s:5517   .debug_str:00000000000004b9 .LASF81
     /tmp/cc7ZC48C.s:4994   .debug_loc:000000000000050f .LLST34
     /tmp/cc7ZC48C.s:1030   .text:00000000000003c4 .LVL104
     /tmp/cc7ZC48C.s:1037   .text:00000000000003d8 .LVL105
     /tmp/cc7ZC48C.s:1042   .text:00000000000003e8 .LVL106
     /tmp/cc7ZC48C.s:1057   .text:0000000000000408 .LVL109
     /tmp/cc7ZC48C.s:1068   .text:0000000000000414 .LVL110
     /tmp/cc7ZC48C.s:1073   .text:0000000000000420 .LVL111
     /tmp/cc7ZC48C.s:1081   .text:0000000000000434 .LVL114
     /tmp/cc7ZC48C.s:1088   .text:0000000000000448 .LVL115
     /tmp/cc7ZC48C.s:1093   .text:0000000000000458 .LVL116
     /tmp/cc7ZC48C.s:1100   .text:000000000000046c .LVL117
     /tmp/cc7ZC48C.s:1107   .text:0000000000000480 .LVL118
     /tmp/cc7ZC48C.s:1112   .text:0000000000000490 .LVL119
     /tmp/cc7ZC48C.s:1127   .text:00000000000004b0 .LVL122
GAS LISTING /tmp/cc7ZC48C.s 			page 53


     /tmp/cc7ZC48C.s:1135   .text:00000000000004c4 .LVL123
     /tmp/cc7ZC48C.s:774    .text:0000000000000214 .LFB20
     /tmp/cc7ZC48C.s:949    .text:0000000000000394 .LFE20
     /tmp/cc7ZC48C.s:5005   .debug_loc:0000000000000545 .LLST25
     /tmp/cc7ZC48C.s:5019   .debug_loc:000000000000057e .LLST26
     /tmp/cc7ZC48C.s:5033   .debug_loc:00000000000005b7 .LLST27
     /tmp/cc7ZC48C.s:5053   .debug_loc:0000000000000614 .LLST28
     /tmp/cc7ZC48C.s:5061   .debug_loc:0000000000000638 .LLST29
     /tmp/cc7ZC48C.s:801    .text:0000000000000244 .LVL73
     /tmp/cc7ZC48C.s:808    .text:0000000000000258 .LVL74
     /tmp/cc7ZC48C.s:813    .text:0000000000000268 .LVL75
     /tmp/cc7ZC48C.s:828    .text:0000000000000288 .LVL78
     /tmp/cc7ZC48C.s:839    .text:0000000000000294 .LVL79
     /tmp/cc7ZC48C.s:853    .text:00000000000002a8 .LVL81
     /tmp/cc7ZC48C.s:860    .text:00000000000002bc .LVL82
     /tmp/cc7ZC48C.s:865    .text:00000000000002cc .LVL83
     /tmp/cc7ZC48C.s:870    .text:00000000000002d8 .LVL84
     /tmp/cc7ZC48C.s:878    .text:00000000000002ec .LVL87
     /tmp/cc7ZC48C.s:885    .text:0000000000000300 .LVL88
     /tmp/cc7ZC48C.s:890    .text:0000000000000310 .LVL89
     /tmp/cc7ZC48C.s:897    .text:0000000000000324 .LVL90
     /tmp/cc7ZC48C.s:904    .text:0000000000000338 .LVL91
     /tmp/cc7ZC48C.s:909    .text:0000000000000348 .LVL92
     /tmp/cc7ZC48C.s:924    .text:0000000000000368 .LVL95
     /tmp/cc7ZC48C.s:932    .text:000000000000037c .LVL96
     /tmp/cc7ZC48C.s:597    .text:0000000000000140 .LFB19
     /tmp/cc7ZC48C.s:720    .text:0000000000000214 .LFE19
     /tmp/cc7ZC48C.s:5072   .debug_loc:000000000000066e .LLST19
     /tmp/cc7ZC48C.s:5086   .debug_loc:00000000000006a7 .LLST20
     /tmp/cc7ZC48C.s:615    .text:0000000000000158 .LBB48
     /tmp/cc7ZC48C.s:691    .text:00000000000001d8 .LBE48
     /tmp/cc7ZC48C.s:5100   .debug_loc:00000000000006e0 .LLST21
     /tmp/cc7ZC48C.s:5112   .debug_loc:0000000000000717 .LLST22
     /tmp/cc7ZC48C.s:638    .text:0000000000000178 .LBB52
     /tmp/cc7ZC48C.s:653    .text:0000000000000190 .LBE52
     /tmp/cc7ZC48C.s:5124   .debug_loc:000000000000074e .LLST23
     /tmp/cc7ZC48C.s:627    .text:0000000000000168 .LVL55
     /tmp/cc7ZC48C.s:669    .text:00000000000001ac .LVL61
     /tmp/cc7ZC48C.s:676    .text:00000000000001c0 .LVL62
     /tmp/cc7ZC48C.s:681    .text:00000000000001d0 .LVL63
     /tmp/cc7ZC48C.s:696    .text:00000000000001e8 .LVL65
     /tmp/cc7ZC48C.s:704    .text:00000000000001fc .LVL66
     /tmp/cc7ZC48C.s:430    .text:0000000000000074 .LFB18
     /tmp/cc7ZC48C.s:549    .text:0000000000000140 .LFE18
     /tmp/cc7ZC48C.s:5135   .debug_loc:0000000000000784 .LLST13
     /tmp/cc7ZC48C.s:5149   .debug_loc:00000000000007bd .LLST14
     /tmp/cc7ZC48C.s:448    .text:000000000000008c .LBB40
     /tmp/cc7ZC48C.s:524    .text:000000000000010c .LBE40
     /tmp/cc7ZC48C.s:5163   .debug_loc:00000000000007f6 .LLST15
     /tmp/cc7ZC48C.s:5175   .debug_loc:000000000000082d .LLST16
     /tmp/cc7ZC48C.s:471    .text:00000000000000ac .LBB44
     /tmp/cc7ZC48C.s:486    .text:00000000000000c4 .LBE44
     /tmp/cc7ZC48C.s:5187   .debug_loc:0000000000000864 .LLST17
     /tmp/cc7ZC48C.s:460    .text:000000000000009c .LVL38
     /tmp/cc7ZC48C.s:502    .text:00000000000000e0 .LVL44
     /tmp/cc7ZC48C.s:509    .text:00000000000000f4 .LVL45
     /tmp/cc7ZC48C.s:514    .text:0000000000000104 .LVL46
GAS LISTING /tmp/cc7ZC48C.s 			page 54


     /tmp/cc7ZC48C.s:529    .text:000000000000011c .LVL48
     /tmp/cc7ZC48C.s:1159   .text._ZN7WorkerD3runEv:0000000000000000 .LFB17
     /tmp/cc7ZC48C.s:1186   .text._ZN7WorkerD3runEv:000000000000002c .LFE17
     /tmp/cc7ZC48C.s:5198   .debug_loc:000000000000089a .LLST35
     /tmp/cc7ZC48C.s:1175   .text._ZN7WorkerD3runEv:000000000000001c .LVL127
     /tmp/cc7ZC48C.s:5491   .debug_str:00000000000003fa .LASF82
     /tmp/cc7ZC48C.s:956    .text._ZN7WorkerC3runEv:0000000000000000 .LFB13
     /tmp/cc7ZC48C.s:983    .text._ZN7WorkerC3runEv:000000000000002c .LFE13
     /tmp/cc7ZC48C.s:5212   .debug_loc:00000000000008d3 .LLST30
     /tmp/cc7ZC48C.s:972    .text._ZN7WorkerC3runEv:000000000000001c .LVL100
     /tmp/cc7ZC48C.s:5375   .debug_str:000000000000008f .LASF83
     /tmp/cc7ZC48C.s:727    .text._ZN7WorkerB3runEv:0000000000000000 .LFB9
     /tmp/cc7ZC48C.s:754    .text._ZN7WorkerB3runEv:000000000000002c .LFE9
     /tmp/cc7ZC48C.s:5226   .debug_loc:000000000000090c .LLST24
     /tmp/cc7ZC48C.s:743    .text._ZN7WorkerB3runEv:000000000000001c .LVL69
     /tmp/cc7ZC48C.s:5521   .debug_str:00000000000004d0 .LASF84
     /tmp/cc7ZC48C.s:556    .text._ZN7WorkerA3runEv:0000000000000000 .LFB5
     /tmp/cc7ZC48C.s:583    .text._ZN7WorkerA3runEv:000000000000002c .LFE5
     /tmp/cc7ZC48C.s:5240   .debug_loc:0000000000000945 .LLST18
     /tmp/cc7ZC48C.s:572    .text._ZN7WorkerA3runEv:000000000000001c .LVL51
     /tmp/cc7ZC48C.s:5357   .debug_str:0000000000000000 .LASF85
     /tmp/cc7ZC48C.s:5537   .debug_str:00000000000005f8 .LASF101
     /tmp/cc7ZC48C.s:5533   .debug_str:00000000000005da .LASF102
     /tmp/cc7ZC48C.s:348    .text:0000000000000000 .LFB1
     /tmp/cc7ZC48C.s:413    .text:0000000000000074 .LFE1
     /tmp/cc7ZC48C.s:5254   .debug_loc:000000000000097e .LLST12
     /tmp/cc7ZC48C.s:380    .text:000000000000003c .LVL30
     /tmp/cc7ZC48C.s:385    .text:000000000000004c .LVL31
     /tmp/cc7ZC48C.s:410    .text:0000000000000070 .LVL34
     /tmp/cc7ZC48C.s:5565   .debug_str:00000000000006c9 .LASF86
     /tmp/cc7ZC48C.s:5519   .debug_str:00000000000004c0 .LASF87
     /tmp/cc7ZC48C.s:5455   .debug_str:00000000000002ce .LASF88
     /tmp/cc7ZC48C.s:5547   .debug_str:0000000000000634 .LASF89
     /tmp/cc7ZC48C.s:5555   .debug_str:0000000000000666 .LASF90
     /tmp/cc7ZC48C.s:5443   .debug_str:0000000000000277 .LASF91
     /tmp/cc7ZC48C.s:5427   .debug_str:0000000000000216 .LASF103
     /tmp/cc7ZC48C.s:5397   .debug_str:000000000000010f .LASF104
     /tmp/cc7ZC48C.s:5485   .debug_str:00000000000003d1 .LASF92
     /tmp/cc7ZC48C.s:5389   .debug_str:00000000000000da .LASF93
     /tmp/cc7ZC48C.s:5413   .debug_str:000000000000018d .LASF94
     /tmp/cc7ZC48C.s:5395   .debug_str:00000000000000ff .LASF95
     /tmp/cc7ZC48C.s:52     .text._ZN7WorkerAD0Ev:0000000000000000 .LVL2
     /tmp/cc7ZC48C.s:84     .text._ZN7WorkerAD0Ev:0000000000000044 .LVL6
     /tmp/cc7ZC48C.s:64     .text._ZN7WorkerAD0Ev:0000000000000018 .LVL3
     /tmp/cc7ZC48C.s:15     .text._ZN7WorkerAD2Ev:0000000000000000 .LVL0
     /tmp/cc7ZC48C.s:136    .text._ZN7WorkerBD0Ev:0000000000000000 .LVL9
     /tmp/cc7ZC48C.s:168    .text._ZN7WorkerBD0Ev:0000000000000044 .LVL13
     /tmp/cc7ZC48C.s:148    .text._ZN7WorkerBD0Ev:0000000000000018 .LVL10
     /tmp/cc7ZC48C.s:99     .text._ZN7WorkerBD2Ev:0000000000000000 .LVL7
     /tmp/cc7ZC48C.s:220    .text._ZN7WorkerCD0Ev:0000000000000000 .LVL16
     /tmp/cc7ZC48C.s:252    .text._ZN7WorkerCD0Ev:0000000000000044 .LVL20
     /tmp/cc7ZC48C.s:232    .text._ZN7WorkerCD0Ev:0000000000000018 .LVL17
     /tmp/cc7ZC48C.s:183    .text._ZN7WorkerCD2Ev:0000000000000000 .LVL14
     /tmp/cc7ZC48C.s:304    .text._ZN7WorkerDD0Ev:0000000000000000 .LVL23
     /tmp/cc7ZC48C.s:336    .text._ZN7WorkerDD0Ev:0000000000000044 .LVL27
     /tmp/cc7ZC48C.s:316    .text._ZN7WorkerDD0Ev:0000000000000018 .LVL24
     /tmp/cc7ZC48C.s:267    .text._ZN7WorkerDD2Ev:0000000000000000 .LVL21
GAS LISTING /tmp/cc7ZC48C.s 			page 55


     /tmp/cc7ZC48C.s:1347   .text:00000000000005d8 .LVL148
     /tmp/cc7ZC48C.s:1362   .text:00000000000005fc .LVL150
     /tmp/cc7ZC48C.s:1364   .text:0000000000000600 .LVL151
     /tmp/cc7ZC48C.s:1393   .text:000000000000064c .LVL154
     /tmp/cc7ZC48C.s:1406   .text:0000000000000660 .LVL157
     /tmp/cc7ZC48C.s:1414   .text:0000000000000670 .LVL158
     /tmp/cc7ZC48C.s:1395   .text:0000000000000650 .LVL155
     /tmp/cc7ZC48C.s:1433   .text:0000000000000690 .LVL160
     /tmp/cc7ZC48C.s:1238   .text:0000000000000504 .LVL129
     /tmp/cc7ZC48C.s:1248   .text:0000000000000518 .LVL131
     /tmp/cc7ZC48C.s:1439   .text:000000000000069c .LVL161
     /tmp/cc7ZC48C.s:1266   .text:000000000000053c .LVL134
     /tmp/cc7ZC48C.s:1276   .text:0000000000000550 .LVL136
     /tmp/cc7ZC48C.s:1294   .text:0000000000000574 .LVL139
     /tmp/cc7ZC48C.s:1304   .text:0000000000000588 .LVL141
     /tmp/cc7ZC48C.s:1322   .text:00000000000005ac .LVL144
     /tmp/cc7ZC48C.s:1332   .text:00000000000005c0 .LVL146
     /tmp/cc7ZC48C.s:1006   .text:0000000000000394 .LVL101
     /tmp/cc7ZC48C.s:1024   .text:00000000000003b4 .LVL103
     /tmp/cc7ZC48C.s:1020   .text:00000000000003ac .LVL102
     /tmp/cc7ZC48C.s:1045   .text:00000000000003ec .LVL107
     /tmp/cc7ZC48C.s:1047   .text:00000000000003f0 .LVL108
     /tmp/cc7ZC48C.s:1115   .text:0000000000000494 .LVL120
     /tmp/cc7ZC48C.s:1117   .text:0000000000000498 .LVL121
     /tmp/cc7ZC48C.s:1144   .text:00000000000004d0 .LVL124
     /tmp/cc7ZC48C.s:1075   .text:0000000000000424 .LVL112
     /tmp/cc7ZC48C.s:1079   .text:000000000000042c .LVL113
     /tmp/cc7ZC48C.s:1147   .text:00000000000004d4 .LVL125
     /tmp/cc7ZC48C.s:777    .text:0000000000000214 .LVL70
     /tmp/cc7ZC48C.s:795    .text:0000000000000234 .LVL72
     /tmp/cc7ZC48C.s:791    .text:000000000000022c .LVL71
     /tmp/cc7ZC48C.s:816    .text:000000000000026c .LVL76
     /tmp/cc7ZC48C.s:818    .text:0000000000000270 .LVL77
     /tmp/cc7ZC48C.s:912    .text:000000000000034c .LVL93
     /tmp/cc7ZC48C.s:914    .text:0000000000000350 .LVL94
     /tmp/cc7ZC48C.s:941    .text:0000000000000388 .LVL97
     /tmp/cc7ZC48C.s:847    .text:0000000000000298 .LVL80
     /tmp/cc7ZC48C.s:872    .text:00000000000002dc .LVL85
     /tmp/cc7ZC48C.s:876    .text:00000000000002e4 .LVL86
     /tmp/cc7ZC48C.s:944    .text:000000000000038c .LVL98
     /tmp/cc7ZC48C.s:600    .text:0000000000000140 .LVL52
     /tmp/cc7ZC48C.s:619    .text:0000000000000160 .LVL54
     /tmp/cc7ZC48C.s:614    .text:0000000000000158 .LVL53
     /tmp/cc7ZC48C.s:715    .text:000000000000020c .LVL67
     /tmp/cc7ZC48C.s:659    .text:0000000000000194 .LVL60
     /tmp/cc7ZC48C.s:687    .text:00000000000001d8 .LVL64
     /tmp/cc7ZC48C.s:642    .text:000000000000017c .LVL57
     /tmp/cc7ZC48C.s:651    .text:0000000000000190 .LVL59
     /tmp/cc7ZC48C.s:433    .text:0000000000000074 .LVL35
     /tmp/cc7ZC48C.s:452    .text:0000000000000094 .LVL37
     /tmp/cc7ZC48C.s:447    .text:000000000000008c .LVL36
     /tmp/cc7ZC48C.s:544    .text:0000000000000138 .LVL49
     /tmp/cc7ZC48C.s:492    .text:00000000000000c8 .LVL43
     /tmp/cc7ZC48C.s:520    .text:000000000000010c .LVL47
     /tmp/cc7ZC48C.s:475    .text:00000000000000b0 .LVL40
     /tmp/cc7ZC48C.s:484    .text:00000000000000c4 .LVL42
     /tmp/cc7ZC48C.s:1162   .text._ZN7WorkerD3runEv:0000000000000000 .LVL126
GAS LISTING /tmp/cc7ZC48C.s 			page 56


     /tmp/cc7ZC48C.s:959    .text._ZN7WorkerC3runEv:0000000000000000 .LVL99
     /tmp/cc7ZC48C.s:730    .text._ZN7WorkerB3runEv:0000000000000000 .LVL68
     /tmp/cc7ZC48C.s:559    .text._ZN7WorkerA3runEv:0000000000000000 .LVL50
     /tmp/cc7ZC48C.s:351    .text:0000000000000000 .LVL28
     /tmp/cc7ZC48C.s:374    .text:0000000000000030 .LVL29
     /tmp/cc7ZC48C.s:398    .text:000000000000005c .LVL32
     /tmp/cc7ZC48C.s:404    .text:0000000000000068 .LVL33
     /tmp/cc7ZC48C.s:1653   .debug_info:0000000000000000 .Ldebug_info0
     /tmp/cc7ZC48C.s:5      .text:0000000000000000 .Ltext0
     /tmp/cc7ZC48C.s:1647   .text:0000000000000734 .Letext0
     /tmp/cc7ZC48C.s:455    .text:0000000000000094 .LBB42
     /tmp/cc7ZC48C.s:488    .text:00000000000000c4 .LBE42
     /tmp/cc7ZC48C.s:516    .text:0000000000000104 .LBB46
     /tmp/cc7ZC48C.s:522    .text:000000000000010c .LBE46
     /tmp/cc7ZC48C.s:622    .text:0000000000000160 .LBB50
     /tmp/cc7ZC48C.s:655    .text:0000000000000190 .LBE50
     /tmp/cc7ZC48C.s:683    .text:00000000000001d0 .LBB54
     /tmp/cc7ZC48C.s:689    .text:00000000000001d8 .LBE54
     /tmp/cc7ZC48C.s:1489   .gcc_except_table:0000000000000000 .LLSDA22
                           .group:0000000000000000 _ZN7WorkerAD5Ev
                           .group:0000000000000000 _ZN7WorkerBD5Ev
                           .group:0000000000000000 _ZN7WorkerCD5Ev
                           .group:0000000000000000 _ZN7WorkerDD5Ev

UNDEFINED SYMBOLS
_ZN6ThreadD2Ev
_ZdlPv
_Z15thread_dispatchv
_Z11printStringPKc
_Z8printIntiii
_Znwm
_ZN6ThreadC2Ev
_ZN6Thread5startEv
_ZN6Thread8dispatchEv
_Unwind_Resume
__gxx_personality_v0
