GAS LISTING /tmp/cce1PgpM.s 			page 1


   1              		.file	"workers.cpp"
   2              		.option pic
   3              		.option norelax
   4              		.text
   5              	.Ltext0:
   6              		.align	2
   8              	_ZL9fibonaccim:
   9              	.LFB38:
  10              		.file 1 "src/workers.cpp"
   1:src/workers.cpp **** //
   2:src/workers.cpp **** // Created by marko on 20.4.22..
   3:src/workers.cpp **** //
   4:src/workers.cpp **** 
   5:src/workers.cpp **** #include "../lib/hw.h"
   6:src/workers.cpp **** #include "../h/ccb.hpp"
   7:src/workers.cpp **** #include "../h/print.hpp"
   8:src/workers.cpp **** 
   9:src/workers.cpp **** static uint64 fibonacci(uint64 n)
  10:src/workers.cpp **** {
  11              		.loc 1 10 1
  12              		.cfi_startproc
  13              	.LVL0:
  14 0000 130101FE 		addi	sp,sp,-32
  15              		.cfi_def_cfa_offset 32
  16 0004 233C1100 		sd	ra,24(sp)
  17 0008 23388100 		sd	s0,16(sp)
  18 000c 23349100 		sd	s1,8(sp)
  19 0010 23302101 		sd	s2,0(sp)
  20              		.cfi_offset 1, -8
  21              		.cfi_offset 8, -16
  22              		.cfi_offset 9, -24
  23              		.cfi_offset 18, -32
  24 0014 13040102 		addi	s0,sp,32
  25              		.cfi_def_cfa 8, 0
  26 0018 93040500 		mv	s1,a0
  11:src/workers.cpp ****     if (n == 0 || n == 1) { return n; }
  27              		.loc 1 11 5
  28 001c 93071000 		li	a5,1
  29 0020 63F6A702 		bleu	a0,a5,.L1
  12:src/workers.cpp ****     if (n % 4 == 0) thread_dispatch();
  30              		.loc 1 12 5
  31              		.loc 1 12 11 is_stmt 0
  32 0024 93773500 		andi	a5,a0,3
  33              		.loc 1 12 5
  34 0028 638E0702 		beqz	a5,.L6
  35              	.LVL1:
  36              	.L3:
  13:src/workers.cpp ****     return fibonacci(n - 1) + fibonacci(n - 2);
  37              		.loc 1 13 5 is_stmt 1
  38              		.loc 1 13 21 is_stmt 0
  39 002c 1385F4FF 		addi	a0,s1,-1
  40 0030 97000000 		call	_ZL9fibonaccim
  40      E7800000 
  41              	.LVL2:
  42 0038 13090500 		mv	s2,a0
  43              		.loc 1 13 40
  44 003c 1385E4FF 		addi	a0,s1,-2
GAS LISTING /tmp/cce1PgpM.s 			page 2


  45 0040 97000000 		call	_ZL9fibonaccim
  45      E7800000 
  46              	.LVL3:
  47              		.loc 1 13 46
  48 0048 3305A900 		add	a0,s2,a0
  49              	.L1:
  14:src/workers.cpp **** }
  50              		.loc 1 14 1
  51 004c 83308101 		ld	ra,24(sp)
  52              		.cfi_remember_state
  53              		.cfi_restore 1
  54 0050 03340101 		ld	s0,16(sp)
  55              		.cfi_restore 8
  56              		.cfi_def_cfa 2, 32
  57 0054 83348100 		ld	s1,8(sp)
  58              		.cfi_restore 9
  59              	.LVL4:
  60 0058 03390100 		ld	s2,0(sp)
  61              		.cfi_restore 18
  62 005c 13010102 		addi	sp,sp,32
  63              		.cfi_def_cfa_offset 0
  64 0060 67800000 		jr	ra
  65              	.LVL5:
  66              	.L6:
  67              		.cfi_restore_state
  12:src/workers.cpp ****     if (n % 4 == 0) thread_dispatch();
  68              		.loc 1 12 21 is_stmt 1 discriminator 1
  12:src/workers.cpp ****     if (n % 4 == 0) thread_dispatch();
  69              		.loc 1 12 36 is_stmt 0 discriminator 1
  70 0064 97000000 		call	_Z15thread_dispatchv@plt
  70      E7800000 
  71              	.LVL6:
  72 006c 6FF01FFC 		j	.L3
  73              		.cfi_endproc
  74              	.LFE38:
  76              		.section	.rodata.str1.8,"aMS",@progbits,1
  77              		.align	3
  78              	.LC0:
  79 0000 413A2069 		.string	"A: i="
  79      3D00
  80 0006 0000     		.align	3
  81              	.LC1:
  82 0008 0A00     		.string	"\n"
  83 000a 00000000 		.align	3
  83      0000
  84              	.LC2:
  85 0010 413A2079 		.string	"A: yield\n"
  85      69656C64 
  85      0A00
  86 001a 00000000 		.align	3
  86      0000
  87              	.LC3:
  88 0020 413A2074 		.string	"A: t1="
  88      313D00
  89 0027 00       		.align	3
  90              	.LC4:
  91 0028 413A2066 		.string	"A: fibonaci="
GAS LISTING /tmp/cce1PgpM.s 			page 3


  91      69626F6E 
  91      6163693D 
  91      00
  92 0035 000000   		.align	3
  93              	.LC5:
  94 0038 413A2020 		.string	"A:    F I N I S H E D\n"
  94      20204620 
  94      49204E20 
  94      49205320 
  94      48204520 
  95              		.text
  96              		.align	2
  97              		.globl	_Z11workerBodyAPv
  99              	_Z11workerBodyAPv:
 100              	.LFB39:
  15:src/workers.cpp **** 
  16:src/workers.cpp **** void workerBodyA(void* args)
  17:src/workers.cpp **** {
 101              		.loc 1 17 1 is_stmt 1
 102              		.cfi_startproc
 103              	.LVL7:
 104 0070 130101FE 		addi	sp,sp,-32
 105              		.cfi_def_cfa_offset 32
 106 0074 233C1100 		sd	ra,24(sp)
 107 0078 23388100 		sd	s0,16(sp)
 108 007c 23349100 		sd	s1,8(sp)
 109 0080 23302101 		sd	s2,0(sp)
 110              		.cfi_offset 1, -8
 111              		.cfi_offset 8, -16
 112              		.cfi_offset 9, -24
 113              		.cfi_offset 18, -32
 114 0084 13040102 		addi	s0,sp,32
 115              		.cfi_def_cfa 8, 0
  18:src/workers.cpp ****     thread_exit();
 116              		.loc 1 18 5
 117              		.loc 1 18 16 is_stmt 0
 118 0088 97000000 		call	_Z11thread_exitv@plt
 118      E7800000 
 119              	.LVL8:
  19:src/workers.cpp ****     uint8 i = 0;
 120              		.loc 1 19 5 is_stmt 1
 121              		.loc 1 19 11 is_stmt 0
 122 0090 93040000 		li	s1,0
 123 0094 6F008003 		j	.L9
 124              	.LVL9:
 125              	.L13:
  20:src/workers.cpp ****     for (; i < 3; i++)
  21:src/workers.cpp ****     {
  22:src/workers.cpp ****         printString("A: i=");
 126              		.loc 1 22 9 is_stmt 1 discriminator 1
 127              		.loc 1 22 20 is_stmt 0 discriminator 1
 128 0098 17050000 		lla	a0,.LC0
 128      13050500 
 129 00a0 97000000 		call	_Z11printStringPKc@plt
 129      E7800000 
 130              	.LVL10:
  23:src/workers.cpp ****         printInteger(i);
GAS LISTING /tmp/cce1PgpM.s 			page 4


 131              		.loc 1 23 9 is_stmt 1 discriminator 1
 132              		.loc 1 23 21 is_stmt 0 discriminator 1
 133 00a8 13850400 		mv	a0,s1
 134 00ac 97000000 		call	_Z12printIntegerm@plt
 134      E7800000 
 135              	.LVL11:
  24:src/workers.cpp ****         printString("\n");
 136              		.loc 1 24 9 is_stmt 1 discriminator 1
 137              		.loc 1 24 20 is_stmt 0 discriminator 1
 138 00b4 17050000 		lla	a0,.LC1
 138      13050500 
 139 00bc 97000000 		call	_Z11printStringPKc@plt
 139      E7800000 
 140              	.LVL12:
  20:src/workers.cpp ****     for (; i < 3; i++)
 141              		.loc 1 20 5 is_stmt 1 discriminator 1
 142 00c4 9B841400 		addiw	s1,s1,1
 143              	.LVL13:
 144 00c8 93F4F40F 		andi	s1,s1,0xff
 145              	.LVL14:
 146              	.L9:
  20:src/workers.cpp ****     for (; i < 3; i++)
 147              		.loc 1 20 5 discriminator 2
  20:src/workers.cpp ****     for (; i < 3; i++)
 148              		.loc 1 20 14 discriminator 2
 149 00cc 93072000 		li	a5,2
 150 00d0 E3F497FC 		bleu	s1,a5,.L13
  25:src/workers.cpp ****     }
  26:src/workers.cpp **** 
  27:src/workers.cpp ****     printString("A: yield\n");
 151              		.loc 1 27 5
 152              		.loc 1 27 16 is_stmt 0
 153 00d4 17050000 		lla	a0,.LC2
 153      13050500 
 154 00dc 97000000 		call	_Z11printStringPKc@plt
 154      E7800000 
 155              	.LVL15:
  28:src/workers.cpp ****     __asm__ ("li t1, 13");
 156              		.loc 1 28 5 is_stmt 1
 157              		.loc 1 28 26 is_stmt 0
 158              	#APP
 159              	# 28 "src/workers.cpp" 1
  29              	    thread_dispatch();
 160              		li t1, 13
 161              	# 0 "" 2
 162              		.loc 1 29 5 is_stmt 1
 163              		.loc 1 29 20 is_stmt 0
 164              	#NO_APP
 165 00e8 97000000 		call	_Z15thread_dispatchv@plt
 165      E7800000 
 166              	.LVL16:
  30:src/workers.cpp **** 
  31:src/workers.cpp ****     uint64 t1 = 0;
 167              		.loc 1 31 5 is_stmt 1
  32:src/workers.cpp ****     __asm__ ("mv %[t1], t1" : [t1] "=r"(t1));
 168              		.loc 1 32 5
 169              		.loc 1 32 45 is_stmt 0
GAS LISTING /tmp/cce1PgpM.s 			page 5


 170              	#APP
 171              	# 32 "src/workers.cpp" 1
  33              	
 172              		mv s2, t1
 173              	# 0 "" 2
 174              	.LVL17:
  34:src/workers.cpp ****     printString("A: t1=");
 175              		.loc 1 34 5 is_stmt 1
 176              		.loc 1 34 16 is_stmt 0
 177              	#NO_APP
 178 00f4 17050000 		lla	a0,.LC3
 178      13050500 
 179 00fc 97000000 		call	_Z11printStringPKc@plt
 179      E7800000 
 180              	.LVL18:
  35:src/workers.cpp ****     printInteger(t1);
 181              		.loc 1 35 5 is_stmt 1
 182              		.loc 1 35 17 is_stmt 0
 183 0104 13050900 		mv	a0,s2
 184 0108 97000000 		call	_Z12printIntegerm@plt
 184      E7800000 
 185              	.LVL19:
  36:src/workers.cpp ****     printString("\n");
 186              		.loc 1 36 5 is_stmt 1
 187              		.loc 1 36 16 is_stmt 0
 188 0110 17050000 		lla	a0,.LC1
 188      13050500 
 189 0118 97000000 		call	_Z11printStringPKc@plt
 189      E7800000 
 190              	.LVL20:
  37:src/workers.cpp **** 
  38:src/workers.cpp ****     uint64 result = fibonacci(20);
 191              		.loc 1 38 5 is_stmt 1
 192              		.loc 1 38 30 is_stmt 0
 193 0120 13054001 		li	a0,20
 194 0124 97000000 		call	_ZL9fibonaccim
 194      E7800000 
 195              	.LVL21:
 196 012c 13090500 		mv	s2,a0
 197              	.LVL22:
  39:src/workers.cpp ****     printString("A: fibonaci=");
 198              		.loc 1 39 5 is_stmt 1
 199              		.loc 1 39 16 is_stmt 0
 200 0130 17050000 		lla	a0,.LC4
 200      13050500 
 201              	.LVL23:
 202 0138 97000000 		call	_Z11printStringPKc@plt
 202      E7800000 
 203              	.LVL24:
  40:src/workers.cpp ****     printInteger(result);
 204              		.loc 1 40 5 is_stmt 1
 205              		.loc 1 40 17 is_stmt 0
 206 0140 13050900 		mv	a0,s2
 207 0144 97000000 		call	_Z12printIntegerm@plt
 207      E7800000 
 208              	.LVL25:
  41:src/workers.cpp ****     printString("\n");
GAS LISTING /tmp/cce1PgpM.s 			page 6


 209              		.loc 1 41 5 is_stmt 1
 210              		.loc 1 41 16 is_stmt 0
 211 014c 17050000 		lla	a0,.LC1
 211      13050500 
 212 0154 97000000 		call	_Z11printStringPKc@plt
 212      E7800000 
 213              	.LVL26:
 214 015c 6F008003 		j	.L11
 215              	.L14:
  42:src/workers.cpp **** 
  43:src/workers.cpp ****     for (; i < 6; i++)
  44:src/workers.cpp ****     {
  45:src/workers.cpp ****         printString("A: i=");
 216              		.loc 1 45 9 is_stmt 1 discriminator 1
 217              		.loc 1 45 20 is_stmt 0 discriminator 1
 218 0160 17050000 		lla	a0,.LC0
 218      13050500 
 219 0168 97000000 		call	_Z11printStringPKc@plt
 219      E7800000 
 220              	.LVL27:
  46:src/workers.cpp ****         printInteger(i);
 221              		.loc 1 46 9 is_stmt 1 discriminator 1
 222              		.loc 1 46 21 is_stmt 0 discriminator 1
 223 0170 13850400 		mv	a0,s1
 224 0174 97000000 		call	_Z12printIntegerm@plt
 224      E7800000 
 225              	.LVL28:
  47:src/workers.cpp ****         printString("\n");
 226              		.loc 1 47 9 is_stmt 1 discriminator 1
 227              		.loc 1 47 20 is_stmt 0 discriminator 1
 228 017c 17050000 		lla	a0,.LC1
 228      13050500 
 229 0184 97000000 		call	_Z11printStringPKc@plt
 229      E7800000 
 230              	.LVL29:
  43:src/workers.cpp ****     {
 231              		.loc 1 43 5 is_stmt 1 discriminator 1
 232 018c 9B841400 		addiw	s1,s1,1
 233              	.LVL30:
 234 0190 93F4F40F 		andi	s1,s1,0xff
 235              	.LVL31:
 236              	.L11:
  43:src/workers.cpp ****     {
 237              		.loc 1 43 5 discriminator 2
  43:src/workers.cpp ****     {
 238              		.loc 1 43 14 discriminator 2
 239 0194 93075000 		li	a5,5
 240 0198 E3F497FC 		bleu	s1,a5,.L14
  48:src/workers.cpp ****     }
  49:src/workers.cpp ****     printString("A:    F I N I S H E D\n");
 241              		.loc 1 49 5
 242              		.loc 1 49 16 is_stmt 0
 243 019c 17050000 		lla	a0,.LC5
 243      13050500 
 244 01a4 97000000 		call	_Z11printStringPKc@plt
 244      E7800000 
 245              	.LVL32:
GAS LISTING /tmp/cce1PgpM.s 			page 7


  50:src/workers.cpp ****     CCB::running->setFinished(true);
 246              		.loc 1 50 5 is_stmt 1
 247              		.loc 1 50 30 is_stmt 0
 248 01ac 97070000 		la	a5,_ZN3CCB7runningE
 248      83B70700 
 249 01b4 83B70700 		ld	a5,0(a5)
 250              	.LVL33:
 251              	.LBB6:
 252              	.LBB7:
 253              		.file 2 "src/../h/ccb.hpp"
   1:src/../h/ccb.hpp **** //
   2:src/../h/ccb.hpp **** // Created by os on 6/24/22.
   3:src/../h/ccb.hpp **** //
   4:src/../h/ccb.hpp **** 
   5:src/../h/ccb.hpp **** #ifndef PROJECT_V33333333333_CCB_HPP
   6:src/../h/ccb.hpp **** #define PROJECT_V33333333333_CCB_HPP
   7:src/../h/ccb.hpp **** #include "../lib/hw.h"
   8:src/../h/ccb.hpp **** #include "Scheduler.hpp"
   9:src/../h/ccb.hpp **** #include "syscall_c.h"
  10:src/../h/ccb.hpp **** #include "MemoryAllocator.hpp"
  11:src/../h/ccb.hpp **** #include "Riscv.hpp"
  12:src/../h/ccb.hpp **** 
  13:src/../h/ccb.hpp **** // Coroutine Control Block
  14:src/../h/ccb.hpp **** class CCB
  15:src/../h/ccb.hpp **** {
  16:src/../h/ccb.hpp **** public:
  17:src/../h/ccb.hpp ****     ~CCB() { delete[] stack; }
  18:src/../h/ccb.hpp **** 
  19:src/../h/ccb.hpp ****     void* operator new(size_t size) {
  20:src/../h/ccb.hpp ****         return MemoryAllocator::allocateB(size);
  21:src/../h/ccb.hpp ****     }
  22:src/../h/ccb.hpp **** 
  23:src/../h/ccb.hpp ****     void operator delete(void* address) {
  24:src/../h/ccb.hpp ****         MemoryAllocator::free(address);
  25:src/../h/ccb.hpp ****     }
  26:src/../h/ccb.hpp **** 
  27:src/../h/ccb.hpp ****     bool isFinished() const { return finished; }
  28:src/../h/ccb.hpp **** 
  29:src/../h/ccb.hpp ****     void setFinished(bool value) { finished = value;}
 254              		.loc 2 29 36 is_stmt 1
 255              		.loc 2 29 45 is_stmt 0
 256 01b8 13071000 		li	a4,1
 257 01bc 2384E702 		sb	a4,40(a5)
 258              	.LVL34:
 259              	.LBE7:
 260              	.LBE6:
  51:src/workers.cpp ****     thread_dispatch();
 261              		.loc 1 51 5 is_stmt 1
 262              		.loc 1 51 20 is_stmt 0
 263 01c0 97000000 		call	_Z15thread_dispatchv@plt
 263      E7800000 
 264              	.LVL35:
  52:src/workers.cpp **** }
 265              		.loc 1 52 1
 266 01c8 83308101 		ld	ra,24(sp)
 267              		.cfi_restore 1
 268 01cc 03340101 		ld	s0,16(sp)
GAS LISTING /tmp/cce1PgpM.s 			page 8


 269              		.cfi_restore 8
 270              		.cfi_def_cfa 2, 32
 271 01d0 83348100 		ld	s1,8(sp)
 272              		.cfi_restore 9
 273              	.LVL36:
 274 01d4 03390100 		ld	s2,0(sp)
 275              		.cfi_restore 18
 276              	.LVL37:
 277 01d8 13010102 		addi	sp,sp,32
 278              		.cfi_def_cfa_offset 0
 279 01dc 67800000 		jr	ra
 280              		.cfi_endproc
 281              	.LFE39:
 283              		.section	.rodata.str1.8
 284 004f 00       		.align	3
 285              	.LC6:
 286 0050 423A2069 		.string	"B: i="
 286      3D00
 287 0056 0000     		.align	3
 288              	.LC7:
 289 0058 423A2079 		.string	"B: yield\n"
 289      69656C64 
 289      0A00
 290 0062 00000000 		.align	3
 290      0000
 291              	.LC8:
 292 0068 423A2066 		.string	"B: fibonaci="
 292      69626F6E 
 292      6163693D 
 292      00
 293              		.text
 294              		.align	2
 295              		.globl	_Z11workerBodyBPv
 297              	_Z11workerBodyBPv:
 298              	.LFB40:
  53:src/workers.cpp **** 
  54:src/workers.cpp **** void workerBodyB(void* args)
  55:src/workers.cpp **** {
 299              		.loc 1 55 1 is_stmt 1
 300              		.cfi_startproc
 301              	.LVL38:
 302 01e0 130101FE 		addi	sp,sp,-32
 303              		.cfi_def_cfa_offset 32
 304 01e4 233C1100 		sd	ra,24(sp)
 305 01e8 23388100 		sd	s0,16(sp)
 306 01ec 23349100 		sd	s1,8(sp)
 307 01f0 23302101 		sd	s2,0(sp)
 308              		.cfi_offset 1, -8
 309              		.cfi_offset 8, -16
 310              		.cfi_offset 9, -24
 311              		.cfi_offset 18, -32
 312 01f4 13040102 		addi	s0,sp,32
 313              		.cfi_def_cfa 8, 0
  56:src/workers.cpp ****     uint8 i = 10;
 314              		.loc 1 56 5
 315              	.LVL39:
 316              		.loc 1 56 11 is_stmt 0
GAS LISTING /tmp/cce1PgpM.s 			page 9


 317 01f8 9304A000 		li	s1,10
 318 01fc 6F008003 		j	.L17
 319              	.LVL40:
 320              	.L21:
  57:src/workers.cpp ****     for (; i < 13; i++)
  58:src/workers.cpp ****     {
  59:src/workers.cpp ****         printString("B: i=");
 321              		.loc 1 59 9 is_stmt 1 discriminator 1
 322              		.loc 1 59 20 is_stmt 0 discriminator 1
 323 0200 17050000 		lla	a0,.LC6
 323      13050500 
 324 0208 97000000 		call	_Z11printStringPKc@plt
 324      E7800000 
 325              	.LVL41:
  60:src/workers.cpp ****         printInteger(i);
 326              		.loc 1 60 9 is_stmt 1 discriminator 1
 327              		.loc 1 60 21 is_stmt 0 discriminator 1
 328 0210 13850400 		mv	a0,s1
 329 0214 97000000 		call	_Z12printIntegerm@plt
 329      E7800000 
 330              	.LVL42:
  61:src/workers.cpp ****         printString("\n");
 331              		.loc 1 61 9 is_stmt 1 discriminator 1
 332              		.loc 1 61 20 is_stmt 0 discriminator 1
 333 021c 17050000 		lla	a0,.LC1
 333      13050500 
 334 0224 97000000 		call	_Z11printStringPKc@plt
 334      E7800000 
 335              	.LVL43:
  57:src/workers.cpp ****     for (; i < 13; i++)
 336              		.loc 1 57 5 is_stmt 1 discriminator 1
 337 022c 9B841400 		addiw	s1,s1,1
 338              	.LVL44:
 339 0230 93F4F40F 		andi	s1,s1,0xff
 340              	.LVL45:
 341              	.L17:
  57:src/workers.cpp ****     for (; i < 13; i++)
 342              		.loc 1 57 5 discriminator 2
  57:src/workers.cpp ****     for (; i < 13; i++)
 343              		.loc 1 57 14 discriminator 2
 344 0234 9307C000 		li	a5,12
 345 0238 E3F497FC 		bleu	s1,a5,.L21
  62:src/workers.cpp ****     }
  63:src/workers.cpp **** 
  64:src/workers.cpp ****     printString("B: yield\n");
 346              		.loc 1 64 5
 347              		.loc 1 64 16 is_stmt 0
 348 023c 17050000 		lla	a0,.LC7
 348      13050500 
 349 0244 97000000 		call	_Z11printStringPKc@plt
 349      E7800000 
 350              	.LVL46:
  65:src/workers.cpp ****     __asm__ ("li t1, 9");
 351              		.loc 1 65 5 is_stmt 1
 352              		.loc 1 65 25 is_stmt 0
 353              	#APP
 354              	# 65 "src/workers.cpp" 1
GAS LISTING /tmp/cce1PgpM.s 			page 10


  66              	    thread_dispatch();
 355              		li t1, 9
 356              	# 0 "" 2
 357              		.loc 1 66 5 is_stmt 1
 358              		.loc 1 66 20 is_stmt 0
 359              	#NO_APP
 360 0250 97000000 		call	_Z15thread_dispatchv@plt
 360      E7800000 
 361              	.LVL47:
  67:src/workers.cpp **** 
  68:src/workers.cpp ****     uint64 result = fibonacci(23);
 362              		.loc 1 68 5 is_stmt 1
 363              		.loc 1 68 30 is_stmt 0
 364 0258 13057001 		li	a0,23
 365 025c 97000000 		call	_ZL9fibonaccim
 365      E7800000 
 366              	.LVL48:
 367 0264 13090500 		mv	s2,a0
 368              	.LVL49:
  69:src/workers.cpp ****     printString("B: fibonaci=");
 369              		.loc 1 69 5 is_stmt 1
 370              		.loc 1 69 16 is_stmt 0
 371 0268 17050000 		lla	a0,.LC8
 371      13050500 
 372              	.LVL50:
 373 0270 97000000 		call	_Z11printStringPKc@plt
 373      E7800000 
 374              	.LVL51:
  70:src/workers.cpp ****     printInteger(result);
 375              		.loc 1 70 5 is_stmt 1
 376              		.loc 1 70 17 is_stmt 0
 377 0278 13050900 		mv	a0,s2
 378 027c 97000000 		call	_Z12printIntegerm@plt
 378      E7800000 
 379              	.LVL52:
  71:src/workers.cpp ****     printString("\n");
 380              		.loc 1 71 5 is_stmt 1
 381              		.loc 1 71 16 is_stmt 0
 382 0284 17050000 		lla	a0,.LC1
 382      13050500 
 383 028c 97000000 		call	_Z11printStringPKc@plt
 383      E7800000 
 384              	.LVL53:
 385 0294 6F008003 		j	.L19
 386              	.L22:
  72:src/workers.cpp **** 
  73:src/workers.cpp ****     for (; i < 16; i++)
  74:src/workers.cpp ****     {
  75:src/workers.cpp ****         printString("B: i=");
 387              		.loc 1 75 9 is_stmt 1 discriminator 1
 388              		.loc 1 75 20 is_stmt 0 discriminator 1
 389 0298 17050000 		lla	a0,.LC6
 389      13050500 
 390 02a0 97000000 		call	_Z11printStringPKc@plt
 390      E7800000 
 391              	.LVL54:
  76:src/workers.cpp ****         printInteger(i);
GAS LISTING /tmp/cce1PgpM.s 			page 11


 392              		.loc 1 76 9 is_stmt 1 discriminator 1
 393              		.loc 1 76 21 is_stmt 0 discriminator 1
 394 02a8 13850400 		mv	a0,s1
 395 02ac 97000000 		call	_Z12printIntegerm@plt
 395      E7800000 
 396              	.LVL55:
  77:src/workers.cpp ****         printString("\n");
 397              		.loc 1 77 9 is_stmt 1 discriminator 1
 398              		.loc 1 77 20 is_stmt 0 discriminator 1
 399 02b4 17050000 		lla	a0,.LC1
 399      13050500 
 400 02bc 97000000 		call	_Z11printStringPKc@plt
 400      E7800000 
 401              	.LVL56:
  73:src/workers.cpp ****     {
 402              		.loc 1 73 5 is_stmt 1 discriminator 1
 403 02c4 9B841400 		addiw	s1,s1,1
 404              	.LVL57:
 405 02c8 93F4F40F 		andi	s1,s1,0xff
 406              	.LVL58:
 407              	.L19:
  73:src/workers.cpp ****     {
 408              		.loc 1 73 5 discriminator 2
  73:src/workers.cpp ****     {
 409              		.loc 1 73 14 discriminator 2
 410 02cc 9307F000 		li	a5,15
 411 02d0 E3F497FC 		bleu	s1,a5,.L22
  78:src/workers.cpp ****     }
  79:src/workers.cpp **** 
  80:src/workers.cpp ****     CCB::running->setFinished(true);
 412              		.loc 1 80 5
 413              		.loc 1 80 30 is_stmt 0
 414 02d4 97070000 		la	a5,_ZN3CCB7runningE
 414      83B70700 
 415 02dc 83B70700 		ld	a5,0(a5)
 416              	.LVL59:
 417              	.LBB8:
 418              	.LBB9:
 419              		.loc 2 29 36 is_stmt 1
 420              		.loc 2 29 45 is_stmt 0
 421 02e0 13071000 		li	a4,1
 422 02e4 2384E702 		sb	a4,40(a5)
 423              	.LVL60:
 424              	.LBE9:
 425              	.LBE8:
  81:src/workers.cpp ****     thread_dispatch();
 426              		.loc 1 81 5 is_stmt 1
 427              		.loc 1 81 20 is_stmt 0
 428 02e8 97000000 		call	_Z15thread_dispatchv@plt
 428      E7800000 
 429              	.LVL61:
  82:src/workers.cpp **** }...
 430              		.loc 1 82 1
 431 02f0 83308101 		ld	ra,24(sp)
 432              		.cfi_restore 1
 433 02f4 03340101 		ld	s0,16(sp)
 434              		.cfi_restore 8
GAS LISTING /tmp/cce1PgpM.s 			page 12


 435              		.cfi_def_cfa 2, 32
 436 02f8 83348100 		ld	s1,8(sp)
 437              		.cfi_restore 9
 438              	.LVL62:
 439 02fc 03390100 		ld	s2,0(sp)
 440              		.cfi_restore 18
 441              	.LVL63:
 442 0300 13010102 		addi	sp,sp,32
 443              		.cfi_def_cfa_offset 0
 444 0304 67800000 		jr	ra
 445              		.cfi_endproc
 446              	.LFE40:
 448              	.Letext0:
 449              		.file 3 "src/../lib/hw.h"
 450              		.file 4 "src/../h/print.hpp"
 451              		.file 5 "src/../h/syscall_c.h"
GAS LISTING /tmp/cce1PgpM.s 			page 13


DEFINED SYMBOLS
                            *ABS*:0000000000000000 workers.cpp
     /tmp/cce1PgpM.s:8      .text:0000000000000000 _ZL9fibonaccim
     /tmp/cce1PgpM.s:12     .text:0000000000000000 .L0 
     /tmp/cce1PgpM.s:14     .text:0000000000000000 .L0 
     /tmp/cce1PgpM.s:15     .text:0000000000000004 .L0 
     /tmp/cce1PgpM.s:20     .text:0000000000000014 .L0 
     /tmp/cce1PgpM.s:21     .text:0000000000000014 .L0 
     /tmp/cce1PgpM.s:22     .text:0000000000000014 .L0 
     /tmp/cce1PgpM.s:23     .text:0000000000000014 .L0 
     /tmp/cce1PgpM.s:25     .text:0000000000000018 .L0 
     /tmp/cce1PgpM.s:28     .text:000000000000001c .L0 
     /tmp/cce1PgpM.s:31     .text:0000000000000024 .L0 
     /tmp/cce1PgpM.s:32     .text:0000000000000024 .L0 
     /tmp/cce1PgpM.s:34     .text:0000000000000028 .L0 
     /tmp/cce1PgpM.s:38     .text:000000000000002c .L0 
     /tmp/cce1PgpM.s:39     .text:000000000000002c .L0 
     /tmp/cce1PgpM.s:44     .text:000000000000003c .L0 
     /tmp/cce1PgpM.s:48     .text:0000000000000048 .L0 
     /tmp/cce1PgpM.s:51     .text:000000000000004c .L0 
     /tmp/cce1PgpM.s:52     .text:0000000000000050 .L0 
     /tmp/cce1PgpM.s:53     .text:0000000000000050 .L0 
     /tmp/cce1PgpM.s:55     .text:0000000000000054 .L0 
     /tmp/cce1PgpM.s:56     .text:0000000000000054 .L0 
     /tmp/cce1PgpM.s:58     .text:0000000000000058 .L0 
     /tmp/cce1PgpM.s:61     .text:000000000000005c .L0 
     /tmp/cce1PgpM.s:63     .text:0000000000000060 .L0 
     /tmp/cce1PgpM.s:67     .text:0000000000000064 .L0 
     /tmp/cce1PgpM.s:69     .text:0000000000000064 .L0 
     /tmp/cce1PgpM.s:70     .text:0000000000000064 .L0 
     /tmp/cce1PgpM.s:73     .text:0000000000000070 .L0 
     /tmp/cce1PgpM.s:99     .text:0000000000000070 _Z11workerBodyAPv
     /tmp/cce1PgpM.s:102    .text:0000000000000070 .L0 
     /tmp/cce1PgpM.s:104    .text:0000000000000070 .L0 
     /tmp/cce1PgpM.s:105    .text:0000000000000074 .L0 
     /tmp/cce1PgpM.s:110    .text:0000000000000084 .L0 
     /tmp/cce1PgpM.s:111    .text:0000000000000084 .L0 
     /tmp/cce1PgpM.s:112    .text:0000000000000084 .L0 
     /tmp/cce1PgpM.s:113    .text:0000000000000084 .L0 
     /tmp/cce1PgpM.s:115    .text:0000000000000088 .L0 
     /tmp/cce1PgpM.s:117    .text:0000000000000088 .L0 
     /tmp/cce1PgpM.s:118    .text:0000000000000088 .L0 
     /tmp/cce1PgpM.s:121    .text:0000000000000090 .L0 
     /tmp/cce1PgpM.s:122    .text:0000000000000090 .L0 
     /tmp/cce1PgpM.s:127    .text:0000000000000098 .L0 
     /tmp/cce1PgpM.s:128    .text:0000000000000098 .L0 
     /tmp/cce1PgpM.s:132    .text:00000000000000a8 .L0 
     /tmp/cce1PgpM.s:133    .text:00000000000000a8 .L0 
     /tmp/cce1PgpM.s:137    .text:00000000000000b4 .L0 
     /tmp/cce1PgpM.s:138    .text:00000000000000b4 .L0 
     /tmp/cce1PgpM.s:142    .text:00000000000000c4 .L0 
     /tmp/cce1PgpM.s:148    .text:00000000000000cc .L0 
     /tmp/cce1PgpM.s:149    .text:00000000000000cc .L0 
     /tmp/cce1PgpM.s:152    .text:00000000000000d4 .L0 
     /tmp/cce1PgpM.s:153    .text:00000000000000d4 .L0 
     /tmp/cce1PgpM.s:157    .text:00000000000000e4 .L0 
     src/workers.cpp:28     .text:00000000000000e4 .L0 
GAS LISTING /tmp/cce1PgpM.s 			page 14


     /tmp/cce1PgpM.s:163    .text:00000000000000e8 .L0 
     /tmp/cce1PgpM.s:165    .text:00000000000000e8 .L0 
     /tmp/cce1PgpM.s:168    .text:00000000000000f0 .L0 
     /tmp/cce1PgpM.s:169    .text:00000000000000f0 .L0 
     src/workers.cpp:32     .text:00000000000000f0 .L0 
     /tmp/cce1PgpM.s:176    .text:00000000000000f4 .L0 
     /tmp/cce1PgpM.s:178    .text:00000000000000f4 .L0 
     /tmp/cce1PgpM.s:182    .text:0000000000000104 .L0 
     /tmp/cce1PgpM.s:183    .text:0000000000000104 .L0 
     /tmp/cce1PgpM.s:187    .text:0000000000000110 .L0 
     /tmp/cce1PgpM.s:188    .text:0000000000000110 .L0 
     /tmp/cce1PgpM.s:192    .text:0000000000000120 .L0 
     /tmp/cce1PgpM.s:193    .text:0000000000000120 .L0 
     /tmp/cce1PgpM.s:199    .text:0000000000000130 .L0 
     /tmp/cce1PgpM.s:200    .text:0000000000000130 .L0 
     /tmp/cce1PgpM.s:205    .text:0000000000000140 .L0 
     /tmp/cce1PgpM.s:206    .text:0000000000000140 .L0 
     /tmp/cce1PgpM.s:210    .text:000000000000014c .L0 
     /tmp/cce1PgpM.s:211    .text:000000000000014c .L0 
     /tmp/cce1PgpM.s:217    .text:0000000000000160 .L0 
     /tmp/cce1PgpM.s:218    .text:0000000000000160 .L0 
     /tmp/cce1PgpM.s:222    .text:0000000000000170 .L0 
     /tmp/cce1PgpM.s:223    .text:0000000000000170 .L0 
     /tmp/cce1PgpM.s:227    .text:000000000000017c .L0 
     /tmp/cce1PgpM.s:228    .text:000000000000017c .L0 
     /tmp/cce1PgpM.s:232    .text:000000000000018c .L0 
     /tmp/cce1PgpM.s:238    .text:0000000000000194 .L0 
     /tmp/cce1PgpM.s:239    .text:0000000000000194 .L0 
     /tmp/cce1PgpM.s:242    .text:000000000000019c .L0 
     /tmp/cce1PgpM.s:243    .text:000000000000019c .L0 
     /tmp/cce1PgpM.s:247    .text:00000000000001ac .L0 
     /tmp/cce1PgpM.s:248    .text:00000000000001ac .L0 
     /tmp/cce1PgpM.s:255    .text:00000000000001b8 .L0 
     /tmp/cce1PgpM.s:256    .text:00000000000001b8 .L0 
     /tmp/cce1PgpM.s:262    .text:00000000000001c0 .L0 
     /tmp/cce1PgpM.s:263    .text:00000000000001c0 .L0 
     /tmp/cce1PgpM.s:266    .text:00000000000001c8 .L0 
     /tmp/cce1PgpM.s:267    .text:00000000000001cc .L0 
     /tmp/cce1PgpM.s:269    .text:00000000000001d0 .L0 
     /tmp/cce1PgpM.s:270    .text:00000000000001d0 .L0 
     /tmp/cce1PgpM.s:272    .text:00000000000001d4 .L0 
     /tmp/cce1PgpM.s:275    .text:00000000000001d8 .L0 
     /tmp/cce1PgpM.s:278    .text:00000000000001dc .L0 
     /tmp/cce1PgpM.s:280    .text:00000000000001e0 .L0 
     /tmp/cce1PgpM.s:297    .text:00000000000001e0 _Z11workerBodyBPv
     /tmp/cce1PgpM.s:300    .text:00000000000001e0 .L0 
     /tmp/cce1PgpM.s:302    .text:00000000000001e0 .L0 
     /tmp/cce1PgpM.s:303    .text:00000000000001e4 .L0 
     /tmp/cce1PgpM.s:308    .text:00000000000001f4 .L0 
     /tmp/cce1PgpM.s:309    .text:00000000000001f4 .L0 
     /tmp/cce1PgpM.s:310    .text:00000000000001f4 .L0 
     /tmp/cce1PgpM.s:311    .text:00000000000001f4 .L0 
     /tmp/cce1PgpM.s:313    .text:00000000000001f8 .L0 
     /tmp/cce1PgpM.s:316    .text:00000000000001f8 .L0 
     /tmp/cce1PgpM.s:317    .text:00000000000001f8 .L0 
     /tmp/cce1PgpM.s:322    .text:0000000000000200 .L0 
     /tmp/cce1PgpM.s:323    .text:0000000000000200 .L0 
GAS LISTING /tmp/cce1PgpM.s 			page 15


     /tmp/cce1PgpM.s:327    .text:0000000000000210 .L0 
     /tmp/cce1PgpM.s:328    .text:0000000000000210 .L0 
     /tmp/cce1PgpM.s:332    .text:000000000000021c .L0 
     /tmp/cce1PgpM.s:333    .text:000000000000021c .L0 
     /tmp/cce1PgpM.s:337    .text:000000000000022c .L0 
     /tmp/cce1PgpM.s:343    .text:0000000000000234 .L0 
     /tmp/cce1PgpM.s:344    .text:0000000000000234 .L0 
     /tmp/cce1PgpM.s:347    .text:000000000000023c .L0 
     /tmp/cce1PgpM.s:348    .text:000000000000023c .L0 
     /tmp/cce1PgpM.s:352    .text:000000000000024c .L0 
     src/workers.cpp:65     .text:000000000000024c .L0 
     /tmp/cce1PgpM.s:358    .text:0000000000000250 .L0 
     /tmp/cce1PgpM.s:360    .text:0000000000000250 .L0 
     /tmp/cce1PgpM.s:363    .text:0000000000000258 .L0 
     /tmp/cce1PgpM.s:364    .text:0000000000000258 .L0 
     /tmp/cce1PgpM.s:370    .text:0000000000000268 .L0 
     /tmp/cce1PgpM.s:371    .text:0000000000000268 .L0 
     /tmp/cce1PgpM.s:376    .text:0000000000000278 .L0 
     /tmp/cce1PgpM.s:377    .text:0000000000000278 .L0 
     /tmp/cce1PgpM.s:381    .text:0000000000000284 .L0 
     /tmp/cce1PgpM.s:382    .text:0000000000000284 .L0 
     /tmp/cce1PgpM.s:388    .text:0000000000000298 .L0 
     /tmp/cce1PgpM.s:389    .text:0000000000000298 .L0 
     /tmp/cce1PgpM.s:393    .text:00000000000002a8 .L0 
     /tmp/cce1PgpM.s:394    .text:00000000000002a8 .L0 
     /tmp/cce1PgpM.s:398    .text:00000000000002b4 .L0 
     /tmp/cce1PgpM.s:399    .text:00000000000002b4 .L0 
     /tmp/cce1PgpM.s:403    .text:00000000000002c4 .L0 
     /tmp/cce1PgpM.s:409    .text:00000000000002cc .L0 
     /tmp/cce1PgpM.s:410    .text:00000000000002cc .L0 
     /tmp/cce1PgpM.s:413    .text:00000000000002d4 .L0 
     /tmp/cce1PgpM.s:414    .text:00000000000002d4 .L0 
     /tmp/cce1PgpM.s:420    .text:00000000000002e0 .L0 
     /tmp/cce1PgpM.s:421    .text:00000000000002e0 .L0 
     /tmp/cce1PgpM.s:427    .text:00000000000002e8 .L0 
     /tmp/cce1PgpM.s:428    .text:00000000000002e8 .L0 
     /tmp/cce1PgpM.s:431    .text:00000000000002f0 .L0 
     /tmp/cce1PgpM.s:432    .text:00000000000002f4 .L0 
     /tmp/cce1PgpM.s:434    .text:00000000000002f8 .L0 
     /tmp/cce1PgpM.s:435    .text:00000000000002f8 .L0 
     /tmp/cce1PgpM.s:437    .text:00000000000002fc .L0 
     /tmp/cce1PgpM.s:440    .text:0000000000000300 .L0 
     /tmp/cce1PgpM.s:443    .text:0000000000000304 .L0 
     /tmp/cce1PgpM.s:445    .text:0000000000000308 .L0 
     /tmp/cce1PgpM.s:452    .text:0000000000000308 .L0 
     /tmp/cce1PgpM.s:78     .rodata.str1.8:0000000000000000 .LC0
     /tmp/cce1PgpM.s:128    .text:0000000000000098 .L0 
     /tmp/cce1PgpM.s:81     .rodata.str1.8:0000000000000008 .LC1
     /tmp/cce1PgpM.s:138    .text:00000000000000b4 .L0 
     /tmp/cce1PgpM.s:84     .rodata.str1.8:0000000000000010 .LC2
     /tmp/cce1PgpM.s:153    .text:00000000000000d4 .L0 
     /tmp/cce1PgpM.s:87     .rodata.str1.8:0000000000000020 .LC3
     /tmp/cce1PgpM.s:178    .text:00000000000000f4 .L0 
     /tmp/cce1PgpM.s:188    .text:0000000000000110 .L0 
     /tmp/cce1PgpM.s:90     .rodata.str1.8:0000000000000028 .LC4
     /tmp/cce1PgpM.s:200    .text:0000000000000130 .L0 
     /tmp/cce1PgpM.s:211    .text:000000000000014c .L0 
GAS LISTING /tmp/cce1PgpM.s 			page 16


     /tmp/cce1PgpM.s:218    .text:0000000000000160 .L0 
     /tmp/cce1PgpM.s:228    .text:000000000000017c .L0 
     /tmp/cce1PgpM.s:93     .rodata.str1.8:0000000000000038 .LC5
     /tmp/cce1PgpM.s:243    .text:000000000000019c .L0 
     /tmp/cce1PgpM.s:248    .text:00000000000001ac .L0 
     /tmp/cce1PgpM.s:285    .rodata.str1.8:0000000000000050 .LC6
     /tmp/cce1PgpM.s:323    .text:0000000000000200 .L0 
     /tmp/cce1PgpM.s:333    .text:000000000000021c .L0 
     /tmp/cce1PgpM.s:288    .rodata.str1.8:0000000000000058 .LC7
     /tmp/cce1PgpM.s:348    .text:000000000000023c .L0 
     /tmp/cce1PgpM.s:291    .rodata.str1.8:0000000000000068 .LC8
     /tmp/cce1PgpM.s:371    .text:0000000000000268 .L0 
     /tmp/cce1PgpM.s:382    .text:0000000000000284 .L0 
     /tmp/cce1PgpM.s:389    .text:0000000000000298 .L0 
     /tmp/cce1PgpM.s:399    .text:00000000000002b4 .L0 
     /tmp/cce1PgpM.s:414    .text:00000000000002d4 .L0 
     /tmp/cce1PgpM.s:49     .text:000000000000004c .L1
     /tmp/cce1PgpM.s:66     .text:0000000000000064 .L6
     /tmp/cce1PgpM.s:36     .text:000000000000002c .L3
     /tmp/cce1PgpM.s:146    .text:00000000000000cc .L9
     /tmp/cce1PgpM.s:125    .text:0000000000000098 .L13
     /tmp/cce1PgpM.s:236    .text:0000000000000194 .L11
     /tmp/cce1PgpM.s:215    .text:0000000000000160 .L14
     /tmp/cce1PgpM.s:341    .text:0000000000000234 .L17
     /tmp/cce1PgpM.s:320    .text:0000000000000200 .L21
     /tmp/cce1PgpM.s:407    .text:00000000000002cc .L19
     /tmp/cce1PgpM.s:386    .text:0000000000000298 .L22
     /tmp/cce1PgpM.s:1313   .debug_abbrev:0000000000000000 .Ldebug_abbrev0
     /tmp/cce1PgpM.s:2285   .debug_str:0000000000000315 .LASF53
     /tmp/cce1PgpM.s:2197   .debug_str:00000000000000aa .LASF54
     /tmp/cce1PgpM.s:2193   .debug_str:000000000000007f .LASF55
     /tmp/cce1PgpM.s:5      .text:0000000000000000 .Ltext0
     /tmp/cce1PgpM.s:448    .text:0000000000000308 .Letext0
     /tmp/cce1PgpM.s:2171   .debug_line:0000000000000000 .Ldebug_line0
     /tmp/cce1PgpM.s:2245   .debug_str:00000000000001e7 .LASF0
     /tmp/cce1PgpM.s:2255   .debug_str:000000000000021f .LASF1
     /tmp/cce1PgpM.s:2235   .debug_str:000000000000019a .LASF2
     /tmp/cce1PgpM.s:2209   .debug_str:00000000000000f9 .LASF3
     /tmp/cce1PgpM.s:2221   .debug_str:000000000000013c .LASF4
     /tmp/cce1PgpM.s:2277   .debug_str:00000000000002bd .LASF5
     /tmp/cce1PgpM.s:2187   .debug_str:000000000000004f .LASF6
     /tmp/cce1PgpM.s:2259   .debug_str:0000000000000243 .LASF7
     /tmp/cce1PgpM.s:2243   .debug_str:00000000000001d4 .LASF8
     /tmp/cce1PgpM.s:2295   .debug_str:0000000000000419 .LASF9
     /tmp/cce1PgpM.s:2219   .debug_str:000000000000012e .LASF10
     /tmp/cce1PgpM.s:2263   .debug_str:0000000000000261 .LASF11
     /tmp/cce1PgpM.s:2289   .debug_str:00000000000003e6 .LASF12
     /tmp/cce1PgpM.s:2189   .debug_str:0000000000000056 .LASF13
     /tmp/cce1PgpM.s:2177   .debug_str:0000000000000013 .LASF14
     /tmp/cce1PgpM.s:2195   .debug_str:000000000000009e .LASF15
     /tmp/cce1PgpM.s:2273   .debug_str:00000000000002a1 .LASF16
     /tmp/cce1PgpM.s:2203   .debug_str:00000000000000d8 .LASF17
     /tmp/cce1PgpM.s:2181   .debug_str:000000000000002f .LASF56
     /tmp/cce1PgpM.s:2207   .debug_str:00000000000000f4 .LASF18
     /tmp/cce1PgpM.s:2307   .debug_str:0000000000000475 .LASF20
     /tmp/cce1PgpM.s:2301   .debug_str:0000000000000443 .LASF19
     /tmp/cce1PgpM.s:2185   .debug_str:0000000000000043 .LASF21
GAS LISTING /tmp/cce1PgpM.s 			page 17


     /tmp/cce1PgpM.s:2281   .debug_str:00000000000002e2 .LASF57
     /tmp/cce1PgpM.s:2287   .debug_str:00000000000003d9 .LASF58
     /tmp/cce1PgpM.s:2261   .debug_str:0000000000000256 .LASF38
     /tmp/cce1PgpM.s:2253   .debug_str:0000000000000208 .LASF40
     /tmp/cce1PgpM.s:2237   .debug_str:00000000000001a8 .LASF22
     /tmp/cce1PgpM.s:2271   .debug_str:000000000000028a .LASF23
     /tmp/cce1PgpM.s:2299   .debug_str:0000000000000433 .LASF24
     /tmp/cce1PgpM.s:2283   .debug_str:00000000000002f2 .LASF25
     /tmp/cce1PgpM.s:2269   .debug_str:0000000000000285 .LASF59
     /tmp/cce1PgpM.s:2275   .debug_str:00000000000002b7 .LASF26
     /tmp/cce1PgpM.s:2265   .debug_str:0000000000000270 .LASF28
     /tmp/cce1PgpM.s:2211   .debug_str:00000000000000ff .LASF60
     /tmp/cce1PgpM.s:2247   .debug_str:00000000000001f4 .LASF27
     /tmp/cce1PgpM.s:2279   .debug_str:00000000000002cf .LASF29
     /tmp/cce1PgpM.s:2233   .debug_str:000000000000018c .LASF30
     /tmp/cce1PgpM.s:2191   .debug_str:0000000000000066 .LASF31
     /tmp/cce1PgpM.s:2239   .debug_str:00000000000001b4 .LASF61
     /tmp/cce1PgpM.s:2225   .debug_str:000000000000014c .LASF32
     /tmp/cce1PgpM.s:2249   .debug_str:00000000000001fd .LASF33
     /tmp/cce1PgpM.s:2251   .debug_str:0000000000000203 .LASF34
     /tmp/cce1PgpM.s:2227   .debug_str:0000000000000151 .LASF35
     /tmp/cce1PgpM.s:2223   .debug_str:0000000000000143 .LASF36
     /tmp/cce1PgpM.s:2201   .debug_str:00000000000000ca .LASF62
     /tmp/cce1PgpM.s:2229   .debug_str:0000000000000159 .LASF63
     /tmp/cce1PgpM.s:2231   .debug_str:0000000000000181 .LASF64
     /tmp/cce1PgpM.s:2213   .debug_str:0000000000000107 .LASF37
     /tmp/cce1PgpM.s:2175   .debug_str:0000000000000007 .LASF39
     /tmp/cce1PgpM.s:2303   .debug_str:0000000000000450 .LASF41
     /tmp/cce1PgpM.s:298    .text:00000000000001e0 .LFB40
     /tmp/cce1PgpM.s:446    .text:0000000000000308 .LFE40
     /tmp/cce1PgpM.s:2008   .debug_loc:0000000000000000 .LLST7
     /tmp/cce1PgpM.s:2022   .debug_loc:0000000000000039 .LLST8
     /tmp/cce1PgpM.s:2173   .debug_str:0000000000000000 .LASF42
     /tmp/cce1PgpM.s:2042   .debug_loc:0000000000000096 .LLST9
     /tmp/cce1PgpM.s:417    .text:00000000000002e0 .LBB8
     /tmp/cce1PgpM.s:425    .text:00000000000002e8 .LBE8
     /tmp/cce1PgpM.s:2053   .debug_loc:00000000000000cc .LLST10
     /tmp/cce1PgpM.s:2061   .debug_loc:00000000000000f0 .LLST11
     /tmp/cce1PgpM.s:325    .text:0000000000000210 .LVL41
     /tmp/cce1PgpM.s:330    .text:000000000000021c .LVL42
     /tmp/cce1PgpM.s:335    .text:000000000000022c .LVL43
     /tmp/cce1PgpM.s:350    .text:000000000000024c .LVL46
     /tmp/cce1PgpM.s:361    .text:0000000000000258 .LVL47
     /tmp/cce1PgpM.s:366    .text:0000000000000264 .LVL48
     /tmp/cce1PgpM.s:374    .text:0000000000000278 .LVL51
     /tmp/cce1PgpM.s:379    .text:0000000000000284 .LVL52
     /tmp/cce1PgpM.s:384    .text:0000000000000294 .LVL53
     /tmp/cce1PgpM.s:391    .text:00000000000002a8 .LVL54
     /tmp/cce1PgpM.s:396    .text:00000000000002b4 .LVL55
     /tmp/cce1PgpM.s:401    .text:00000000000002c4 .LVL56
     /tmp/cce1PgpM.s:429    .text:00000000000002f0 .LVL61
     /tmp/cce1PgpM.s:2241   .debug_str:00000000000001c8 .LASF43
     /tmp/cce1PgpM.s:2291   .debug_str:00000000000003f5 .LASF44
     /tmp/cce1PgpM.s:100    .text:0000000000000070 .LFB39
     /tmp/cce1PgpM.s:281    .text:00000000000001e0 .LFE39
     /tmp/cce1PgpM.s:2068   .debug_loc:0000000000000113 .LLST1
     /tmp/cce1PgpM.s:2082   .debug_loc:000000000000014c .LLST2
GAS LISTING /tmp/cce1PgpM.s 			page 18


     /tmp/cce1PgpM.s:2102   .debug_loc:00000000000001a9 .LLST3
     /tmp/cce1PgpM.s:2110   .debug_loc:00000000000001cd .LLST4
     /tmp/cce1PgpM.s:251    .text:00000000000001b8 .LBB6
     /tmp/cce1PgpM.s:260    .text:00000000000001c0 .LBE6
     /tmp/cce1PgpM.s:2121   .debug_loc:0000000000000203 .LLST5
     /tmp/cce1PgpM.s:2129   .debug_loc:0000000000000227 .LLST6
     /tmp/cce1PgpM.s:119    .text:0000000000000090 .LVL8
     /tmp/cce1PgpM.s:130    .text:00000000000000a8 .LVL10
     /tmp/cce1PgpM.s:135    .text:00000000000000b4 .LVL11
     /tmp/cce1PgpM.s:140    .text:00000000000000c4 .LVL12
     /tmp/cce1PgpM.s:155    .text:00000000000000e4 .LVL15
     /tmp/cce1PgpM.s:166    .text:00000000000000f0 .LVL16
     /tmp/cce1PgpM.s:180    .text:0000000000000104 .LVL18
     /tmp/cce1PgpM.s:185    .text:0000000000000110 .LVL19
     /tmp/cce1PgpM.s:190    .text:0000000000000120 .LVL20
     /tmp/cce1PgpM.s:195    .text:000000000000012c .LVL21
     /tmp/cce1PgpM.s:203    .text:0000000000000140 .LVL24
     /tmp/cce1PgpM.s:208    .text:000000000000014c .LVL25
     /tmp/cce1PgpM.s:213    .text:000000000000015c .LVL26
     /tmp/cce1PgpM.s:220    .text:0000000000000170 .LVL27
     /tmp/cce1PgpM.s:225    .text:000000000000017c .LVL28
     /tmp/cce1PgpM.s:230    .text:000000000000018c .LVL29
     /tmp/cce1PgpM.s:245    .text:00000000000001ac .LVL32
     /tmp/cce1PgpM.s:264    .text:00000000000001c8 .LVL35
     /tmp/cce1PgpM.s:2297   .debug_str:0000000000000429 .LASF65
     /tmp/cce1PgpM.s:9      .text:0000000000000000 .LFB38
     /tmp/cce1PgpM.s:74     .text:0000000000000070 .LFE38
     /tmp/cce1PgpM.s:2136   .debug_loc:000000000000024a .LLST0
     /tmp/cce1PgpM.s:41     .text:0000000000000038 .LVL2
     /tmp/cce1PgpM.s:46     .text:0000000000000048 .LVL3
     /tmp/cce1PgpM.s:71     .text:000000000000006c .LVL6
     /tmp/cce1PgpM.s:2267   .debug_str:0000000000000280 .LASF66
     /tmp/cce1PgpM.s:2205   .debug_str:00000000000000ee .LASF67
     /tmp/cce1PgpM.s:2305   .debug_str:0000000000000462 .LASF45
     /tmp/cce1PgpM.s:2179   .debug_str:0000000000000023 .LASF47
     /tmp/cce1PgpM.s:2293   .debug_str:0000000000000407 .LASF46
     /tmp/cce1PgpM.s:2217   .debug_str:0000000000000121 .LASF48
     /tmp/cce1PgpM.s:2215   .debug_str:000000000000010c .LASF49
     /tmp/cce1PgpM.s:2199   .debug_str:00000000000000ba .LASF50
     /tmp/cce1PgpM.s:2257   .debug_str:0000000000000232 .LASF51
     /tmp/cce1PgpM.s:2183   .debug_str:0000000000000037 .LASF52
     /tmp/cce1PgpM.s:301    .text:00000000000001e0 .LVL38
     /tmp/cce1PgpM.s:319    .text:0000000000000200 .LVL40
     /tmp/cce1PgpM.s:315    .text:00000000000001f8 .LVL39
     /tmp/cce1PgpM.s:338    .text:0000000000000230 .LVL44
     /tmp/cce1PgpM.s:340    .text:0000000000000234 .LVL45
     /tmp/cce1PgpM.s:404    .text:00000000000002c8 .LVL57
     /tmp/cce1PgpM.s:406    .text:00000000000002cc .LVL58
     /tmp/cce1PgpM.s:438    .text:00000000000002fc .LVL62
     /tmp/cce1PgpM.s:368    .text:0000000000000268 .LVL49
     /tmp/cce1PgpM.s:372    .text:0000000000000270 .LVL50
     /tmp/cce1PgpM.s:441    .text:0000000000000300 .LVL63
     /tmp/cce1PgpM.s:416    .text:00000000000002e0 .LVL59
     /tmp/cce1PgpM.s:423    .text:00000000000002e8 .LVL60
     /tmp/cce1PgpM.s:103    .text:0000000000000070 .LVL7
     /tmp/cce1PgpM.s:124    .text:0000000000000098 .LVL9
     /tmp/cce1PgpM.s:143    .text:00000000000000c8 .LVL13
GAS LISTING /tmp/cce1PgpM.s 			page 19


     /tmp/cce1PgpM.s:145    .text:00000000000000cc .LVL14
     /tmp/cce1PgpM.s:233    .text:0000000000000190 .LVL30
     /tmp/cce1PgpM.s:235    .text:0000000000000194 .LVL31
     /tmp/cce1PgpM.s:273    .text:00000000000001d4 .LVL36
     /tmp/cce1PgpM.s:174    .text:00000000000000f4 .LVL17
     /tmp/cce1PgpM.s:197    .text:0000000000000130 .LVL22
     /tmp/cce1PgpM.s:201    .text:0000000000000138 .LVL23
     /tmp/cce1PgpM.s:276    .text:00000000000001d8 .LVL37
     /tmp/cce1PgpM.s:250    .text:00000000000001b8 .LVL33
     /tmp/cce1PgpM.s:258    .text:00000000000001c0 .LVL34
     /tmp/cce1PgpM.s:13     .text:0000000000000000 .LVL0
     /tmp/cce1PgpM.s:35     .text:000000000000002c .LVL1
     /tmp/cce1PgpM.s:59     .text:0000000000000058 .LVL4
     /tmp/cce1PgpM.s:65     .text:0000000000000064 .LVL5
     /tmp/cce1PgpM.s:453    .debug_info:0000000000000000 .Ldebug_info0

UNDEFINED SYMBOLS
_Z15thread_dispatchv
_Z11thread_exitv
_Z11printStringPKc
_Z12printIntegerm
_ZN3CCB7runningE
