GAS LISTING /tmp/cc2H95HL.s 			page 1


   1              		.file	"workers.cpp"
   2              		.option pic
   3              		.option norelax
   4              		.text
   5              	.Ltext0:
   6              		.align	2
   8              	_ZL9fibonaccim:
   9              	.LFB38:
  10              		.file 1 "src/workers.cpp"
   1:src/workers.cpp **** //
   2:src/workers.cpp **** // Created by marko on 20.4.22..
   3:src/workers.cpp **** //
   4:src/workers.cpp **** 
   5:src/workers.cpp **** #include "../lib/hw.h"
   6:src/workers.cpp **** #include "../h/ccb.hpp"
   7:src/workers.cpp **** #include "../h/print.hpp"
   8:src/workers.cpp **** 
   9:src/workers.cpp **** static uint64 fibonacci(uint64 n)
  10:src/workers.cpp **** {
  11              		.loc 1 10 1
  12              		.cfi_startproc
  13              	.LVL0:
  14 0000 130101FE 		addi	sp,sp,-32
  15              		.cfi_def_cfa_offset 32
  16 0004 233C1100 		sd	ra,24(sp)
  17 0008 23388100 		sd	s0,16(sp)
  18 000c 23349100 		sd	s1,8(sp)
  19 0010 23302101 		sd	s2,0(sp)
  20              		.cfi_offset 1, -8
  21              		.cfi_offset 8, -16
  22              		.cfi_offset 9, -24
  23              		.cfi_offset 18, -32
  24 0014 13040102 		addi	s0,sp,32
  25              		.cfi_def_cfa 8, 0
  26 0018 93040500 		mv	s1,a0
  11:src/workers.cpp ****     if (n == 0 || n == 1) { return n; }
  27              		.loc 1 11 5
  28 001c 93071000 		li	a5,1
  29 0020 63F6A702 		bleu	a0,a5,.L1
  12:src/workers.cpp ****     if (n % 4 == 0) thread_dispatch();
  30              		.loc 1 12 5
  31              		.loc 1 12 11 is_stmt 0
  32 0024 93773500 		andi	a5,a0,3
  33              		.loc 1 12 5
  34 0028 638E0702 		beqz	a5,.L6
  35              	.LVL1:
  36              	.L3:
  13:src/workers.cpp ****     return fibonacci(n - 1) + fibonacci(n - 2);
  37              		.loc 1 13 5 is_stmt 1
  38              		.loc 1 13 21 is_stmt 0
  39 002c 1385F4FF 		addi	a0,s1,-1
  40 0030 97000000 		call	_ZL9fibonaccim
  40      E7800000 
  41              	.LVL2:
  42 0038 13090500 		mv	s2,a0
  43              		.loc 1 13 40
  44 003c 1385E4FF 		addi	a0,s1,-2
GAS LISTING /tmp/cc2H95HL.s 			page 2


  45 0040 97000000 		call	_ZL9fibonaccim
  45      E7800000 
  46              	.LVL3:
  47              		.loc 1 13 46
  48 0048 3305A900 		add	a0,s2,a0
  49              	.L1:
  14:src/workers.cpp **** }
  50              		.loc 1 14 1
  51 004c 83308101 		ld	ra,24(sp)
  52              		.cfi_remember_state
  53              		.cfi_restore 1
  54 0050 03340101 		ld	s0,16(sp)
  55              		.cfi_restore 8
  56              		.cfi_def_cfa 2, 32
  57 0054 83348100 		ld	s1,8(sp)
  58              		.cfi_restore 9
  59              	.LVL4:
  60 0058 03390100 		ld	s2,0(sp)
  61              		.cfi_restore 18
  62 005c 13010102 		addi	sp,sp,32
  63              		.cfi_def_cfa_offset 0
  64 0060 67800000 		jr	ra
  65              	.LVL5:
  66              	.L6:
  67              		.cfi_restore_state
  12:src/workers.cpp ****     if (n % 4 == 0) thread_dispatch();
  68              		.loc 1 12 21 is_stmt 1 discriminator 1
  12:src/workers.cpp ****     if (n % 4 == 0) thread_dispatch();
  69              		.loc 1 12 36 is_stmt 0 discriminator 1
  70 0064 97000000 		call	_Z15thread_dispatchv@plt
  70      E7800000 
  71              	.LVL6:
  72 006c 6FF01FFC 		j	.L3
  73              		.cfi_endproc
  74              	.LFE38:
  76              		.section	.rodata.str1.8,"aMS",@progbits,1
  77              		.align	3
  78              	.LC0:
  79 0000 413A2069 		.string	"A: i="
  79      3D00
  80 0006 0000     		.align	3
  81              	.LC1:
  82 0008 0A00     		.string	"\n"
  83 000a 00000000 		.align	3
  83      0000
  84              	.LC2:
  85 0010 413A2079 		.string	"A: yield\n"
  85      69656C64 
  85      0A00
  86 001a 00000000 		.align	3
  86      0000
  87              	.LC3:
  88 0020 413A2074 		.string	"A: t1="
  88      313D00
  89 0027 00       		.align	3
  90              	.LC4:
  91 0028 413A2066 		.string	"A: fibonaci="
GAS LISTING /tmp/cc2H95HL.s 			page 3


  91      69626F6E 
  91      6163693D 
  91      00
  92 0035 000000   		.align	3
  93              	.LC5:
  94 0038 413A2020 		.string	"A:    F I N I S H E D"
  94      20204620 
  94      49204E20 
  94      49205320 
  94      48204520 
  95              		.text
  96              		.align	2
  97              		.globl	_Z11workerBodyAv
  99              	_Z11workerBodyAv:
 100              	.LFB39:
  15:src/workers.cpp **** 
  16:src/workers.cpp **** void workerBodyA()
  17:src/workers.cpp **** {
 101              		.loc 1 17 1 is_stmt 1
 102              		.cfi_startproc
 103 0070 130101FE 		addi	sp,sp,-32
 104              		.cfi_def_cfa_offset 32
 105 0074 233C1100 		sd	ra,24(sp)
 106 0078 23388100 		sd	s0,16(sp)
 107 007c 23349100 		sd	s1,8(sp)
 108 0080 23302101 		sd	s2,0(sp)
 109              		.cfi_offset 1, -8
 110              		.cfi_offset 8, -16
 111              		.cfi_offset 9, -24
 112              		.cfi_offset 18, -32
 113 0084 13040102 		addi	s0,sp,32
 114              		.cfi_def_cfa 8, 0
  18:src/workers.cpp ****     uint8 i = 0;
 115              		.loc 1 18 5
 116              	.LVL7:
 117              		.loc 1 18 11 is_stmt 0
 118 0088 93040000 		li	s1,0
 119 008c 6F008003 		j	.L9
 120              	.LVL8:
 121              	.L13:
  19:src/workers.cpp ****     for (; i < 3; i++)
  20:src/workers.cpp ****     {
  21:src/workers.cpp ****         printString("A: i=");
 122              		.loc 1 21 9 is_stmt 1 discriminator 1
 123              		.loc 1 21 20 is_stmt 0 discriminator 1
 124 0090 17050000 		lla	a0,.LC0
 124      13050500 
 125 0098 97000000 		call	_Z11printStringPKc@plt
 125      E7800000 
 126              	.LVL9:
  22:src/workers.cpp ****         printInteger(i);
 127              		.loc 1 22 9 is_stmt 1 discriminator 1
 128              		.loc 1 22 21 is_stmt 0 discriminator 1
 129 00a0 13850400 		mv	a0,s1
 130 00a4 97000000 		call	_Z12printIntegerm@plt
 130      E7800000 
 131              	.LVL10:
GAS LISTING /tmp/cc2H95HL.s 			page 4


  23:src/workers.cpp ****         printString("\n");
 132              		.loc 1 23 9 is_stmt 1 discriminator 1
 133              		.loc 1 23 20 is_stmt 0 discriminator 1
 134 00ac 17050000 		lla	a0,.LC1
 134      13050500 
 135 00b4 97000000 		call	_Z11printStringPKc@plt
 135      E7800000 
 136              	.LVL11:
  19:src/workers.cpp ****     for (; i < 3; i++)
 137              		.loc 1 19 5 is_stmt 1 discriminator 1
 138 00bc 9B841400 		addiw	s1,s1,1
 139              	.LVL12:
 140 00c0 93F4F40F 		andi	s1,s1,0xff
 141              	.LVL13:
 142              	.L9:
  19:src/workers.cpp ****     for (; i < 3; i++)
 143              		.loc 1 19 5 discriminator 2
  19:src/workers.cpp ****     for (; i < 3; i++)
 144              		.loc 1 19 14 discriminator 2
 145 00c4 93072000 		li	a5,2
 146 00c8 E3F497FC 		bleu	s1,a5,.L13
  24:src/workers.cpp ****     }
  25:src/workers.cpp **** 
  26:src/workers.cpp ****     printString("A: yield\n");
 147              		.loc 1 26 5
 148              		.loc 1 26 16 is_stmt 0
 149 00cc 17050000 		lla	a0,.LC2
 149      13050500 
 150 00d4 97000000 		call	_Z11printStringPKc@plt
 150      E7800000 
 151              	.LVL14:
  27:src/workers.cpp ****     __asm__ ("li t1, 7");
 152              		.loc 1 27 5 is_stmt 1
 153              		.loc 1 27 25 is_stmt 0
 154              	#APP
 155              	# 27 "src/workers.cpp" 1
  28              	    thread_dispatch();
 156              		li t1, 7
 157              	# 0 "" 2
 158              		.loc 1 28 5 is_stmt 1
 159              		.loc 1 28 20 is_stmt 0
 160              	#NO_APP
 161 00e0 97000000 		call	_Z15thread_dispatchv@plt
 161      E7800000 
 162              	.LVL15:
  29:src/workers.cpp **** 
  30:src/workers.cpp ****     uint64 t1 = 0;
 163              		.loc 1 30 5 is_stmt 1
  31:src/workers.cpp ****     __asm__ ("mv %[t1], t1" : [t1] "=r"(t1));
 164              		.loc 1 31 5
 165              		.loc 1 31 45 is_stmt 0
 166              	#APP
 167              	# 31 "src/workers.cpp" 1
  32              	
 168              		mv s2, t1
 169              	# 0 "" 2
 170              	.LVL16:
GAS LISTING /tmp/cc2H95HL.s 			page 5


  33:src/workers.cpp ****     printString("A: t1=");
 171              		.loc 1 33 5 is_stmt 1
 172              		.loc 1 33 16 is_stmt 0
 173              	#NO_APP
 174 00ec 17050000 		lla	a0,.LC3
 174      13050500 
 175 00f4 97000000 		call	_Z11printStringPKc@plt
 175      E7800000 
 176              	.LVL17:
  34:src/workers.cpp ****     printInteger(t1);
 177              		.loc 1 34 5 is_stmt 1
 178              		.loc 1 34 17 is_stmt 0
 179 00fc 13050900 		mv	a0,s2
 180 0100 97000000 		call	_Z12printIntegerm@plt
 180      E7800000 
 181              	.LVL18:
  35:src/workers.cpp ****     printString("\n");
 182              		.loc 1 35 5 is_stmt 1
 183              		.loc 1 35 16 is_stmt 0
 184 0108 17050000 		lla	a0,.LC1
 184      13050500 
 185 0110 97000000 		call	_Z11printStringPKc@plt
 185      E7800000 
 186              	.LVL19:
  36:src/workers.cpp **** 
  37:src/workers.cpp ****     uint64 result = fibonacci(20);
 187              		.loc 1 37 5 is_stmt 1
 188              		.loc 1 37 30 is_stmt 0
 189 0118 13054001 		li	a0,20
 190 011c 97000000 		call	_ZL9fibonaccim
 190      E7800000 
 191              	.LVL20:
 192 0124 13090500 		mv	s2,a0
 193              	.LVL21:
  38:src/workers.cpp ****     printString("A: fibonaci=");
 194              		.loc 1 38 5 is_stmt 1
 195              		.loc 1 38 16 is_stmt 0
 196 0128 17050000 		lla	a0,.LC4
 196      13050500 
 197              	.LVL22:
 198 0130 97000000 		call	_Z11printStringPKc@plt
 198      E7800000 
 199              	.LVL23:
  39:src/workers.cpp ****     printInteger(result);
 200              		.loc 1 39 5 is_stmt 1
 201              		.loc 1 39 17 is_stmt 0
 202 0138 13050900 		mv	a0,s2
 203 013c 97000000 		call	_Z12printIntegerm@plt
 203      E7800000 
 204              	.LVL24:
  40:src/workers.cpp ****     printString("\n");
 205              		.loc 1 40 5 is_stmt 1
 206              		.loc 1 40 16 is_stmt 0
 207 0144 17050000 		lla	a0,.LC1
 207      13050500 
 208 014c 97000000 		call	_Z11printStringPKc@plt
 208      E7800000 
GAS LISTING /tmp/cc2H95HL.s 			page 6


 209              	.LVL25:
 210 0154 6F008003 		j	.L11
 211              	.L14:
  41:src/workers.cpp **** 
  42:src/workers.cpp ****     for (; i < 6; i++)
  43:src/workers.cpp ****     {
  44:src/workers.cpp ****         printString("A: i=");
 212              		.loc 1 44 9 is_stmt 1 discriminator 1
 213              		.loc 1 44 20 is_stmt 0 discriminator 1
 214 0158 17050000 		lla	a0,.LC0
 214      13050500 
 215 0160 97000000 		call	_Z11printStringPKc@plt
 215      E7800000 
 216              	.LVL26:
  45:src/workers.cpp ****         printInteger(i);
 217              		.loc 1 45 9 is_stmt 1 discriminator 1
 218              		.loc 1 45 21 is_stmt 0 discriminator 1
 219 0168 13850400 		mv	a0,s1
 220 016c 97000000 		call	_Z12printIntegerm@plt
 220      E7800000 
 221              	.LVL27:
  46:src/workers.cpp ****         printString("\n");
 222              		.loc 1 46 9 is_stmt 1 discriminator 1
 223              		.loc 1 46 20 is_stmt 0 discriminator 1
 224 0174 17050000 		lla	a0,.LC1
 224      13050500 
 225 017c 97000000 		call	_Z11printStringPKc@plt
 225      E7800000 
 226              	.LVL28:
  42:src/workers.cpp ****     {
 227              		.loc 1 42 5 is_stmt 1 discriminator 1
 228 0184 9B841400 		addiw	s1,s1,1
 229              	.LVL29:
 230 0188 93F4F40F 		andi	s1,s1,0xff
 231              	.LVL30:
 232              	.L11:
  42:src/workers.cpp ****     {
 233              		.loc 1 42 5 discriminator 2
  42:src/workers.cpp ****     {
 234              		.loc 1 42 14 discriminator 2
 235 018c 93075000 		li	a5,5
 236 0190 E3F497FC 		bleu	s1,a5,.L14
  47:src/workers.cpp ****     }
  48:src/workers.cpp ****     printString("A:    F I N I S H E D");
 237              		.loc 1 48 5
 238              		.loc 1 48 16 is_stmt 0
 239 0194 17050000 		lla	a0,.LC5
 239      13050500 
 240 019c 97000000 		call	_Z11printStringPKc@plt
 240      E7800000 
 241              	.LVL31:
  49:src/workers.cpp ****     CCB::running->setFinished(true);
 242              		.loc 1 49 5 is_stmt 1
 243              		.loc 1 49 30 is_stmt 0
 244 01a4 97070000 		la	a5,_ZN3CCB7runningE
 244      83B70700 
 245 01ac 83B70700 		ld	a5,0(a5)
GAS LISTING /tmp/cc2H95HL.s 			page 7


 246              	.LVL32:
 247              	.LBB6:
 248              	.LBB7:
 249              		.file 2 "src/../h/ccb.hpp"
   1:src/../h/ccb.hpp **** //
   2:src/../h/ccb.hpp **** // Created by os on 6/24/22.
   3:src/../h/ccb.hpp **** //
   4:src/../h/ccb.hpp **** 
   5:src/../h/ccb.hpp **** #ifndef PROJECT_V33333333333_CCB_HPP
   6:src/../h/ccb.hpp **** #define PROJECT_V33333333333_CCB_HPP
   7:src/../h/ccb.hpp **** #include "../lib/hw.h"
   8:src/../h/ccb.hpp **** #include "Scheduler.hpp"
   9:src/../h/ccb.hpp **** #include "syscall_c.h"
  10:src/../h/ccb.hpp **** #include "MemoryAllocator.hpp"
  11:src/../h/ccb.hpp **** #include "Riscv.hpp"
  12:src/../h/ccb.hpp **** 
  13:src/../h/ccb.hpp **** // Coroutine Control Block
  14:src/../h/ccb.hpp **** class CCB
  15:src/../h/ccb.hpp **** {
  16:src/../h/ccb.hpp **** public:
  17:src/../h/ccb.hpp ****     ~CCB() { delete[] stack; }
  18:src/../h/ccb.hpp **** 
  19:src/../h/ccb.hpp ****     void* operator new(size_t size) {
  20:src/../h/ccb.hpp ****         return MemoryAllocator::allocateB(size);
  21:src/../h/ccb.hpp ****     }
  22:src/../h/ccb.hpp **** 
  23:src/../h/ccb.hpp ****     void operator delete(void* address) {
  24:src/../h/ccb.hpp ****         MemoryAllocator::free(address);
  25:src/../h/ccb.hpp ****     }
  26:src/../h/ccb.hpp **** 
  27:src/../h/ccb.hpp ****     bool isFinished() const { return finished; }
  28:src/../h/ccb.hpp **** 
  29:src/../h/ccb.hpp ****     void setFinished(bool value) { finished = value;}
 250              		.loc 2 29 36 is_stmt 1
 251              		.loc 2 29 45 is_stmt 0
 252 01b0 13071000 		li	a4,1
 253 01b4 2380E702 		sb	a4,32(a5)
 254              	.LVL33:
 255              	.LBE7:
 256              	.LBE6:
  50:src/workers.cpp ****     thread_dispatch();
 257              		.loc 1 50 5 is_stmt 1
 258              		.loc 1 50 20 is_stmt 0
 259 01b8 97000000 		call	_Z15thread_dispatchv@plt
 259      E7800000 
 260              	.LVL34:
  51:src/workers.cpp **** }
 261              		.loc 1 51 1
 262 01c0 83308101 		ld	ra,24(sp)
 263              		.cfi_restore 1
 264 01c4 03340101 		ld	s0,16(sp)
 265              		.cfi_restore 8
 266              		.cfi_def_cfa 2, 32
 267 01c8 83348100 		ld	s1,8(sp)
 268              		.cfi_restore 9
 269              	.LVL35:
 270 01cc 03390100 		ld	s2,0(sp)
GAS LISTING /tmp/cc2H95HL.s 			page 8


 271              		.cfi_restore 18
 272              	.LVL36:
 273 01d0 13010102 		addi	sp,sp,32
 274              		.cfi_def_cfa_offset 0
 275 01d4 67800000 		jr	ra
 276              		.cfi_endproc
 277              	.LFE39:
 279              		.section	.rodata.str1.8
 280 004e 0000     		.align	3
 281              	.LC6:
 282 0050 423A2069 		.string	"B: i="
 282      3D00
 283 0056 0000     		.align	3
 284              	.LC7:
 285 0058 423A2079 		.string	"B: yield\n"
 285      69656C64 
 285      0A00
 286 0062 00000000 		.align	3
 286      0000
 287              	.LC8:
 288 0068 423A2066 		.string	"B: fibonaci="
 288      69626F6E 
 288      6163693D 
 288      00
 289              		.text
 290              		.align	2
 291              		.globl	_Z11workerBodyBv
 293              	_Z11workerBodyBv:
 294              	.LFB40:
  52:src/workers.cpp **** 
  53:src/workers.cpp **** void workerBodyB()
  54:src/workers.cpp **** {
 295              		.loc 1 54 1 is_stmt 1
 296              		.cfi_startproc
 297 01d8 130101FE 		addi	sp,sp,-32
 298              		.cfi_def_cfa_offset 32
 299 01dc 233C1100 		sd	ra,24(sp)
 300 01e0 23388100 		sd	s0,16(sp)
 301 01e4 23349100 		sd	s1,8(sp)
 302 01e8 23302101 		sd	s2,0(sp)
 303              		.cfi_offset 1, -8
 304              		.cfi_offset 8, -16
 305              		.cfi_offset 9, -24
 306              		.cfi_offset 18, -32
 307 01ec 13040102 		addi	s0,sp,32
 308              		.cfi_def_cfa 8, 0
  55:src/workers.cpp ****     uint8 i = 10;
 309              		.loc 1 55 5
 310              	.LVL37:
 311              		.loc 1 55 11 is_stmt 0
 312 01f0 9304A000 		li	s1,10
 313 01f4 6F008003 		j	.L17
 314              	.LVL38:
 315              	.L21:
  56:src/workers.cpp ****     for (; i < 13; i++)
  57:src/workers.cpp ****     {
  58:src/workers.cpp ****         printString("B: i=");
GAS LISTING /tmp/cc2H95HL.s 			page 9


 316              		.loc 1 58 9 is_stmt 1 discriminator 1
 317              		.loc 1 58 20 is_stmt 0 discriminator 1
 318 01f8 17050000 		lla	a0,.LC6
 318      13050500 
 319 0200 97000000 		call	_Z11printStringPKc@plt
 319      E7800000 
 320              	.LVL39:
  59:src/workers.cpp ****         printInteger(i);
 321              		.loc 1 59 9 is_stmt 1 discriminator 1
 322              		.loc 1 59 21 is_stmt 0 discriminator 1
 323 0208 13850400 		mv	a0,s1
 324 020c 97000000 		call	_Z12printIntegerm@plt
 324      E7800000 
 325              	.LVL40:
  60:src/workers.cpp ****         printString("\n");
 326              		.loc 1 60 9 is_stmt 1 discriminator 1
 327              		.loc 1 60 20 is_stmt 0 discriminator 1
 328 0214 17050000 		lla	a0,.LC1
 328      13050500 
 329 021c 97000000 		call	_Z11printStringPKc@plt
 329      E7800000 
 330              	.LVL41:
  56:src/workers.cpp ****     for (; i < 13; i++)
 331              		.loc 1 56 5 is_stmt 1 discriminator 1
 332 0224 9B841400 		addiw	s1,s1,1
 333              	.LVL42:
 334 0228 93F4F40F 		andi	s1,s1,0xff
 335              	.LVL43:
 336              	.L17:
  56:src/workers.cpp ****     for (; i < 13; i++)
 337              		.loc 1 56 5 discriminator 2
  56:src/workers.cpp ****     for (; i < 13; i++)
 338              		.loc 1 56 14 discriminator 2
 339 022c 9307C000 		li	a5,12
 340 0230 E3F497FC 		bleu	s1,a5,.L21
  61:src/workers.cpp ****     }
  62:src/workers.cpp **** 
  63:src/workers.cpp ****     printString("B: yield\n");
 341              		.loc 1 63 5
 342              		.loc 1 63 16 is_stmt 0
 343 0234 17050000 		lla	a0,.LC7
 343      13050500 
 344 023c 97000000 		call	_Z11printStringPKc@plt
 344      E7800000 
 345              	.LVL44:
  64:src/workers.cpp ****     __asm__ ("li t1, 5");
 346              		.loc 1 64 5 is_stmt 1
 347              		.loc 1 64 25 is_stmt 0
 348              	#APP
 349              	# 64 "src/workers.cpp" 1
  65              	    thread_dispatch();
 350              		li t1, 5
 351              	# 0 "" 2
 352              		.loc 1 65 5 is_stmt 1
 353              		.loc 1 65 20 is_stmt 0
 354              	#NO_APP
 355 0248 97000000 		call	_Z15thread_dispatchv@plt
GAS LISTING /tmp/cc2H95HL.s 			page 10


 355      E7800000 
 356              	.LVL45:
  66:src/workers.cpp **** 
  67:src/workers.cpp ****     uint64 result = fibonacci(23);
 357              		.loc 1 67 5 is_stmt 1
 358              		.loc 1 67 30 is_stmt 0
 359 0250 13057001 		li	a0,23
 360 0254 97000000 		call	_ZL9fibonaccim
 360      E7800000 
 361              	.LVL46:
 362 025c 13090500 		mv	s2,a0
 363              	.LVL47:
  68:src/workers.cpp ****     printString("B: fibonaci=");
 364              		.loc 1 68 5 is_stmt 1
 365              		.loc 1 68 16 is_stmt 0
 366 0260 17050000 		lla	a0,.LC8
 366      13050500 
 367              	.LVL48:
 368 0268 97000000 		call	_Z11printStringPKc@plt
 368      E7800000 
 369              	.LVL49:
  69:src/workers.cpp ****     printInteger(result);
 370              		.loc 1 69 5 is_stmt 1
 371              		.loc 1 69 17 is_stmt 0
 372 0270 13050900 		mv	a0,s2
 373 0274 97000000 		call	_Z12printIntegerm@plt
 373      E7800000 
 374              	.LVL50:
  70:src/workers.cpp ****     printString("\n");
 375              		.loc 1 70 5 is_stmt 1
 376              		.loc 1 70 16 is_stmt 0
 377 027c 17050000 		lla	a0,.LC1
 377      13050500 
 378 0284 97000000 		call	_Z11printStringPKc@plt
 378      E7800000 
 379              	.LVL51:
 380 028c 6F008003 		j	.L19
 381              	.L22:
  71:src/workers.cpp **** 
  72:src/workers.cpp ****     for (; i < 16; i++)
  73:src/workers.cpp ****     {
  74:src/workers.cpp ****         printString("B: i=");
 382              		.loc 1 74 9 is_stmt 1 discriminator 1
 383              		.loc 1 74 20 is_stmt 0 discriminator 1
 384 0290 17050000 		lla	a0,.LC6
 384      13050500 
 385 0298 97000000 		call	_Z11printStringPKc@plt
 385      E7800000 
 386              	.LVL52:
  75:src/workers.cpp ****         printInteger(i);
 387              		.loc 1 75 9 is_stmt 1 discriminator 1
 388              		.loc 1 75 21 is_stmt 0 discriminator 1
 389 02a0 13850400 		mv	a0,s1
 390 02a4 97000000 		call	_Z12printIntegerm@plt
 390      E7800000 
 391              	.LVL53:
  76:src/workers.cpp ****         printString("\n");
GAS LISTING /tmp/cc2H95HL.s 			page 11


 392              		.loc 1 76 9 is_stmt 1 discriminator 1
 393              		.loc 1 76 20 is_stmt 0 discriminator 1
 394 02ac 17050000 		lla	a0,.LC1
 394      13050500 
 395 02b4 97000000 		call	_Z11printStringPKc@plt
 395      E7800000 
 396              	.LVL54:
  72:src/workers.cpp ****     {
 397              		.loc 1 72 5 is_stmt 1 discriminator 1
 398 02bc 9B841400 		addiw	s1,s1,1
 399              	.LVL55:
 400 02c0 93F4F40F 		andi	s1,s1,0xff
 401              	.LVL56:
 402              	.L19:
  72:src/workers.cpp ****     {
 403              		.loc 1 72 5 discriminator 2
  72:src/workers.cpp ****     {
 404              		.loc 1 72 14 discriminator 2
 405 02c4 9307F000 		li	a5,15
 406 02c8 E3F497FC 		bleu	s1,a5,.L22
  77:src/workers.cpp ****     }
  78:src/workers.cpp **** 
  79:src/workers.cpp ****     CCB::running->setFinished(true);
 407              		.loc 1 79 5
 408              		.loc 1 79 30 is_stmt 0
 409 02cc 97070000 		la	a5,_ZN3CCB7runningE
 409      83B70700 
 410 02d4 83B70700 		ld	a5,0(a5)
 411              	.LVL57:
 412              	.LBB8:
 413              	.LBB9:
 414              		.loc 2 29 36 is_stmt 1
 415              		.loc 2 29 45 is_stmt 0
 416 02d8 13071000 		li	a4,1
 417 02dc 2380E702 		sb	a4,32(a5)
 418              	.LVL58:
 419              	.LBE9:
 420              	.LBE8:
  80:src/workers.cpp ****     thread_dispatch();
 421              		.loc 1 80 5 is_stmt 1
 422              		.loc 1 80 20 is_stmt 0
 423 02e0 97000000 		call	_Z15thread_dispatchv@plt
 423      E7800000 
 424              	.LVL59:
  81:src/workers.cpp **** }...
 425              		.loc 1 81 1
 426 02e8 83308101 		ld	ra,24(sp)
 427              		.cfi_restore 1
 428 02ec 03340101 		ld	s0,16(sp)
 429              		.cfi_restore 8
 430              		.cfi_def_cfa 2, 32
 431 02f0 83348100 		ld	s1,8(sp)
 432              		.cfi_restore 9
 433              	.LVL60:
 434 02f4 03390100 		ld	s2,0(sp)
 435              		.cfi_restore 18
 436              	.LVL61:
GAS LISTING /tmp/cc2H95HL.s 			page 12


 437 02f8 13010102 		addi	sp,sp,32
 438              		.cfi_def_cfa_offset 0
 439 02fc 67800000 		jr	ra
 440              		.cfi_endproc
 441              	.LFE40:
 443              	.Letext0:
 444              		.file 3 "src/../lib/hw.h"
 445              		.file 4 "src/../h/print.hpp"
 446              		.file 5 "src/../h/syscall_c.h"
GAS LISTING /tmp/cc2H95HL.s 			page 13

