GAS LISTING /tmp/cc2H95HL.s 			page 1


   1              		.file	"workers.cpp"
   2              		.option pic
   3              		.option norelax
   4              		.text
   5              	.Ltext0:
   6              		.align	2
   8              	_ZL9fibonaccim:
   9              	.LFB38:
  10              		.file 1 "src/workers.cpp"
   1:src/workers.cpp **** //
   2:src/workers.cpp **** // Created by marko on 20.4.22..
   3:src/workers.cpp **** //
   4:src/workers.cpp **** 
   5:src/workers.cpp **** #include "../lib/hw.h"
   6:src/workers.cpp **** #include "../h/ccb.hpp"
   7:src/workers.cpp **** #include "../h/print.hpp"
   8:src/workers.cpp **** 
   9:src/workers.cpp **** static uint64 fibonacci(uint64 n)
  10:src/workers.cpp **** {
  11              		.loc 1 10 1
  12              		.cfi_startproc
  13              	.LVL0:
  14 0000 130101FE 		addi	sp,sp,-32
  15              		.cfi_def_cfa_offset 32
  16 0004 233C1100 		sd	ra,24(sp)
  17 0008 23388100 		sd	s0,16(sp)
  18 000c 23349100 		sd	s1,8(sp)
  19 0010 23302101 		sd	s2,0(sp)
  20              		.cfi_offset 1, -8
  21              		.cfi_offset 8, -16
  22              		.cfi_offset 9, -24
  23              		.cfi_offset 18, -32
  24 0014 13040102 		addi	s0,sp,32
  25              		.cfi_def_cfa 8, 0
  26 0018 93040500 		mv	s1,a0
  11:src/workers.cpp ****     if (n == 0 || n == 1) { return n; }
  27              		.loc 1 11 5
  28 001c 93071000 		li	a5,1
  29 0020 63F6A702 		bleu	a0,a5,.L1
  12:src/workers.cpp ****     if (n % 4 == 0) thread_dispatch();
  30              		.loc 1 12 5
  31              		.loc 1 12 11 is_stmt 0
  32 0024 93773500 		andi	a5,a0,3
  33              		.loc 1 12 5
  34 0028 638E0702 		beqz	a5,.L6
  35              	.LVL1:
  36              	.L3:
  13:src/workers.cpp ****     return fibonacci(n - 1) + fibonacci(n - 2);
  37              		.loc 1 13 5 is_stmt 1
  38              		.loc 1 13 21 is_stmt 0
  39 002c 1385F4FF 		addi	a0,s1,-1
  40 0030 97000000 		call	_ZL9fibonaccim
  40      E7800000 
  41              	.LVL2:
  42 0038 13090500 		mv	s2,a0
  43              		.loc 1 13 40
  44 003c 1385E4FF 		addi	a0,s1,-2
GAS LISTING /tmp/cc2H95HL.s 			page 2


  45 0040 97000000 		call	_ZL9fibonaccim
  45      E7800000 
  46              	.LVL3:
  47              		.loc 1 13 46
  48 0048 3305A900 		add	a0,s2,a0
  49              	.L1:
  14:src/workers.cpp **** }
  50              		.loc 1 14 1
  51 004c 83308101 		ld	ra,24(sp)
  52              		.cfi_remember_state
  53              		.cfi_restore 1
  54 0050 03340101 		ld	s0,16(sp)
  55              		.cfi_restore 8
  56              		.cfi_def_cfa 2, 32
  57 0054 83348100 		ld	s1,8(sp)
  58              		.cfi_restore 9
  59              	.LVL4:
  60 0058 03390100 		ld	s2,0(sp)
  61              		.cfi_restore 18
  62 005c 13010102 		addi	sp,sp,32
  63              		.cfi_def_cfa_offset 0
  64 0060 67800000 		jr	ra
  65              	.LVL5:
  66              	.L6:
  67              		.cfi_restore_state
  12:src/workers.cpp ****     if (n % 4 == 0) thread_dispatch();
  68              		.loc 1 12 21 is_stmt 1 discriminator 1
  12:src/workers.cpp ****     if (n % 4 == 0) thread_dispatch();
  69              		.loc 1 12 36 is_stmt 0 discriminator 1
  70 0064 97000000 		call	_Z15thread_dispatchv@plt
  70      E7800000 
  71              	.LVL6:
  72 006c 6FF01FFC 		j	.L3
  73              		.cfi_endproc
  74              	.LFE38:
  76              		.section	.rodata.str1.8,"aMS",@progbits,1
  77              		.align	3
  78              	.LC0:
  79 0000 413A2069 		.string	"A: i="
  79      3D00
  80 0006 0000     		.align	3
  81              	.LC1:
  82 0008 0A00     		.string	"\n"
  83 000a 00000000 		.align	3
  83      0000
  84              	.LC2:
  85 0010 413A2079 		.string	"A: yield\n"
  85      69656C64 
  85      0A00
  86 001a 00000000 		.align	3
  86      0000
  87              	.LC3:
  88 0020 413A2074 		.string	"A: t1="
  88      313D00
  89 0027 00       		.align	3
  90              	.LC4:
  91 0028 413A2066 		.string	"A: fibonaci="
GAS LISTING /tmp/cc2H95HL.s 			page 3


  91      69626F6E 
  91      6163693D 
  91      00
  92 0035 000000   		.align	3
  93              	.LC5:
  94 0038 413A2020 		.string	"A:    F I N I S H E D"
  94      20204620 
  94      49204E20 
  94      49205320 
  94      48204520 
  95              		.text
  96              		.align	2
  97              		.globl	_Z11workerBodyAv
  99              	_Z11workerBodyAv:
 100              	.LFB39:
  15:src/workers.cpp **** 
  16:src/workers.cpp **** void workerBodyA()
  17:src/workers.cpp **** {
 101              		.loc 1 17 1 is_stmt 1
 102              		.cfi_startproc
 103 0070 130101FE 		addi	sp,sp,-32
 104              		.cfi_def_cfa_offset 32
 105 0074 233C1100 		sd	ra,24(sp)
 106 0078 23388100 		sd	s0,16(sp)
 107 007c 23349100 		sd	s1,8(sp)
 108 0080 23302101 		sd	s2,0(sp)
 109              		.cfi_offset 1, -8
 110              		.cfi_offset 8, -16
 111              		.cfi_offset 9, -24
 112              		.cfi_offset 18, -32
 113 0084 13040102 		addi	s0,sp,32
 114              		.cfi_def_cfa 8, 0
  18:src/workers.cpp ****     uint8 i = 0;
 115              		.loc 1 18 5
 116              	.LVL7:
 117              		.loc 1 18 11 is_stmt 0
 118 0088 93040000 		li	s1,0
 119 008c 6F008003 		j	.L9
 120              	.LVL8:
 121              	.L13:
  19:src/workers.cpp ****     for (; i < 3; i++)
  20:src/workers.cpp ****     {
  21:src/workers.cpp ****         printString("A: i=");
 122              		.loc 1 21 9 is_stmt 1 discriminator 1
 123              		.loc 1 21 20 is_stmt 0 discriminator 1
 124 0090 17050000 		lla	a0,.LC0
 124      13050500 
 125 0098 97000000 		call	_Z11printStringPKc@plt
 125      E7800000 
 126              	.LVL9:
  22:src/workers.cpp ****         printInteger(i);
 127              		.loc 1 22 9 is_stmt 1 discriminator 1
 128              		.loc 1 22 21 is_stmt 0 discriminator 1
 129 00a0 13850400 		mv	a0,s1
 130 00a4 97000000 		call	_Z12printIntegerm@plt
 130      E7800000 
 131              	.LVL10:
GAS LISTING /tmp/cc2H95HL.s 			page 4


  23:src/workers.cpp ****         printString("\n");
 132              		.loc 1 23 9 is_stmt 1 discriminator 1
 133              		.loc 1 23 20 is_stmt 0 discriminator 1
 134 00ac 17050000 		lla	a0,.LC1
 134      13050500 
 135 00b4 97000000 		call	_Z11printStringPKc@plt
 135      E7800000 
 136              	.LVL11:
  19:src/workers.cpp ****     for (; i < 3; i++)
 137              		.loc 1 19 5 is_stmt 1 discriminator 1
 138 00bc 9B841400 		addiw	s1,s1,1
 139              	.LVL12:
 140 00c0 93F4F40F 		andi	s1,s1,0xff
 141              	.LVL13:
 142              	.L9:
  19:src/workers.cpp ****     for (; i < 3; i++)
 143              		.loc 1 19 5 discriminator 2
  19:src/workers.cpp ****     for (; i < 3; i++)
 144              		.loc 1 19 14 discriminator 2
 145 00c4 93072000 		li	a5,2
 146 00c8 E3F497FC 		bleu	s1,a5,.L13
  24:src/workers.cpp ****     }
  25:src/workers.cpp **** 
  26:src/workers.cpp ****     printString("A: yield\n");
 147              		.loc 1 26 5
 148              		.loc 1 26 16 is_stmt 0
 149 00cc 17050000 		lla	a0,.LC2
 149      13050500 
 150 00d4 97000000 		call	_Z11printStringPKc@plt
 150      E7800000 
 151              	.LVL14:
  27:src/workers.cpp ****     __asm__ ("li t1, 7");
 152              		.loc 1 27 5 is_stmt 1
 153              		.loc 1 27 25 is_stmt 0
 154              	#APP
 155              	# 27 "src/workers.cpp" 1
  28              	    thread_dispatch();
 156              		li t1, 7
 157              	# 0 "" 2
 158              		.loc 1 28 5 is_stmt 1
 159              		.loc 1 28 20 is_stmt 0
 160              	#NO_APP
 161 00e0 97000000 		call	_Z15thread_dispatchv@plt
 161      E7800000 
 162              	.LVL15:
  29:src/workers.cpp **** 
  30:src/workers.cpp ****     uint64 t1 = 0;
 163              		.loc 1 30 5 is_stmt 1
  31:src/workers.cpp ****     __asm__ ("mv %[t1], t1" : [t1] "=r"(t1));
 164              		.loc 1 31 5
 165              		.loc 1 31 45 is_stmt 0
 166              	#APP
 167              	# 31 "src/workers.cpp" 1
  32              	
 168              		mv s2, t1
 169              	# 0 "" 2
 170              	.LVL16:
GAS LISTING /tmp/cc2H95HL.s 			page 5


  33:src/workers.cpp ****     printString("A: t1=");
 171              		.loc 1 33 5 is_stmt 1
 172              		.loc 1 33 16 is_stmt 0
 173              	#NO_APP
 174 00ec 17050000 		lla	a0,.LC3
 174      13050500 
 175 00f4 97000000 		call	_Z11printStringPKc@plt
 175      E7800000 
 176              	.LVL17:
  34:src/workers.cpp ****     printInteger(t1);
 177              		.loc 1 34 5 is_stmt 1
 178              		.loc 1 34 17 is_stmt 0
 179 00fc 13050900 		mv	a0,s2
 180 0100 97000000 		call	_Z12printIntegerm@plt
 180      E7800000 
 181              	.LVL18:
  35:src/workers.cpp ****     printString("\n");
 182              		.loc 1 35 5 is_stmt 1
 183              		.loc 1 35 16 is_stmt 0
 184 0108 17050000 		lla	a0,.LC1
 184      13050500 
 185 0110 97000000 		call	_Z11printStringPKc@plt
 185      E7800000 
 186              	.LVL19:
  36:src/workers.cpp **** 
  37:src/workers.cpp ****     uint64 result = fibonacci(20);
 187              		.loc 1 37 5 is_stmt 1
 188              		.loc 1 37 30 is_stmt 0
 189 0118 13054001 		li	a0,20
 190 011c 97000000 		call	_ZL9fibonaccim
 190      E7800000 
 191              	.LVL20:
 192 0124 13090500 		mv	s2,a0
 193              	.LVL21:
  38:src/workers.cpp ****     printString("A: fibonaci=");
 194              		.loc 1 38 5 is_stmt 1
 195              		.loc 1 38 16 is_stmt 0
 196 0128 17050000 		lla	a0,.LC4
 196      13050500 
 197              	.LVL22:
 198 0130 97000000 		call	_Z11printStringPKc@plt
 198      E7800000 
 199              	.LVL23:
  39:src/workers.cpp ****     printInteger(result);
 200              		.loc 1 39 5 is_stmt 1
 201              		.loc 1 39 17 is_stmt 0
 202 0138 13050900 		mv	a0,s2
 203 013c 97000000 		call	_Z12printIntegerm@plt
 203      E7800000 
 204              	.LVL24:
  40:src/workers.cpp ****     printString("\n");
 205              		.loc 1 40 5 is_stmt 1
 206              		.loc 1 40 16 is_stmt 0
 207 0144 17050000 		lla	a0,.LC1
 207      13050500 
 208 014c 97000000 		call	_Z11printStringPKc@plt
 208      E7800000 
GAS LISTING /tmp/cc2H95HL.s 			page 6


 209              	.LVL25:
 210 0154 6F008003 		j	.L11
 211              	.L14:
  41:src/workers.cpp **** 
  42:src/workers.cpp ****     for (; i < 6; i++)
  43:src/workers.cpp ****     {
  44:src/workers.cpp ****         printString("A: i=");
 212              		.loc 1 44 9 is_stmt 1 discriminator 1
 213              		.loc 1 44 20 is_stmt 0 discriminator 1
 214 0158 17050000 		lla	a0,.LC0
 214      13050500 
 215 0160 97000000 		call	_Z11printStringPKc@plt
 215      E7800000 
 216              	.LVL26:
  45:src/workers.cpp ****         printInteger(i);
 217              		.loc 1 45 9 is_stmt 1 discriminator 1
 218              		.loc 1 45 21 is_stmt 0 discriminator 1
 219 0168 13850400 		mv	a0,s1
 220 016c 97000000 		call	_Z12printIntegerm@plt
 220      E7800000 
 221              	.LVL27:
  46:src/workers.cpp ****         printString("\n");
 222              		.loc 1 46 9 is_stmt 1 discriminator 1
 223              		.loc 1 46 20 is_stmt 0 discriminator 1
 224 0174 17050000 		lla	a0,.LC1
 224      13050500 
 225 017c 97000000 		call	_Z11printStringPKc@plt
 225      E7800000 
 226              	.LVL28:
  42:src/workers.cpp ****     {
 227              		.loc 1 42 5 is_stmt 1 discriminator 1
 228 0184 9B841400 		addiw	s1,s1,1
 229              	.LVL29:
 230 0188 93F4F40F 		andi	s1,s1,0xff
 231              	.LVL30:
 232              	.L11:
  42:src/workers.cpp ****     {
 233              		.loc 1 42 5 discriminator 2
  42:src/workers.cpp ****     {
 234              		.loc 1 42 14 discriminator 2
 235 018c 93075000 		li	a5,5
 236 0190 E3F497FC 		bleu	s1,a5,.L14
  47:src/workers.cpp ****     }
  48:src/workers.cpp ****     printString("A:    F I N I S H E D");
 237              		.loc 1 48 5
 238              		.loc 1 48 16 is_stmt 0
 239 0194 17050000 		lla	a0,.LC5
 239      13050500 
 240 019c 97000000 		call	_Z11printStringPKc@plt
 240      E7800000 
 241              	.LVL31:
  49:src/workers.cpp ****     CCB::running->setFinished(true);
 242              		.loc 1 49 5 is_stmt 1
 243              		.loc 1 49 30 is_stmt 0
 244 01a4 97070000 		la	a5,_ZN3CCB7runningE
 244      83B70700 
 245 01ac 83B70700 		ld	a5,0(a5)
GAS LISTING /tmp/cc2H95HL.s 			page 7


 246              	.LVL32:
 247              	.LBB6:
 248              	.LBB7:
 249              		.file 2 "src/../h/ccb.hpp"
   1:src/../h/ccb.hpp **** //
   2:src/../h/ccb.hpp **** // Created by os on 6/24/22.
   3:src/../h/ccb.hpp **** //
   4:src/../h/ccb.hpp **** 
   5:src/../h/ccb.hpp **** #ifndef PROJECT_V33333333333_CCB_HPP
   6:src/../h/ccb.hpp **** #define PROJECT_V33333333333_CCB_HPP
   7:src/../h/ccb.hpp **** #include "../lib/hw.h"
   8:src/../h/ccb.hpp **** #include "Scheduler.hpp"
   9:src/../h/ccb.hpp **** #include "syscall_c.h"
  10:src/../h/ccb.hpp **** #include "MemoryAllocator.hpp"
  11:src/../h/ccb.hpp **** #include "Riscv.hpp"
  12:src/../h/ccb.hpp **** 
  13:src/../h/ccb.hpp **** // Coroutine Control Block
  14:src/../h/ccb.hpp **** class CCB
  15:src/../h/ccb.hpp **** {
  16:src/../h/ccb.hpp **** public:
  17:src/../h/ccb.hpp ****     ~CCB() { delete[] stack; }
  18:src/../h/ccb.hpp **** 
  19:src/../h/ccb.hpp ****     void* operator new(size_t size) {
  20:src/../h/ccb.hpp ****         return MemoryAllocator::allocateB(size);
  21:src/../h/ccb.hpp ****     }
  22:src/../h/ccb.hpp **** 
  23:src/../h/ccb.hpp ****     void operator delete(void* address) {
  24:src/../h/ccb.hpp ****         MemoryAllocator::free(address);
  25:src/../h/ccb.hpp ****     }
  26:src/../h/ccb.hpp **** 
  27:src/../h/ccb.hpp ****     bool isFinished() const { return finished; }
  28:src/../h/ccb.hpp **** 
  29:src/../h/ccb.hpp ****     void setFinished(bool value) { finished = value;}
 250              		.loc 2 29 36 is_stmt 1
 251              		.loc 2 29 45 is_stmt 0
 252 01b0 13071000 		li	a4,1
 253 01b4 2380E702 		sb	a4,32(a5)
 254              	.LVL33:
 255              	.LBE7:
 256              	.LBE6:
  50:src/workers.cpp ****     thread_dispatch();
 257              		.loc 1 50 5 is_stmt 1
 258              		.loc 1 50 20 is_stmt 0
 259 01b8 97000000 		call	_Z15thread_dispatchv@plt
 259      E7800000 
 260              	.LVL34:
  51:src/workers.cpp **** }
 261              		.loc 1 51 1
 262 01c0 83308101 		ld	ra,24(sp)
 263              		.cfi_restore 1
 264 01c4 03340101 		ld	s0,16(sp)
 265              		.cfi_restore 8
 266              		.cfi_def_cfa 2, 32
 267 01c8 83348100 		ld	s1,8(sp)
 268              		.cfi_restore 9
 269              	.LVL35:
 270 01cc 03390100 		ld	s2,0(sp)
GAS LISTING /tmp/cc2H95HL.s 			page 8


 271              		.cfi_restore 18
 272              	.LVL36:
 273 01d0 13010102 		addi	sp,sp,32
 274              		.cfi_def_cfa_offset 0
 275 01d4 67800000 		jr	ra
 276              		.cfi_endproc
 277              	.LFE39:
 279              		.section	.rodata.str1.8
 280 004e 0000     		.align	3
 281              	.LC6:
 282 0050 423A2069 		.string	"B: i="
 282      3D00
 283 0056 0000     		.align	3
 284              	.LC7:
 285 0058 423A2079 		.string	"B: yield\n"
 285      69656C64 
 285      0A00
 286 0062 00000000 		.align	3
 286      0000
 287              	.LC8:
 288 0068 423A2066 		.string	"B: fibonaci="
 288      69626F6E 
 288      6163693D 
 288      00
 289              		.text
 290              		.align	2
 291              		.globl	_Z11workerBodyBv
 293              	_Z11workerBodyBv:
 294              	.LFB40:
  52:src/workers.cpp **** 
  53:src/workers.cpp **** void workerBodyB()
  54:src/workers.cpp **** {
 295              		.loc 1 54 1 is_stmt 1
 296              		.cfi_startproc
 297 01d8 130101FE 		addi	sp,sp,-32
 298              		.cfi_def_cfa_offset 32
 299 01dc 233C1100 		sd	ra,24(sp)
 300 01e0 23388100 		sd	s0,16(sp)
 301 01e4 23349100 		sd	s1,8(sp)
 302 01e8 23302101 		sd	s2,0(sp)
 303              		.cfi_offset 1, -8
 304              		.cfi_offset 8, -16
 305              		.cfi_offset 9, -24
 306              		.cfi_offset 18, -32
 307 01ec 13040102 		addi	s0,sp,32
 308              		.cfi_def_cfa 8, 0
  55:src/workers.cpp ****     uint8 i = 10;
 309              		.loc 1 55 5
 310              	.LVL37:
 311              		.loc 1 55 11 is_stmt 0
 312 01f0 9304A000 		li	s1,10
 313 01f4 6F008003 		j	.L17
 314              	.LVL38:
 315              	.L21:
  56:src/workers.cpp ****     for (; i < 13; i++)
  57:src/workers.cpp ****     {
  58:src/workers.cpp ****         printString("B: i=");
GAS LISTING /tmp/cc2H95HL.s 			page 9


 316              		.loc 1 58 9 is_stmt 1 discriminator 1
 317              		.loc 1 58 20 is_stmt 0 discriminator 1
 318 01f8 17050000 		lla	a0,.LC6
 318      13050500 
 319 0200 97000000 		call	_Z11printStringPKc@plt
 319      E7800000 
 320              	.LVL39:
  59:src/workers.cpp ****         printInteger(i);
 321              		.loc 1 59 9 is_stmt 1 discriminator 1
 322              		.loc 1 59 21 is_stmt 0 discriminator 1
 323 0208 13850400 		mv	a0,s1
 324 020c 97000000 		call	_Z12printIntegerm@plt
 324      E7800000 
 325              	.LVL40:
  60:src/workers.cpp ****         printString("\n");
 326              		.loc 1 60 9 is_stmt 1 discriminator 1
 327              		.loc 1 60 20 is_stmt 0 discriminator 1
 328 0214 17050000 		lla	a0,.LC1
 328      13050500 
 329 021c 97000000 		call	_Z11printStringPKc@plt
 329      E7800000 
 330              	.LVL41:
  56:src/workers.cpp ****     for (; i < 13; i++)
 331              		.loc 1 56 5 is_stmt 1 discriminator 1
 332 0224 9B841400 		addiw	s1,s1,1
 333              	.LVL42:
 334 0228 93F4F40F 		andi	s1,s1,0xff
 335              	.LVL43:
 336              	.L17:
  56:src/workers.cpp ****     for (; i < 13; i++)
 337              		.loc 1 56 5 discriminator 2
  56:src/workers.cpp ****     for (; i < 13; i++)
 338              		.loc 1 56 14 discriminator 2
 339 022c 9307C000 		li	a5,12
 340 0230 E3F497FC 		bleu	s1,a5,.L21
  61:src/workers.cpp ****     }
  62:src/workers.cpp **** 
  63:src/workers.cpp ****     printString("B: yield\n");
 341              		.loc 1 63 5
 342              		.loc 1 63 16 is_stmt 0
 343 0234 17050000 		lla	a0,.LC7
 343      13050500 
 344 023c 97000000 		call	_Z11printStringPKc@plt
 344      E7800000 
 345              	.LVL44:
  64:src/workers.cpp ****     __asm__ ("li t1, 5");
 346              		.loc 1 64 5 is_stmt 1
 347              		.loc 1 64 25 is_stmt 0
 348              	#APP
 349              	# 64 "src/workers.cpp" 1
  65              	    thread_dispatch();
 350              		li t1, 5
 351              	# 0 "" 2
 352              		.loc 1 65 5 is_stmt 1
 353              		.loc 1 65 20 is_stmt 0
 354              	#NO_APP
 355 0248 97000000 		call	_Z15thread_dispatchv@plt
GAS LISTING /tmp/cc2H95HL.s 			page 10


 355      E7800000 
 356              	.LVL45:
  66:src/workers.cpp **** 
  67:src/workers.cpp ****     uint64 result = fibonacci(23);
 357              		.loc 1 67 5 is_stmt 1
 358              		.loc 1 67 30 is_stmt 0
 359 0250 13057001 		li	a0,23
 360 0254 97000000 		call	_ZL9fibonaccim
 360      E7800000 
 361              	.LVL46:
 362 025c 13090500 		mv	s2,a0
 363              	.LVL47:
  68:src/workers.cpp ****     printString("B: fibonaci=");
 364              		.loc 1 68 5 is_stmt 1
 365              		.loc 1 68 16 is_stmt 0
 366 0260 17050000 		lla	a0,.LC8
 366      13050500 
 367              	.LVL48:
 368 0268 97000000 		call	_Z11printStringPKc@plt
 368      E7800000 
 369              	.LVL49:
  69:src/workers.cpp ****     printInteger(result);
 370              		.loc 1 69 5 is_stmt 1
 371              		.loc 1 69 17 is_stmt 0
 372 0270 13050900 		mv	a0,s2
 373 0274 97000000 		call	_Z12printIntegerm@plt
 373      E7800000 
 374              	.LVL50:
  70:src/workers.cpp ****     printString("\n");
 375              		.loc 1 70 5 is_stmt 1
 376              		.loc 1 70 16 is_stmt 0
 377 027c 17050000 		lla	a0,.LC1
 377      13050500 
 378 0284 97000000 		call	_Z11printStringPKc@plt
 378      E7800000 
 379              	.LVL51:
 380 028c 6F008003 		j	.L19
 381              	.L22:
  71:src/workers.cpp **** 
  72:src/workers.cpp ****     for (; i < 16; i++)
  73:src/workers.cpp ****     {
  74:src/workers.cpp ****         printString("B: i=");
 382              		.loc 1 74 9 is_stmt 1 discriminator 1
 383              		.loc 1 74 20 is_stmt 0 discriminator 1
 384 0290 17050000 		lla	a0,.LC6
 384      13050500 
 385 0298 97000000 		call	_Z11printStringPKc@plt
 385      E7800000 
 386              	.LVL52:
  75:src/workers.cpp ****         printInteger(i);
 387              		.loc 1 75 9 is_stmt 1 discriminator 1
 388              		.loc 1 75 21 is_stmt 0 discriminator 1
 389 02a0 13850400 		mv	a0,s1
 390 02a4 97000000 		call	_Z12printIntegerm@plt
 390      E7800000 
 391              	.LVL53:
  76:src/workers.cpp ****         printString("\n");
GAS LISTING /tmp/cc2H95HL.s 			page 11


 392              		.loc 1 76 9 is_stmt 1 discriminator 1
 393              		.loc 1 76 20 is_stmt 0 discriminator 1
 394 02ac 17050000 		lla	a0,.LC1
 394      13050500 
 395 02b4 97000000 		call	_Z11printStringPKc@plt
 395      E7800000 
 396              	.LVL54:
  72:src/workers.cpp ****     {
 397              		.loc 1 72 5 is_stmt 1 discriminator 1
 398 02bc 9B841400 		addiw	s1,s1,1
 399              	.LVL55:
 400 02c0 93F4F40F 		andi	s1,s1,0xff
 401              	.LVL56:
 402              	.L19:
  72:src/workers.cpp ****     {
 403              		.loc 1 72 5 discriminator 2
  72:src/workers.cpp ****     {
 404              		.loc 1 72 14 discriminator 2
 405 02c4 9307F000 		li	a5,15
 406 02c8 E3F497FC 		bleu	s1,a5,.L22
  77:src/workers.cpp ****     }
  78:src/workers.cpp **** 
  79:src/workers.cpp ****     CCB::running->setFinished(true);
 407              		.loc 1 79 5
 408              		.loc 1 79 30 is_stmt 0
 409 02cc 97070000 		la	a5,_ZN3CCB7runningE
 409      83B70700 
 410 02d4 83B70700 		ld	a5,0(a5)
 411              	.LVL57:
 412              	.LBB8:
 413              	.LBB9:
 414              		.loc 2 29 36 is_stmt 1
 415              		.loc 2 29 45 is_stmt 0
 416 02d8 13071000 		li	a4,1
 417 02dc 2380E702 		sb	a4,32(a5)
 418              	.LVL58:
 419              	.LBE9:
 420              	.LBE8:
  80:src/workers.cpp ****     thread_dispatch();
 421              		.loc 1 80 5 is_stmt 1
 422              		.loc 1 80 20 is_stmt 0
 423 02e0 97000000 		call	_Z15thread_dispatchv@plt
 423      E7800000 
 424              	.LVL59:
  81:src/workers.cpp **** }...
 425              		.loc 1 81 1
 426 02e8 83308101 		ld	ra,24(sp)
 427              		.cfi_restore 1
 428 02ec 03340101 		ld	s0,16(sp)
 429              		.cfi_restore 8
 430              		.cfi_def_cfa 2, 32
 431 02f0 83348100 		ld	s1,8(sp)
 432              		.cfi_restore 9
 433              	.LVL60:
 434 02f4 03390100 		ld	s2,0(sp)
 435              		.cfi_restore 18
 436              	.LVL61:
GAS LISTING /tmp/cc2H95HL.s 			page 12


 437 02f8 13010102 		addi	sp,sp,32
 438              		.cfi_def_cfa_offset 0
 439 02fc 67800000 		jr	ra
 440              		.cfi_endproc
 441              	.LFE40:
 443              	.Letext0:
 444              		.file 3 "src/../lib/hw.h"
 445              		.file 4 "src/../h/print.hpp"
 446              		.file 5 "src/../h/syscall_c.h"
GAS LISTING /tmp/cc2H95HL.s 			page 13


DEFINED SYMBOLS
                            *ABS*:0000000000000000 workers.cpp
     /tmp/cc2H95HL.s:8      .text:0000000000000000 _ZL9fibonaccim
     /tmp/cc2H95HL.s:12     .text:0000000000000000 .L0 
     /tmp/cc2H95HL.s:14     .text:0000000000000000 .L0 
     /tmp/cc2H95HL.s:15     .text:0000000000000004 .L0 
     /tmp/cc2H95HL.s:20     .text:0000000000000014 .L0 
     /tmp/cc2H95HL.s:21     .text:0000000000000014 .L0 
     /tmp/cc2H95HL.s:22     .text:0000000000000014 .L0 
     /tmp/cc2H95HL.s:23     .text:0000000000000014 .L0 
     /tmp/cc2H95HL.s:25     .text:0000000000000018 .L0 
     /tmp/cc2H95HL.s:28     .text:000000000000001c .L0 
     /tmp/cc2H95HL.s:31     .text:0000000000000024 .L0 
     /tmp/cc2H95HL.s:32     .text:0000000000000024 .L0 
     /tmp/cc2H95HL.s:34     .text:0000000000000028 .L0 
     /tmp/cc2H95HL.s:38     .text:000000000000002c .L0 
     /tmp/cc2H95HL.s:39     .text:000000000000002c .L0 
     /tmp/cc2H95HL.s:44     .text:000000000000003c .L0 
     /tmp/cc2H95HL.s:48     .text:0000000000000048 .L0 
     /tmp/cc2H95HL.s:51     .text:000000000000004c .L0 
     /tmp/cc2H95HL.s:52     .text:0000000000000050 .L0 
     /tmp/cc2H95HL.s:53     .text:0000000000000050 .L0 
     /tmp/cc2H95HL.s:55     .text:0000000000000054 .L0 
     /tmp/cc2H95HL.s:56     .text:0000000000000054 .L0 
     /tmp/cc2H95HL.s:58     .text:0000000000000058 .L0 
     /tmp/cc2H95HL.s:61     .text:000000000000005c .L0 
     /tmp/cc2H95HL.s:63     .text:0000000000000060 .L0 
     /tmp/cc2H95HL.s:67     .text:0000000000000064 .L0 
     /tmp/cc2H95HL.s:69     .text:0000000000000064 .L0 
     /tmp/cc2H95HL.s:70     .text:0000000000000064 .L0 
     /tmp/cc2H95HL.s:73     .text:0000000000000070 .L0 
     /tmp/cc2H95HL.s:99     .text:0000000000000070 _Z11workerBodyAv
     /tmp/cc2H95HL.s:102    .text:0000000000000070 .L0 
     /tmp/cc2H95HL.s:103    .text:0000000000000070 .L0 
     /tmp/cc2H95HL.s:104    .text:0000000000000074 .L0 
     /tmp/cc2H95HL.s:109    .text:0000000000000084 .L0 
     /tmp/cc2H95HL.s:110    .text:0000000000000084 .L0 
     /tmp/cc2H95HL.s:111    .text:0000000000000084 .L0 
     /tmp/cc2H95HL.s:112    .text:0000000000000084 .L0 
     /tmp/cc2H95HL.s:114    .text:0000000000000088 .L0 
     /tmp/cc2H95HL.s:117    .text:0000000000000088 .L0 
     /tmp/cc2H95HL.s:118    .text:0000000000000088 .L0 
     /tmp/cc2H95HL.s:123    .text:0000000000000090 .L0 
     /tmp/cc2H95HL.s:124    .text:0000000000000090 .L0 
     /tmp/cc2H95HL.s:128    .text:00000000000000a0 .L0 
     /tmp/cc2H95HL.s:129    .text:00000000000000a0 .L0 
     /tmp/cc2H95HL.s:133    .text:00000000000000ac .L0 
     /tmp/cc2H95HL.s:134    .text:00000000000000ac .L0 
     /tmp/cc2H95HL.s:138    .text:00000000000000bc .L0 
     /tmp/cc2H95HL.s:144    .text:00000000000000c4 .L0 
     /tmp/cc2H95HL.s:145    .text:00000000000000c4 .L0 
     /tmp/cc2H95HL.s:148    .text:00000000000000cc .L0 
     /tmp/cc2H95HL.s:149    .text:00000000000000cc .L0 
     /tmp/cc2H95HL.s:153    .text:00000000000000dc .L0 
     src/workers.cpp:27     .text:00000000000000dc .L0 
     /tmp/cc2H95HL.s:159    .text:00000000000000e0 .L0 
     /tmp/cc2H95HL.s:161    .text:00000000000000e0 .L0 
GAS LISTING /tmp/cc2H95HL.s 			page 14


     /tmp/cc2H95HL.s:164    .text:00000000000000e8 .L0 
     /tmp/cc2H95HL.s:165    .text:00000000000000e8 .L0 
     src/workers.cpp:31     .text:00000000000000e8 .L0 
     /tmp/cc2H95HL.s:172    .text:00000000000000ec .L0 
     /tmp/cc2H95HL.s:174    .text:00000000000000ec .L0 
     /tmp/cc2H95HL.s:178    .text:00000000000000fc .L0 
     /tmp/cc2H95HL.s:179    .text:00000000000000fc .L0 
     /tmp/cc2H95HL.s:183    .text:0000000000000108 .L0 
     /tmp/cc2H95HL.s:184    .text:0000000000000108 .L0 
     /tmp/cc2H95HL.s:188    .text:0000000000000118 .L0 
     /tmp/cc2H95HL.s:189    .text:0000000000000118 .L0 
     /tmp/cc2H95HL.s:195    .text:0000000000000128 .L0 
     /tmp/cc2H95HL.s:196    .text:0000000000000128 .L0 
     /tmp/cc2H95HL.s:201    .text:0000000000000138 .L0 
     /tmp/cc2H95HL.s:202    .text:0000000000000138 .L0 
     /tmp/cc2H95HL.s:206    .text:0000000000000144 .L0 
     /tmp/cc2H95HL.s:207    .text:0000000000000144 .L0 
     /tmp/cc2H95HL.s:213    .text:0000000000000158 .L0 
     /tmp/cc2H95HL.s:214    .text:0000000000000158 .L0 
     /tmp/cc2H95HL.s:218    .text:0000000000000168 .L0 
     /tmp/cc2H95HL.s:219    .text:0000000000000168 .L0 
     /tmp/cc2H95HL.s:223    .text:0000000000000174 .L0 
     /tmp/cc2H95HL.s:224    .text:0000000000000174 .L0 
     /tmp/cc2H95HL.s:228    .text:0000000000000184 .L0 
     /tmp/cc2H95HL.s:234    .text:000000000000018c .L0 
     /tmp/cc2H95HL.s:235    .text:000000000000018c .L0 
     /tmp/cc2H95HL.s:238    .text:0000000000000194 .L0 
     /tmp/cc2H95HL.s:239    .text:0000000000000194 .L0 
     /tmp/cc2H95HL.s:243    .text:00000000000001a4 .L0 
     /tmp/cc2H95HL.s:244    .text:00000000000001a4 .L0 
     /tmp/cc2H95HL.s:251    .text:00000000000001b0 .L0 
     /tmp/cc2H95HL.s:252    .text:00000000000001b0 .L0 
     /tmp/cc2H95HL.s:258    .text:00000000000001b8 .L0 
     /tmp/cc2H95HL.s:259    .text:00000000000001b8 .L0 
     /tmp/cc2H95HL.s:262    .text:00000000000001c0 .L0 
     /tmp/cc2H95HL.s:263    .text:00000000000001c4 .L0 
     /tmp/cc2H95HL.s:265    .text:00000000000001c8 .L0 
     /tmp/cc2H95HL.s:266    .text:00000000000001c8 .L0 
     /tmp/cc2H95HL.s:268    .text:00000000000001cc .L0 
     /tmp/cc2H95HL.s:271    .text:00000000000001d0 .L0 
     /tmp/cc2H95HL.s:274    .text:00000000000001d4 .L0 
     /tmp/cc2H95HL.s:276    .text:00000000000001d8 .L0 
     /tmp/cc2H95HL.s:293    .text:00000000000001d8 _Z11workerBodyBv
     /tmp/cc2H95HL.s:296    .text:00000000000001d8 .L0 
     /tmp/cc2H95HL.s:297    .text:00000000000001d8 .L0 
     /tmp/cc2H95HL.s:298    .text:00000000000001dc .L0 
     /tmp/cc2H95HL.s:303    .text:00000000000001ec .L0 
     /tmp/cc2H95HL.s:304    .text:00000000000001ec .L0 
     /tmp/cc2H95HL.s:305    .text:00000000000001ec .L0 
     /tmp/cc2H95HL.s:306    .text:00000000000001ec .L0 
     /tmp/cc2H95HL.s:308    .text:00000000000001f0 .L0 
     /tmp/cc2H95HL.s:311    .text:00000000000001f0 .L0 
     /tmp/cc2H95HL.s:312    .text:00000000000001f0 .L0 
     /tmp/cc2H95HL.s:317    .text:00000000000001f8 .L0 
     /tmp/cc2H95HL.s:318    .text:00000000000001f8 .L0 
     /tmp/cc2H95HL.s:322    .text:0000000000000208 .L0 
     /tmp/cc2H95HL.s:323    .text:0000000000000208 .L0 
GAS LISTING /tmp/cc2H95HL.s 			page 15


     /tmp/cc2H95HL.s:327    .text:0000000000000214 .L0 
     /tmp/cc2H95HL.s:328    .text:0000000000000214 .L0 
     /tmp/cc2H95HL.s:332    .text:0000000000000224 .L0 
     /tmp/cc2H95HL.s:338    .text:000000000000022c .L0 
     /tmp/cc2H95HL.s:339    .text:000000000000022c .L0 
     /tmp/cc2H95HL.s:342    .text:0000000000000234 .L0 
     /tmp/cc2H95HL.s:343    .text:0000000000000234 .L0 
     /tmp/cc2H95HL.s:347    .text:0000000000000244 .L0 
     src/workers.cpp:64     .text:0000000000000244 .L0 
     /tmp/cc2H95HL.s:353    .text:0000000000000248 .L0 
     /tmp/cc2H95HL.s:355    .text:0000000000000248 .L0 
     /tmp/cc2H95HL.s:358    .text:0000000000000250 .L0 
     /tmp/cc2H95HL.s:359    .text:0000000000000250 .L0 
     /tmp/cc2H95HL.s:365    .text:0000000000000260 .L0 
     /tmp/cc2H95HL.s:366    .text:0000000000000260 .L0 
     /tmp/cc2H95HL.s:371    .text:0000000000000270 .L0 
     /tmp/cc2H95HL.s:372    .text:0000000000000270 .L0 
     /tmp/cc2H95HL.s:376    .text:000000000000027c .L0 
     /tmp/cc2H95HL.s:377    .text:000000000000027c .L0 
     /tmp/cc2H95HL.s:383    .text:0000000000000290 .L0 
     /tmp/cc2H95HL.s:384    .text:0000000000000290 .L0 
     /tmp/cc2H95HL.s:388    .text:00000000000002a0 .L0 
     /tmp/cc2H95HL.s:389    .text:00000000000002a0 .L0 
     /tmp/cc2H95HL.s:393    .text:00000000000002ac .L0 
     /tmp/cc2H95HL.s:394    .text:00000000000002ac .L0 
     /tmp/cc2H95HL.s:398    .text:00000000000002bc .L0 
     /tmp/cc2H95HL.s:404    .text:00000000000002c4 .L0 
     /tmp/cc2H95HL.s:405    .text:00000000000002c4 .L0 
     /tmp/cc2H95HL.s:408    .text:00000000000002cc .L0 
     /tmp/cc2H95HL.s:409    .text:00000000000002cc .L0 
     /tmp/cc2H95HL.s:415    .text:00000000000002d8 .L0 
     /tmp/cc2H95HL.s:416    .text:00000000000002d8 .L0 
     /tmp/cc2H95HL.s:422    .text:00000000000002e0 .L0 
     /tmp/cc2H95HL.s:423    .text:00000000000002e0 .L0 
     /tmp/cc2H95HL.s:426    .text:00000000000002e8 .L0 
     /tmp/cc2H95HL.s:427    .text:00000000000002ec .L0 
     /tmp/cc2H95HL.s:429    .text:00000000000002f0 .L0 
     /tmp/cc2H95HL.s:430    .text:00000000000002f0 .L0 
     /tmp/cc2H95HL.s:432    .text:00000000000002f4 .L0 
     /tmp/cc2H95HL.s:435    .text:00000000000002f8 .L0 
     /tmp/cc2H95HL.s:438    .text:00000000000002fc .L0 
     /tmp/cc2H95HL.s:440    .text:0000000000000300 .L0 
     /tmp/cc2H95HL.s:447    .text:0000000000000300 .L0 
     /tmp/cc2H95HL.s:78     .rodata.str1.8:0000000000000000 .LC0
     /tmp/cc2H95HL.s:124    .text:0000000000000090 .L0 
     /tmp/cc2H95HL.s:81     .rodata.str1.8:0000000000000008 .LC1
     /tmp/cc2H95HL.s:134    .text:00000000000000ac .L0 
     /tmp/cc2H95HL.s:84     .rodata.str1.8:0000000000000010 .LC2
     /tmp/cc2H95HL.s:149    .text:00000000000000cc .L0 
     /tmp/cc2H95HL.s:87     .rodata.str1.8:0000000000000020 .LC3
     /tmp/cc2H95HL.s:174    .text:00000000000000ec .L0 
     /tmp/cc2H95HL.s:184    .text:0000000000000108 .L0 
     /tmp/cc2H95HL.s:90     .rodata.str1.8:0000000000000028 .LC4
     /tmp/cc2H95HL.s:196    .text:0000000000000128 .L0 
     /tmp/cc2H95HL.s:207    .text:0000000000000144 .L0 
     /tmp/cc2H95HL.s:214    .text:0000000000000158 .L0 
     /tmp/cc2H95HL.s:224    .text:0000000000000174 .L0 
GAS LISTING /tmp/cc2H95HL.s 			page 16


     /tmp/cc2H95HL.s:93     .rodata.str1.8:0000000000000038 .LC5
     /tmp/cc2H95HL.s:239    .text:0000000000000194 .L0 
     /tmp/cc2H95HL.s:244    .text:00000000000001a4 .L0 
     /tmp/cc2H95HL.s:281    .rodata.str1.8:0000000000000050 .LC6
     /tmp/cc2H95HL.s:318    .text:00000000000001f8 .L0 
     /tmp/cc2H95HL.s:328    .text:0000000000000214 .L0 
     /tmp/cc2H95HL.s:284    .rodata.str1.8:0000000000000058 .LC7
     /tmp/cc2H95HL.s:343    .text:0000000000000234 .L0 
     /tmp/cc2H95HL.s:287    .rodata.str1.8:0000000000000068 .LC8
     /tmp/cc2H95HL.s:366    .text:0000000000000260 .L0 
     /tmp/cc2H95HL.s:377    .text:000000000000027c .L0 
     /tmp/cc2H95HL.s:384    .text:0000000000000290 .L0 
     /tmp/cc2H95HL.s:394    .text:00000000000002ac .L0 
     /tmp/cc2H95HL.s:409    .text:00000000000002cc .L0 
     /tmp/cc2H95HL.s:49     .text:000000000000004c .L1
     /tmp/cc2H95HL.s:66     .text:0000000000000064 .L6
     /tmp/cc2H95HL.s:36     .text:000000000000002c .L3
     /tmp/cc2H95HL.s:142    .text:00000000000000c4 .L9
     /tmp/cc2H95HL.s:121    .text:0000000000000090 .L13
     /tmp/cc2H95HL.s:232    .text:000000000000018c .L11
     /tmp/cc2H95HL.s:211    .text:0000000000000158 .L14
     /tmp/cc2H95HL.s:336    .text:000000000000022c .L17
     /tmp/cc2H95HL.s:315    .text:00000000000001f8 .L21
     /tmp/cc2H95HL.s:402    .text:00000000000002c4 .L19
     /tmp/cc2H95HL.s:381    .text:0000000000000290 .L22
     /tmp/cc2H95HL.s:1270   .debug_abbrev:0000000000000000 .Ldebug_abbrev0
     /tmp/cc2H95HL.s:2193   .debug_str:0000000000000327 .LASF50
     /tmp/cc2H95HL.s:2107   .debug_str:00000000000000a0 .LASF51
     /tmp/cc2H95HL.s:2175   .debug_str:0000000000000270 .LASF52
     /tmp/cc2H95HL.s:5      .text:0000000000000000 .Ltext0
     /tmp/cc2H95HL.s:443    .text:0000000000000300 .Letext0
     /tmp/cc2H95HL.s:2081   .debug_line:0000000000000000 .Ldebug_line0
     /tmp/cc2H95HL.s:2155   .debug_str:00000000000001d9 .LASF0
     /tmp/cc2H95HL.s:2163   .debug_str:000000000000020c .LASF1
     /tmp/cc2H95HL.s:2147   .debug_str:00000000000001a0 .LASF2
     /tmp/cc2H95HL.s:2119   .debug_str:00000000000000ef .LASF3
     /tmp/cc2H95HL.s:2133   .debug_str:0000000000000142 .LASF4
     /tmp/cc2H95HL.s:2185   .debug_str:00000000000002e1 .LASF5
     /tmp/cc2H95HL.s:2097   .debug_str:0000000000000054 .LASF6
     /tmp/cc2H95HL.s:2165   .debug_str:000000000000021f .LASF7
     /tmp/cc2H95HL.s:2153   .debug_str:00000000000001c6 .LASF8
     /tmp/cc2H95HL.s:2201   .debug_str:0000000000000419 .LASF9
     /tmp/cc2H95HL.s:2129   .debug_str:0000000000000124 .LASF10
     /tmp/cc2H95HL.s:2171   .debug_str:000000000000025c .LASF11
     /tmp/cc2H95HL.s:2197   .debug_str:00000000000003f8 .LASF12
     /tmp/cc2H95HL.s:2099   .debug_str:000000000000005b .LASF13
     /tmp/cc2H95HL.s:2087   .debug_str:0000000000000013 .LASF14
     /tmp/cc2H95HL.s:2105   .debug_str:0000000000000094 .LASF15
     /tmp/cc2H95HL.s:2181   .debug_str:00000000000002c5 .LASF16
     /tmp/cc2H95HL.s:2113   .debug_str:00000000000000ce .LASF17
     /tmp/cc2H95HL.s:2091   .debug_str:000000000000002f .LASF53
     /tmp/cc2H95HL.s:2117   .debug_str:00000000000000ea .LASF18
     /tmp/cc2H95HL.s:2211   .debug_str:0000000000000463 .LASF20
     /tmp/cc2H95HL.s:2207   .debug_str:0000000000000443 .LASF19
     /tmp/cc2H95HL.s:2095   .debug_str:0000000000000048 .LASF21
     /tmp/cc2H95HL.s:2189   .debug_str:0000000000000306 .LASF54
     /tmp/cc2H95HL.s:2195   .debug_str:00000000000003eb .LASF55
GAS LISTING /tmp/cc2H95HL.s 			page 17


     /tmp/cc2H95HL.s:2167   .debug_str:0000000000000232 .LASF37
     /tmp/cc2H95HL.s:2161   .debug_str:00000000000001f5 .LASF39
     /tmp/cc2H95HL.s:2149   .debug_str:00000000000001ae .LASF22
     /tmp/cc2H95HL.s:2179   .debug_str:00000000000002ae .LASF23
     /tmp/cc2H95HL.s:2205   .debug_str:0000000000000433 .LASF24
     /tmp/cc2H95HL.s:2169   .debug_str:000000000000023d .LASF25
     /tmp/cc2H95HL.s:2177   .debug_str:00000000000002a9 .LASF56
     /tmp/cc2H95HL.s:2183   .debug_str:00000000000002db .LASF26
     /tmp/cc2H95HL.s:2103   .debug_str:0000000000000084 .LASF28
     /tmp/cc2H95HL.s:2121   .debug_str:00000000000000f5 .LASF57
     /tmp/cc2H95HL.s:2157   .debug_str:00000000000001e6 .LASF27
     /tmp/cc2H95HL.s:2187   .debug_str:00000000000002f3 .LASF29
     /tmp/cc2H95HL.s:2145   .debug_str:0000000000000192 .LASF30
     /tmp/cc2H95HL.s:2101   .debug_str:000000000000006b .LASF31
     /tmp/cc2H95HL.s:2131   .debug_str:0000000000000132 .LASF58
     /tmp/cc2H95HL.s:2137   .debug_str:0000000000000152 .LASF32
     /tmp/cc2H95HL.s:2159   .debug_str:00000000000001ef .LASF33
     /tmp/cc2H95HL.s:2139   .debug_str:0000000000000157 .LASF34
     /tmp/cc2H95HL.s:2135   .debug_str:0000000000000149 .LASF35
     /tmp/cc2H95HL.s:2111   .debug_str:00000000000000c0 .LASF59
     /tmp/cc2H95HL.s:2141   .debug_str:000000000000015f .LASF60
     /tmp/cc2H95HL.s:2143   .debug_str:0000000000000187 .LASF61
     /tmp/cc2H95HL.s:2123   .debug_str:00000000000000fd .LASF36
     /tmp/cc2H95HL.s:2085   .debug_str:0000000000000007 .LASF38
     /tmp/cc2H95HL.s:2093   .debug_str:0000000000000037 .LASF40
     /tmp/cc2H95HL.s:294    .text:00000000000001d8 .LFB40
     /tmp/cc2H95HL.s:441    .text:0000000000000300 .LFE40
     /tmp/cc2H95HL.s:1946   .debug_loc:0000000000000000 .LLST6
     /tmp/cc2H95HL.s:2083   .debug_str:0000000000000000 .LASF41
     /tmp/cc2H95HL.s:1966   .debug_loc:000000000000005d .LLST7
     /tmp/cc2H95HL.s:412    .text:00000000000002d8 .LBB8
     /tmp/cc2H95HL.s:420    .text:00000000000002e0 .LBE8
     /tmp/cc2H95HL.s:1977   .debug_loc:0000000000000093 .LLST8
     /tmp/cc2H95HL.s:1985   .debug_loc:00000000000000b7 .LLST9
     /tmp/cc2H95HL.s:320    .text:0000000000000208 .LVL39
     /tmp/cc2H95HL.s:325    .text:0000000000000214 .LVL40
     /tmp/cc2H95HL.s:330    .text:0000000000000224 .LVL41
     /tmp/cc2H95HL.s:345    .text:0000000000000244 .LVL44
     /tmp/cc2H95HL.s:356    .text:0000000000000250 .LVL45
     /tmp/cc2H95HL.s:361    .text:000000000000025c .LVL46
     /tmp/cc2H95HL.s:369    .text:0000000000000270 .LVL49
     /tmp/cc2H95HL.s:374    .text:000000000000027c .LVL50
     /tmp/cc2H95HL.s:379    .text:000000000000028c .LVL51
     /tmp/cc2H95HL.s:386    .text:00000000000002a0 .LVL52
     /tmp/cc2H95HL.s:391    .text:00000000000002ac .LVL53
     /tmp/cc2H95HL.s:396    .text:00000000000002bc .LVL54
     /tmp/cc2H95HL.s:424    .text:00000000000002e8 .LVL59
     /tmp/cc2H95HL.s:2151   .debug_str:00000000000001ba .LASF42
     /tmp/cc2H95HL.s:2191   .debug_str:0000000000000316 .LASF43
     /tmp/cc2H95HL.s:100    .text:0000000000000070 .LFB39
     /tmp/cc2H95HL.s:277    .text:00000000000001d8 .LFE39
     /tmp/cc2H95HL.s:1992   .debug_loc:00000000000000da .LLST1
     /tmp/cc2H95HL.s:2012   .debug_loc:0000000000000137 .LLST2
     /tmp/cc2H95HL.s:2020   .debug_loc:000000000000015b .LLST3
     /tmp/cc2H95HL.s:247    .text:00000000000001b0 .LBB6
     /tmp/cc2H95HL.s:256    .text:00000000000001b8 .LBE6
     /tmp/cc2H95HL.s:2031   .debug_loc:0000000000000191 .LLST4
GAS LISTING /tmp/cc2H95HL.s 			page 18


     /tmp/cc2H95HL.s:2039   .debug_loc:00000000000001b5 .LLST5
     /tmp/cc2H95HL.s:126    .text:00000000000000a0 .LVL9
     /tmp/cc2H95HL.s:131    .text:00000000000000ac .LVL10
     /tmp/cc2H95HL.s:136    .text:00000000000000bc .LVL11
     /tmp/cc2H95HL.s:151    .text:00000000000000dc .LVL14
     /tmp/cc2H95HL.s:162    .text:00000000000000e8 .LVL15
     /tmp/cc2H95HL.s:176    .text:00000000000000fc .LVL17
     /tmp/cc2H95HL.s:181    .text:0000000000000108 .LVL18
     /tmp/cc2H95HL.s:186    .text:0000000000000118 .LVL19
     /tmp/cc2H95HL.s:191    .text:0000000000000124 .LVL20
     /tmp/cc2H95HL.s:199    .text:0000000000000138 .LVL23
     /tmp/cc2H95HL.s:204    .text:0000000000000144 .LVL24
     /tmp/cc2H95HL.s:209    .text:0000000000000154 .LVL25
     /tmp/cc2H95HL.s:216    .text:0000000000000168 .LVL26
     /tmp/cc2H95HL.s:221    .text:0000000000000174 .LVL27
     /tmp/cc2H95HL.s:226    .text:0000000000000184 .LVL28
     /tmp/cc2H95HL.s:241    .text:00000000000001a4 .LVL31
     /tmp/cc2H95HL.s:260    .text:00000000000001c0 .LVL34
     /tmp/cc2H95HL.s:2203   .debug_str:0000000000000429 .LASF62
     /tmp/cc2H95HL.s:9      .text:0000000000000000 .LFB38
     /tmp/cc2H95HL.s:74     .text:0000000000000070 .LFE38
     /tmp/cc2H95HL.s:2046   .debug_loc:00000000000001d8 .LLST0
     /tmp/cc2H95HL.s:41     .text:0000000000000038 .LVL2
     /tmp/cc2H95HL.s:46     .text:0000000000000048 .LVL3
     /tmp/cc2H95HL.s:71     .text:000000000000006c .LVL6
     /tmp/cc2H95HL.s:2173   .debug_str:000000000000026b .LASF63
     /tmp/cc2H95HL.s:2115   .debug_str:00000000000000e4 .LASF64
     /tmp/cc2H95HL.s:2209   .debug_str:0000000000000450 .LASF44
     /tmp/cc2H95HL.s:2089   .debug_str:0000000000000023 .LASF46
     /tmp/cc2H95HL.s:2199   .debug_str:0000000000000407 .LASF45
     /tmp/cc2H95HL.s:2127   .debug_str:0000000000000117 .LASF47
     /tmp/cc2H95HL.s:2125   .debug_str:0000000000000102 .LASF48
     /tmp/cc2H95HL.s:2109   .debug_str:00000000000000b0 .LASF49
     /tmp/cc2H95HL.s:310    .text:00000000000001f0 .LVL37
     /tmp/cc2H95HL.s:314    .text:00000000000001f8 .LVL38
     /tmp/cc2H95HL.s:333    .text:0000000000000228 .LVL42
     /tmp/cc2H95HL.s:335    .text:000000000000022c .LVL43
     /tmp/cc2H95HL.s:399    .text:00000000000002c0 .LVL55
     /tmp/cc2H95HL.s:401    .text:00000000000002c4 .LVL56
     /tmp/cc2H95HL.s:433    .text:00000000000002f4 .LVL60
     /tmp/cc2H95HL.s:363    .text:0000000000000260 .LVL47
     /tmp/cc2H95HL.s:367    .text:0000000000000268 .LVL48
     /tmp/cc2H95HL.s:436    .text:00000000000002f8 .LVL61
     /tmp/cc2H95HL.s:411    .text:00000000000002d8 .LVL57
     /tmp/cc2H95HL.s:418    .text:00000000000002e0 .LVL58
     /tmp/cc2H95HL.s:116    .text:0000000000000088 .LVL7
     /tmp/cc2H95HL.s:120    .text:0000000000000090 .LVL8
     /tmp/cc2H95HL.s:139    .text:00000000000000c0 .LVL12
     /tmp/cc2H95HL.s:141    .text:00000000000000c4 .LVL13
     /tmp/cc2H95HL.s:229    .text:0000000000000188 .LVL29
     /tmp/cc2H95HL.s:231    .text:000000000000018c .LVL30
     /tmp/cc2H95HL.s:269    .text:00000000000001cc .LVL35
     /tmp/cc2H95HL.s:170    .text:00000000000000ec .LVL16
     /tmp/cc2H95HL.s:193    .text:0000000000000128 .LVL21
     /tmp/cc2H95HL.s:197    .text:0000000000000130 .LVL22
     /tmp/cc2H95HL.s:272    .text:00000000000001d0 .LVL36
     /tmp/cc2H95HL.s:246    .text:00000000000001b0 .LVL32
GAS LISTING /tmp/cc2H95HL.s 			page 19


     /tmp/cc2H95HL.s:254    .text:00000000000001b8 .LVL33
     /tmp/cc2H95HL.s:13     .text:0000000000000000 .LVL0
     /tmp/cc2H95HL.s:35     .text:000000000000002c .LVL1
     /tmp/cc2H95HL.s:59     .text:0000000000000058 .LVL4
     /tmp/cc2H95HL.s:65     .text:0000000000000064 .LVL5
     /tmp/cc2H95HL.s:448    .debug_info:0000000000000000 .Ldebug_info0

UNDEFINED SYMBOLS
_Z15thread_dispatchv
_Z11printStringPKc
_Z12printIntegerm
_ZN3CCB7runningE
